ARM GAS  C:\Users\KETEN_~1\AppData\Local\Temp\ccL6e6eH.s 			page 1


   1              		.cpu cortex-m4
   2              		.arch armv7e-m
   3              		.fpu fpv4-sp-d16
   4              		.eabi_attribute 27, 1
   5              		.eabi_attribute 28, 1
   6              		.eabi_attribute 20, 1
   7              		.eabi_attribute 21, 1
   8              		.eabi_attribute 23, 3
   9              		.eabi_attribute 24, 1
  10              		.eabi_attribute 25, 1
  11              		.eabi_attribute 26, 1
  12              		.eabi_attribute 30, 1
  13              		.eabi_attribute 34, 1
  14              		.eabi_attribute 18, 4
  15              		.file	"bsp_dwt.c"
  16              		.text
  17              	.Ltext0:
  18              		.cfi_sections	.debug_frame
  19              		.file 1 "Bsp/dwt/bsp_dwt.c"
  20              		.section	.text.DWT_CNT_Update,"ax",%progbits
  21              		.align	1
  22              		.syntax unified
  23              		.thumb
  24              		.thumb_func
  26              	DWT_CNT_Update:
  27              	.LFB137:
   1:Bsp/dwt/bsp_dwt.c **** /**
   2:Bsp/dwt/bsp_dwt.c ****  * @file bsp_dwt.c
   3:Bsp/dwt/bsp_dwt.c ****  * @author Keten (2863861004@qq.com) --Adapted from Wang Hongxi
   4:Bsp/dwt/bsp_dwt.c ****  * @brief 
   5:Bsp/dwt/bsp_dwt.c ****  * @version 0.1
   6:Bsp/dwt/bsp_dwt.c ****  * @date 2024-09-14
   7:Bsp/dwt/bsp_dwt.c ****  * 
   8:Bsp/dwt/bsp_dwt.c ****  * @copyright Copyright (c) 2024
   9:Bsp/dwt/bsp_dwt.c ****  * 
  10:Bsp/dwt/bsp_dwt.c ****  * @attention :
  11:Bsp/dwt/bsp_dwt.c ****  * @note :
  12:Bsp/dwt/bsp_dwt.c ****  * @versioninfo :
  13:Bsp/dwt/bsp_dwt.c ****  */
  14:Bsp/dwt/bsp_dwt.c **** 
  15:Bsp/dwt/bsp_dwt.c **** #include "bsp_dwt.h"
  16:Bsp/dwt/bsp_dwt.c **** 
  17:Bsp/dwt/bsp_dwt.c **** static DWT_Typedef SysTime;
  18:Bsp/dwt/bsp_dwt.c **** static uint32_t CPU_FREQ_Hz, CPU_FREQ_Hz_ms, CPU_FREQ_Hz_us;
  19:Bsp/dwt/bsp_dwt.c **** static uint32_t CYCCNT_RountCount;
  20:Bsp/dwt/bsp_dwt.c **** static uint32_t CYCCNT_LAST;
  21:Bsp/dwt/bsp_dwt.c **** static uint64_t CYCCNT64;
  22:Bsp/dwt/bsp_dwt.c **** 
  23:Bsp/dwt/bsp_dwt.c **** /**
  24:Bsp/dwt/bsp_dwt.c ****  * @brief static 函数,用于检查DWT CYCCNT寄存器是否溢出,并更新CYCCNT_RountCount
  25:Bsp/dwt/bsp_dwt.c ****  * @attention 此函数假设两次调用之间的时间间隔不超过一次溢出
  26:Bsp/dwt/bsp_dwt.c ****  */
  27:Bsp/dwt/bsp_dwt.c **** static void DWT_CNT_Update(void)
  28:Bsp/dwt/bsp_dwt.c **** {
  28              		.loc 1 28 1 view -0
  29              		.cfi_startproc
  30              		@ args = 0, pretend = 0, frame = 8
ARM GAS  C:\Users\KETEN_~1\AppData\Local\Temp\ccL6e6eH.s 			page 2


  31              		@ frame_needed = 0, uses_anonymous_args = 0
  32              		@ link register save eliminated.
  29:Bsp/dwt/bsp_dwt.c ****     // 添加位锁,用于互斥访问
  30:Bsp/dwt/bsp_dwt.c ****     static volatile uint8_t bit_locker = 0;
  33              		.loc 1 30 5 view .LVU1
  31:Bsp/dwt/bsp_dwt.c ****     if (!bit_locker)
  34              		.loc 1 31 5 view .LVU2
  35              		.loc 1 31 9 is_stmt 0 view .LVU3
  36 0000 0E4B     		ldr	r3, .L8
  37 0002 1B78     		ldrb	r3, [r3]	@ zero_extendqisi2
  38              		.loc 1 31 8 view .LVU4
  39 0004 C3B9     		cbnz	r3, .L5
  28:Bsp/dwt/bsp_dwt.c ****     // 添加位锁,用于互斥访问
  40              		.loc 1 28 1 view .LVU5
  41 0006 82B0     		sub	sp, sp, #8
  42              	.LCFI0:
  43              		.cfi_def_cfa_offset 8
  44              	.LBB2:
  32:Bsp/dwt/bsp_dwt.c ****     {
  33:Bsp/dwt/bsp_dwt.c ****         /* 上锁 */
  34:Bsp/dwt/bsp_dwt.c ****         bit_locker = 1;
  45              		.loc 1 34 9 is_stmt 1 view .LVU6
  46              		.loc 1 34 20 is_stmt 0 view .LVU7
  47 0008 0C4B     		ldr	r3, .L8
  48 000a 0122     		movs	r2, #1
  49 000c 1A70     		strb	r2, [r3]
  35:Bsp/dwt/bsp_dwt.c ****         /* 读取DWT->CYCCNT寄存器的当前值 */
  36:Bsp/dwt/bsp_dwt.c ****         volatile uint32_t cnt_now = DWT->CYCCNT;
  50              		.loc 1 36 9 is_stmt 1 view .LVU8
  51              		.loc 1 36 40 is_stmt 0 view .LVU9
  52 000e 0C4B     		ldr	r3, .L8+4
  53 0010 5B68     		ldr	r3, [r3, #4]
  54              		.loc 1 36 27 view .LVU10
  55 0012 0193     		str	r3, [sp, #4]
  37:Bsp/dwt/bsp_dwt.c ****         /* 溢出判断 */
  38:Bsp/dwt/bsp_dwt.c ****         if (cnt_now < CYCCNT_LAST)
  56              		.loc 1 38 9 is_stmt 1 view .LVU11
  57              		.loc 1 38 21 is_stmt 0 view .LVU12
  58 0014 019A     		ldr	r2, [sp, #4]
  59 0016 0B4B     		ldr	r3, .L8+8
  60 0018 1B68     		ldr	r3, [r3]
  61              		.loc 1 38 12 view .LVU13
  62 001a 9A42     		cmp	r2, r3
  63 001c 03D2     		bcs	.L3
  39:Bsp/dwt/bsp_dwt.c ****             CYCCNT_RountCount++;
  64              		.loc 1 39 13 is_stmt 1 view .LVU14
  65              		.loc 1 39 30 is_stmt 0 view .LVU15
  66 001e 0A4A     		ldr	r2, .L8+12
  67 0020 1368     		ldr	r3, [r2]
  68 0022 0133     		adds	r3, r3, #1
  69 0024 1360     		str	r3, [r2]
  70              	.L3:
  40:Bsp/dwt/bsp_dwt.c **** 
  41:Bsp/dwt/bsp_dwt.c ****         CYCCNT_LAST = DWT->CYCCNT;
  71              		.loc 1 41 9 is_stmt 1 view .LVU16
  72              		.loc 1 41 26 is_stmt 0 view .LVU17
  73 0026 064B     		ldr	r3, .L8+4
ARM GAS  C:\Users\KETEN_~1\AppData\Local\Temp\ccL6e6eH.s 			page 3


  74 0028 5A68     		ldr	r2, [r3, #4]
  75              		.loc 1 41 21 view .LVU18
  76 002a 064B     		ldr	r3, .L8+8
  77 002c 1A60     		str	r2, [r3]
  42:Bsp/dwt/bsp_dwt.c ****         /* 解锁 */
  43:Bsp/dwt/bsp_dwt.c ****         bit_locker = 0;
  78              		.loc 1 43 9 is_stmt 1 view .LVU19
  79              		.loc 1 43 20 is_stmt 0 view .LVU20
  80 002e 034B     		ldr	r3, .L8
  81 0030 0022     		movs	r2, #0
  82 0032 1A70     		strb	r2, [r3]
  83              	.LBE2:
  44:Bsp/dwt/bsp_dwt.c ****     }
  45:Bsp/dwt/bsp_dwt.c **** }
  84              		.loc 1 45 1 view .LVU21
  85 0034 02B0     		add	sp, sp, #8
  86              	.LCFI1:
  87              		.cfi_def_cfa_offset 0
  88              		@ sp needed
  89 0036 7047     		bx	lr
  90              	.L5:
  91 0038 7047     		bx	lr
  92              	.L9:
  93 003a 00BF     		.align	2
  94              	.L8:
  95 003c 00000000 		.word	bit_locker.3
  96 0040 001000E0 		.word	-536866816
  97 0044 00000000 		.word	CYCCNT_LAST
  98 0048 00000000 		.word	CYCCNT_RountCount
  99              		.cfi_endproc
 100              	.LFE137:
 102              		.section	.text.DWT_Init,"ax",%progbits
 103              		.align	1
 104              		.global	DWT_Init
 105              		.syntax unified
 106              		.thumb
 107              		.thumb_func
 109              	DWT_Init:
 110              	.LVL0:
 111              	.LFB138:
  46:Bsp/dwt/bsp_dwt.c **** 
  47:Bsp/dwt/bsp_dwt.c **** void DWT_Init(uint32_t CPU_Freq_mHz)
  48:Bsp/dwt/bsp_dwt.c **** {
 112              		.loc 1 48 1 is_stmt 1 view -0
 113              		.cfi_startproc
 114              		@ args = 0, pretend = 0, frame = 0
 115              		@ frame_needed = 0, uses_anonymous_args = 0
 116              		.loc 1 48 1 is_stmt 0 view .LVU23
 117 0000 08B5     		push	{r3, lr}
 118              	.LCFI2:
 119              		.cfi_def_cfa_offset 8
 120              		.cfi_offset 3, -8
 121              		.cfi_offset 14, -4
  49:Bsp/dwt/bsp_dwt.c ****     /* 使能DWT外设 */
  50:Bsp/dwt/bsp_dwt.c ****     CoreDebug->DEMCR |= CoreDebug_DEMCR_TRCENA_Msk;
 122              		.loc 1 50 5 is_stmt 1 view .LVU24
 123              		.loc 1 50 14 is_stmt 0 view .LVU25
ARM GAS  C:\Users\KETEN_~1\AppData\Local\Temp\ccL6e6eH.s 			page 4


 124 0002 124A     		ldr	r2, .L12
 125 0004 D2F8FC30 		ldr	r3, [r2, #252]
 126              		.loc 1 50 22 view .LVU26
 127 0008 43F08073 		orr	r3, r3, #16777216
 128 000c C2F8FC30 		str	r3, [r2, #252]
  51:Bsp/dwt/bsp_dwt.c **** 
  52:Bsp/dwt/bsp_dwt.c ****     /* DWT CYCCNT寄存器计数清0 */
  53:Bsp/dwt/bsp_dwt.c ****     DWT->CYCCNT = (uint32_t)0u;
 129              		.loc 1 53 5 is_stmt 1 view .LVU27
 130              		.loc 1 53 17 is_stmt 0 view .LVU28
 131 0010 0F4B     		ldr	r3, .L12+4
 132 0012 0021     		movs	r1, #0
 133 0014 5960     		str	r1, [r3, #4]
  54:Bsp/dwt/bsp_dwt.c **** 
  55:Bsp/dwt/bsp_dwt.c ****     /* 使能Cortex-M DWT CYCCNT寄存器 */
  56:Bsp/dwt/bsp_dwt.c ****     DWT->CTRL |= DWT_CTRL_CYCCNTENA_Msk;
 134              		.loc 1 56 5 is_stmt 1 view .LVU29
 135              		.loc 1 56 8 is_stmt 0 view .LVU30
 136 0016 1A68     		ldr	r2, [r3]
 137              		.loc 1 56 15 view .LVU31
 138 0018 42F00102 		orr	r2, r2, #1
 139 001c 1A60     		str	r2, [r3]
  57:Bsp/dwt/bsp_dwt.c ****     /* 外部传参 CPU_Freq_mHz */
  58:Bsp/dwt/bsp_dwt.c ****     CPU_FREQ_Hz = CPU_Freq_mHz * 1000000;// 单位转换
 140              		.loc 1 58 5 is_stmt 1 view .LVU32
 141              		.loc 1 58 32 is_stmt 0 view .LVU33
 142 001e 0D4B     		ldr	r3, .L12+8
 143 0020 03FB00F0 		mul	r0, r3, r0
 144              	.LVL1:
 145              		.loc 1 58 17 view .LVU34
 146 0024 0C4B     		ldr	r3, .L12+12
 147 0026 1860     		str	r0, [r3]
  59:Bsp/dwt/bsp_dwt.c ****     CPU_FREQ_Hz_ms = CPU_FREQ_Hz / 1000;
 148              		.loc 1 59 5 is_stmt 1 view .LVU35
 149              		.loc 1 59 34 is_stmt 0 view .LVU36
 150 0028 0C4B     		ldr	r3, .L12+16
 151 002a A3FB0023 		umull	r2, r3, r3, r0
 152 002e 9B09     		lsrs	r3, r3, #6
 153              		.loc 1 59 20 view .LVU37
 154 0030 0B4A     		ldr	r2, .L12+20
 155 0032 1360     		str	r3, [r2]
  60:Bsp/dwt/bsp_dwt.c ****     CPU_FREQ_Hz_us = CPU_FREQ_Hz / 1000000;
 156              		.loc 1 60 5 is_stmt 1 view .LVU38
 157              		.loc 1 60 34 is_stmt 0 view .LVU39
 158 0034 0B4B     		ldr	r3, .L12+24
 159 0036 A3FB0030 		umull	r3, r0, r3, r0
 160 003a 800C     		lsrs	r0, r0, #18
 161              		.loc 1 60 20 view .LVU40
 162 003c 0A4B     		ldr	r3, .L12+28
 163 003e 1860     		str	r0, [r3]
  61:Bsp/dwt/bsp_dwt.c ****     CYCCNT_RountCount = 0;
 164              		.loc 1 61 5 is_stmt 1 view .LVU41
 165              		.loc 1 61 23 is_stmt 0 view .LVU42
 166 0040 0A4B     		ldr	r3, .L12+32
 167 0042 1960     		str	r1, [r3]
  62:Bsp/dwt/bsp_dwt.c ****     // 更新计数
  63:Bsp/dwt/bsp_dwt.c ****     DWT_CNT_Update();
ARM GAS  C:\Users\KETEN_~1\AppData\Local\Temp\ccL6e6eH.s 			page 5


 168              		.loc 1 63 5 is_stmt 1 view .LVU43
 169 0044 FFF7FEFF 		bl	DWT_CNT_Update
 170              	.LVL2:
  64:Bsp/dwt/bsp_dwt.c **** }
 171              		.loc 1 64 1 is_stmt 0 view .LVU44
 172 0048 08BD     		pop	{r3, pc}
 173              	.L13:
 174 004a 00BF     		.align	2
 175              	.L12:
 176 004c 00ED00E0 		.word	-536810240
 177 0050 001000E0 		.word	-536866816
 178 0054 40420F00 		.word	1000000
 179 0058 00000000 		.word	CPU_FREQ_Hz
 180 005c D34D6210 		.word	274877907
 181 0060 00000000 		.word	CPU_FREQ_Hz_ms
 182 0064 83DE1B43 		.word	1125899907
 183 0068 00000000 		.word	CPU_FREQ_Hz_us
 184 006c 00000000 		.word	CYCCNT_RountCount
 185              		.cfi_endproc
 186              	.LFE138:
 188              		.section	.text.DWT_GetDeltaT,"ax",%progbits
 189              		.align	1
 190              		.global	DWT_GetDeltaT
 191              		.syntax unified
 192              		.thumb
 193              		.thumb_func
 195              	DWT_GetDeltaT:
 196              	.LVL3:
 197              	.LFB139:
  65:Bsp/dwt/bsp_dwt.c **** 
  66:Bsp/dwt/bsp_dwt.c **** 
  67:Bsp/dwt/bsp_dwt.c **** float DWT_GetDeltaT(uint32_t *cnt_last)
  68:Bsp/dwt/bsp_dwt.c **** {
 198              		.loc 1 68 1 is_stmt 1 view -0
 199              		.cfi_startproc
 200              		@ args = 0, pretend = 0, frame = 8
 201              		@ frame_needed = 0, uses_anonymous_args = 0
 202              		.loc 1 68 1 is_stmt 0 view .LVU46
 203 0000 00B5     		push	{lr}
 204              	.LCFI3:
 205              		.cfi_def_cfa_offset 4
 206              		.cfi_offset 14, -4
 207 0002 2DED028B 		vpush.64	{d8}
 208              	.LCFI4:
 209              		.cfi_def_cfa_offset 12
 210              		.cfi_offset 80, -12
 211              		.cfi_offset 81, -8
 212 0006 83B0     		sub	sp, sp, #12
 213              	.LCFI5:
 214              		.cfi_def_cfa_offset 24
  69:Bsp/dwt/bsp_dwt.c ****     volatile uint32_t cnt_now = DWT->CYCCNT;
 215              		.loc 1 69 5 is_stmt 1 view .LVU47
 216              		.loc 1 69 36 is_stmt 0 view .LVU48
 217 0008 0D4B     		ldr	r3, .L16
 218 000a 5B68     		ldr	r3, [r3, #4]
 219              		.loc 1 69 23 view .LVU49
 220 000c 0193     		str	r3, [sp, #4]
ARM GAS  C:\Users\KETEN_~1\AppData\Local\Temp\ccL6e6eH.s 			page 6


  70:Bsp/dwt/bsp_dwt.c ****     /* 返回32位浮点数 */
  71:Bsp/dwt/bsp_dwt.c ****     float dt = ((uint32_t)(cnt_now - *cnt_last)) / ((float)(CPU_FREQ_Hz));
 221              		.loc 1 71 5 is_stmt 1 view .LVU50
 222              		.loc 1 71 36 is_stmt 0 view .LVU51
 223 000e 019B     		ldr	r3, [sp, #4]
 224              		.loc 1 71 38 view .LVU52
 225 0010 0268     		ldr	r2, [r0]
 226              		.loc 1 71 36 view .LVU53
 227 0012 9B1A     		subs	r3, r3, r2
 228              		.loc 1 71 50 view .LVU54
 229 0014 07EE903A 		vmov	s15, r3	@ int
 230 0018 F8EE677A 		vcvt.f32.u32	s15, s15
 231              		.loc 1 71 53 view .LVU55
 232 001c 094B     		ldr	r3, .L16+4
 233 001e 93ED007A 		vldr.32	s14, [r3]	@ int
 234 0022 B8EE477A 		vcvt.f32.u32	s14, s14
 235              		.loc 1 71 11 view .LVU56
 236 0026 87EE878A 		vdiv.f32	s16, s15, s14
 237              	.LVL4:
  72:Bsp/dwt/bsp_dwt.c ****     *cnt_last = cnt_now;
 238              		.loc 1 72 5 is_stmt 1 view .LVU57
 239              		.loc 1 72 15 is_stmt 0 view .LVU58
 240 002a 019B     		ldr	r3, [sp, #4]
 241 002c 0360     		str	r3, [r0]
  73:Bsp/dwt/bsp_dwt.c **** 
  74:Bsp/dwt/bsp_dwt.c ****     DWT_CNT_Update();
 242              		.loc 1 74 5 is_stmt 1 view .LVU59
 243 002e FFF7FEFF 		bl	DWT_CNT_Update
 244              	.LVL5:
  75:Bsp/dwt/bsp_dwt.c **** 
  76:Bsp/dwt/bsp_dwt.c ****     return dt;
 245              		.loc 1 76 5 view .LVU60
  77:Bsp/dwt/bsp_dwt.c **** }
 246              		.loc 1 77 1 is_stmt 0 view .LVU61
 247 0032 B0EE480A 		vmov.f32	s0, s16
 248 0036 03B0     		add	sp, sp, #12
 249              	.LCFI6:
 250              		.cfi_def_cfa_offset 12
 251              		@ sp needed
 252 0038 BDEC028B 		vldm	sp!, {d8}
 253              	.LCFI7:
 254              		.cfi_restore 80
 255              		.cfi_restore 81
 256              		.cfi_def_cfa_offset 4
 257              	.LVL6:
 258              		.loc 1 77 1 view .LVU62
 259 003c 5DF804FB 		ldr	pc, [sp], #4
 260              	.L17:
 261              		.align	2
 262              	.L16:
 263 0040 001000E0 		.word	-536866816
 264 0044 00000000 		.word	CPU_FREQ_Hz
 265              		.cfi_endproc
 266              	.LFE139:
 268              		.global	__aeabi_ui2d
 269              		.global	__aeabi_ddiv
 270              		.section	.text.DWT_GetDeltaT64,"ax",%progbits
ARM GAS  C:\Users\KETEN_~1\AppData\Local\Temp\ccL6e6eH.s 			page 7


 271              		.align	1
 272              		.global	DWT_GetDeltaT64
 273              		.syntax unified
 274              		.thumb
 275              		.thumb_func
 277              	DWT_GetDeltaT64:
 278              	.LVL7:
 279              	.LFB140:
  78:Bsp/dwt/bsp_dwt.c **** 
  79:Bsp/dwt/bsp_dwt.c **** 
  80:Bsp/dwt/bsp_dwt.c **** double DWT_GetDeltaT64(uint32_t *cnt_last)
  81:Bsp/dwt/bsp_dwt.c **** {
 280              		.loc 1 81 1 is_stmt 1 view -0
 281              		.cfi_startproc
 282              		@ args = 0, pretend = 0, frame = 8
 283              		@ frame_needed = 0, uses_anonymous_args = 0
 284              		.loc 1 81 1 is_stmt 0 view .LVU64
 285 0000 D0B5     		push	{r4, r6, r7, lr}
 286              	.LCFI8:
 287              		.cfi_def_cfa_offset 16
 288              		.cfi_offset 4, -16
 289              		.cfi_offset 6, -12
 290              		.cfi_offset 7, -8
 291              		.cfi_offset 14, -4
 292 0002 2DED028B 		vpush.64	{d8}
 293              	.LCFI9:
 294              		.cfi_def_cfa_offset 24
 295              		.cfi_offset 80, -24
 296              		.cfi_offset 81, -20
 297 0006 82B0     		sub	sp, sp, #8
 298              	.LCFI10:
 299              		.cfi_def_cfa_offset 32
 300 0008 0446     		mov	r4, r0
  82:Bsp/dwt/bsp_dwt.c ****     volatile uint32_t cnt_now = DWT->CYCCNT;
 301              		.loc 1 82 5 is_stmt 1 view .LVU65
 302              		.loc 1 82 36 is_stmt 0 view .LVU66
 303 000a 114B     		ldr	r3, .L20
 304 000c 5B68     		ldr	r3, [r3, #4]
 305              		.loc 1 82 23 view .LVU67
 306 000e 0193     		str	r3, [sp, #4]
  83:Bsp/dwt/bsp_dwt.c ****     /* 返回64位浮点数 */
  84:Bsp/dwt/bsp_dwt.c ****     double dt = ((uint32_t)(cnt_now - *cnt_last)) / ((double)(CPU_FREQ_Hz));
 307              		.loc 1 84 5 is_stmt 1 view .LVU68
 308              		.loc 1 84 37 is_stmt 0 view .LVU69
 309 0010 0198     		ldr	r0, [sp, #4]
 310              	.LVL8:
 311              		.loc 1 84 39 view .LVU70
 312 0012 2368     		ldr	r3, [r4]
 313              		.loc 1 84 51 view .LVU71
 314 0014 C01A     		subs	r0, r0, r3
 315 0016 FFF7FEFF 		bl	__aeabi_ui2d
 316              	.LVL9:
 317 001a 0646     		mov	r6, r0
 318 001c 0F46     		mov	r7, r1
 319              		.loc 1 84 54 view .LVU72
 320 001e 0D4B     		ldr	r3, .L20+4
 321 0020 1868     		ldr	r0, [r3]
ARM GAS  C:\Users\KETEN_~1\AppData\Local\Temp\ccL6e6eH.s 			page 8


 322 0022 FFF7FEFF 		bl	__aeabi_ui2d
 323              	.LVL10:
 324 0026 0246     		mov	r2, r0
 325 0028 0B46     		mov	r3, r1
 326              		.loc 1 84 12 view .LVU73
 327 002a 3046     		mov	r0, r6
 328 002c 3946     		mov	r1, r7
 329 002e FFF7FEFF 		bl	__aeabi_ddiv
 330              	.LVL11:
 331 0032 41EC180B 		vmov	d8, r0, r1
 332              	.LVL12:
  85:Bsp/dwt/bsp_dwt.c ****     *cnt_last = cnt_now;
 333              		.loc 1 85 5 is_stmt 1 view .LVU74
 334              		.loc 1 85 15 is_stmt 0 view .LVU75
 335 0036 019B     		ldr	r3, [sp, #4]
 336 0038 2360     		str	r3, [r4]
  86:Bsp/dwt/bsp_dwt.c **** 
  87:Bsp/dwt/bsp_dwt.c ****     DWT_CNT_Update();
 337              		.loc 1 87 5 is_stmt 1 view .LVU76
 338 003a FFF7FEFF 		bl	DWT_CNT_Update
 339              	.LVL13:
  88:Bsp/dwt/bsp_dwt.c **** 
  89:Bsp/dwt/bsp_dwt.c ****     return dt;
 340              		.loc 1 89 5 view .LVU77
  90:Bsp/dwt/bsp_dwt.c **** }
 341              		.loc 1 90 1 is_stmt 0 view .LVU78
 342 003e B0EE480A 		vmov.f32	s0, s16
 343 0042 F0EE680A 		vmov.f32	s1, s17
 344 0046 02B0     		add	sp, sp, #8
 345              	.LCFI11:
 346              		.cfi_def_cfa_offset 24
 347              		@ sp needed
 348 0048 BDEC028B 		vldm	sp!, {d8}
 349              	.LCFI12:
 350              		.cfi_restore 80
 351              		.cfi_restore 81
 352              		.cfi_def_cfa_offset 16
 353              	.LVL14:
 354              		.loc 1 90 1 view .LVU79
 355 004c D0BD     		pop	{r4, r6, r7, pc}
 356              	.LVL15:
 357              	.L21:
 358              		.loc 1 90 1 view .LVU80
 359 004e 00BF     		.align	2
 360              	.L20:
 361 0050 001000E0 		.word	-536866816
 362 0054 00000000 		.word	CPU_FREQ_Hz
 363              		.cfi_endproc
 364              	.LFE140:
 366              		.global	__aeabi_uldivmod
 367              		.section	.text.DWT_SysTimeUpdate,"ax",%progbits
 368              		.align	1
 369              		.global	DWT_SysTimeUpdate
 370              		.syntax unified
 371              		.thumb
 372              		.thumb_func
 374              	DWT_SysTimeUpdate:
ARM GAS  C:\Users\KETEN_~1\AppData\Local\Temp\ccL6e6eH.s 			page 9


 375              	.LFB141:
  91:Bsp/dwt/bsp_dwt.c **** 
  92:Bsp/dwt/bsp_dwt.c **** 
  93:Bsp/dwt/bsp_dwt.c **** void DWT_SysTimeUpdate(void)
  94:Bsp/dwt/bsp_dwt.c **** {
 376              		.loc 1 94 1 is_stmt 1 view -0
 377              		.cfi_startproc
 378              		@ args = 0, pretend = 0, frame = 8
 379              		@ frame_needed = 0, uses_anonymous_args = 0
 380 0000 2DE9F041 		push	{r4, r5, r6, r7, r8, lr}
 381              	.LCFI13:
 382              		.cfi_def_cfa_offset 24
 383              		.cfi_offset 4, -24
 384              		.cfi_offset 5, -20
 385              		.cfi_offset 6, -16
 386              		.cfi_offset 7, -12
 387              		.cfi_offset 8, -8
 388              		.cfi_offset 14, -4
 389 0004 82B0     		sub	sp, sp, #8
 390              	.LCFI14:
 391              		.cfi_def_cfa_offset 32
  95:Bsp/dwt/bsp_dwt.c ****     /* 更新系统时间 */
  96:Bsp/dwt/bsp_dwt.c ****     volatile uint32_t cnt_now = DWT->CYCCNT;
 392              		.loc 1 96 5 view .LVU82
 393              		.loc 1 96 36 is_stmt 0 view .LVU83
 394 0006 294B     		ldr	r3, .L24
 395 0008 5B68     		ldr	r3, [r3, #4]
 396              		.loc 1 96 23 view .LVU84
 397 000a 0193     		str	r3, [sp, #4]
  97:Bsp/dwt/bsp_dwt.c ****     static uint64_t CNT_TEMP1, CNT_TEMP2, CNT_TEMP3;
 398              		.loc 1 97 5 is_stmt 1 view .LVU85
  98:Bsp/dwt/bsp_dwt.c **** 
  99:Bsp/dwt/bsp_dwt.c ****     /*  */
 100:Bsp/dwt/bsp_dwt.c ****     DWT_CNT_Update();
 399              		.loc 1 100 5 view .LVU86
 400 000c FFF7FEFF 		bl	DWT_CNT_Update
 401              	.LVL16:
 101:Bsp/dwt/bsp_dwt.c **** 
 102:Bsp/dwt/bsp_dwt.c ****     /*  */
 103:Bsp/dwt/bsp_dwt.c ****     CYCCNT64 = (uint64_t)CYCCNT_RountCount * (uint64_t)UINT32_MAX + (uint64_t)cnt_now;
 402              		.loc 1 103 5 view .LVU87
 403              		.loc 1 103 16 is_stmt 0 view .LVU88
 404 0010 274B     		ldr	r3, .L24+4
 405 0012 1C68     		ldr	r4, [r3]
 406 0014 0026     		movs	r6, #0
 407              		.loc 1 103 44 view .LVU89
 408 0016 6508     		lsrs	r5, r4, #1
 409 0018 E307     		lsls	r3, r4, #31
 410 001a 1B1B     		subs	r3, r3, r4
 411 001c 65F10005 		sbc	r5, r5, #0
 412 0020 DB18     		adds	r3, r3, r3
 413 0022 6D41     		adcs	r5, r5, r5
 414 0024 1C19     		adds	r4, r3, r4
 415 0026 45F10005 		adc	r5, r5, #0
 416              		.loc 1 103 69 view .LVU90
 417 002a 019B     		ldr	r3, [sp, #4]
 418              		.loc 1 103 67 view .LVU91
ARM GAS  C:\Users\KETEN_~1\AppData\Local\Temp\ccL6e6eH.s 			page 10


 419 002c E418     		adds	r4, r4, r3
 420 002e 45F10005 		adc	r5, r5, #0
 421              		.loc 1 103 14 view .LVU92
 422 0032 204B     		ldr	r3, .L24+8
 423 0034 1C60     		str	r4, [r3]
 424 0036 5D60     		str	r5, [r3, #4]
 104:Bsp/dwt/bsp_dwt.c ****     CNT_TEMP1 = CYCCNT64 / CPU_FREQ_Hz;
 425              		.loc 1 104 5 is_stmt 1 view .LVU93
 426              		.loc 1 104 26 is_stmt 0 view .LVU94
 427 0038 1F4B     		ldr	r3, .L24+12
 428 003a D3F80080 		ldr	r8, [r3]
 429 003e 4246     		mov	r2, r8
 430 0040 3346     		mov	r3, r6
 431 0042 2046     		mov	r0, r4
 432 0044 2946     		mov	r1, r5
 433 0046 FFF7FEFF 		bl	__aeabi_uldivmod
 434              	.LVL17:
 435 004a 0746     		mov	r7, r0
 436              		.loc 1 104 15 view .LVU95
 437 004c 1B4B     		ldr	r3, .L24+16
 438 004e 1860     		str	r0, [r3]
 439 0050 5960     		str	r1, [r3, #4]
 105:Bsp/dwt/bsp_dwt.c ****     CNT_TEMP2 = CYCCNT64 - CNT_TEMP1 * CPU_FREQ_Hz;
 440              		.loc 1 105 5 is_stmt 1 view .LVU96
 441 0052 4246     		mov	r2, r8
 442 0054 3346     		mov	r3, r6
 443 0056 2046     		mov	r0, r4
 444 0058 2946     		mov	r1, r5
 445 005a FFF7FEFF 		bl	__aeabi_uldivmod
 446              	.LVL18:
 447 005e 1046     		mov	r0, r2
 448 0060 1C46     		mov	r4, r3
 449 0062 1546     		mov	r5, r2
 450              		.loc 1 105 15 is_stmt 0 view .LVU97
 451 0064 164B     		ldr	r3, .L24+20
 452 0066 1A60     		str	r2, [r3]
 453 0068 5C60     		str	r4, [r3, #4]
 106:Bsp/dwt/bsp_dwt.c ****     SysTime.s = CNT_TEMP1;
 454              		.loc 1 106 5 is_stmt 1 view .LVU98
 455              		.loc 1 106 15 is_stmt 0 view .LVU99
 456 006a DFF86480 		ldr	r8, .L24+36
 457 006e C8F80070 		str	r7, [r8]
 107:Bsp/dwt/bsp_dwt.c ****     SysTime.ms = CNT_TEMP2 / CPU_FREQ_Hz_ms;
 458              		.loc 1 107 5 is_stmt 1 view .LVU100
 459              		.loc 1 107 28 is_stmt 0 view .LVU101
 460 0072 144B     		ldr	r3, .L24+24
 461 0074 1F68     		ldr	r7, [r3]
 462 0076 3A46     		mov	r2, r7
 463 0078 3346     		mov	r3, r6
 464 007a 2146     		mov	r1, r4
 465 007c FFF7FEFF 		bl	__aeabi_uldivmod
 466              	.LVL19:
 467              		.loc 1 107 16 view .LVU102
 468 0080 80B2     		uxth	r0, r0
 469 0082 A8F80400 		strh	r0, [r8, #4]	@ movhi
 108:Bsp/dwt/bsp_dwt.c ****     CNT_TEMP3 = CNT_TEMP2 - SysTime.ms * CPU_FREQ_Hz_ms;
 470              		.loc 1 108 5 is_stmt 1 view .LVU103
ARM GAS  C:\Users\KETEN_~1\AppData\Local\Temp\ccL6e6eH.s 			page 11


 471              		.loc 1 108 40 is_stmt 0 view .LVU104
 472 0086 00FB07F7 		mul	r7, r0, r7
 473              		.loc 1 108 27 view .LVU105
 474 008a E81B     		subs	r0, r5, r7
 475 008c 64F10001 		sbc	r1, r4, #0
 476              		.loc 1 108 15 view .LVU106
 477 0090 0D4B     		ldr	r3, .L24+28
 478 0092 1860     		str	r0, [r3]
 479 0094 5960     		str	r1, [r3, #4]
 109:Bsp/dwt/bsp_dwt.c ****     SysTime.us = CNT_TEMP3 / CPU_FREQ_Hz_us;
 480              		.loc 1 109 5 is_stmt 1 view .LVU107
 481              		.loc 1 109 28 is_stmt 0 view .LVU108
 482 0096 0D4B     		ldr	r3, .L24+32
 483 0098 1A68     		ldr	r2, [r3]
 484 009a 3346     		mov	r3, r6
 485 009c FFF7FEFF 		bl	__aeabi_uldivmod
 486              	.LVL20:
 487              		.loc 1 109 16 view .LVU109
 488 00a0 A8F80600 		strh	r0, [r8, #6]	@ movhi
 110:Bsp/dwt/bsp_dwt.c **** }
 489              		.loc 1 110 1 view .LVU110
 490 00a4 02B0     		add	sp, sp, #8
 491              	.LCFI15:
 492              		.cfi_def_cfa_offset 24
 493              		@ sp needed
 494 00a6 BDE8F081 		pop	{r4, r5, r6, r7, r8, pc}
 495              	.L25:
 496 00aa 00BF     		.align	2
 497              	.L24:
 498 00ac 001000E0 		.word	-536866816
 499 00b0 00000000 		.word	CYCCNT_RountCount
 500 00b4 00000000 		.word	CYCCNT64
 501 00b8 00000000 		.word	CPU_FREQ_Hz
 502 00bc 00000000 		.word	CNT_TEMP1.2
 503 00c0 00000000 		.word	CNT_TEMP2.1
 504 00c4 00000000 		.word	CPU_FREQ_Hz_ms
 505 00c8 00000000 		.word	CNT_TEMP3.0
 506 00cc 00000000 		.word	CPU_FREQ_Hz_us
 507 00d0 00000000 		.word	SysTime
 508              		.cfi_endproc
 509              	.LFE141:
 511              		.section	.text.DWT_GetTimeline_s,"ax",%progbits
 512              		.align	1
 513              		.global	DWT_GetTimeline_s
 514              		.syntax unified
 515              		.thumb
 516              		.thumb_func
 518              	DWT_GetTimeline_s:
 519              	.LFB142:
 111:Bsp/dwt/bsp_dwt.c **** 
 112:Bsp/dwt/bsp_dwt.c **** 
 113:Bsp/dwt/bsp_dwt.c **** float DWT_GetTimeline_s(void)
 114:Bsp/dwt/bsp_dwt.c **** {
 520              		.loc 1 114 1 is_stmt 1 view -0
 521              		.cfi_startproc
 522              		@ args = 0, pretend = 0, frame = 0
 523              		@ frame_needed = 0, uses_anonymous_args = 0
ARM GAS  C:\Users\KETEN_~1\AppData\Local\Temp\ccL6e6eH.s 			page 12


 524 0000 08B5     		push	{r3, lr}
 525              	.LCFI16:
 526              		.cfi_def_cfa_offset 8
 527              		.cfi_offset 3, -8
 528              		.cfi_offset 14, -4
 115:Bsp/dwt/bsp_dwt.c ****     DWT_SysTimeUpdate();
 529              		.loc 1 115 5 view .LVU112
 530 0002 FFF7FEFF 		bl	DWT_SysTimeUpdate
 531              	.LVL21:
 116:Bsp/dwt/bsp_dwt.c **** 
 117:Bsp/dwt/bsp_dwt.c ****     float DWT_Timelinef32 = SysTime.s + SysTime.ms * 0.001f + SysTime.us * 0.000001f;
 532              		.loc 1 117 5 view .LVU113
 533              		.loc 1 117 36 is_stmt 0 view .LVU114
 534 0006 0E4B     		ldr	r3, .L28
 535              		.loc 1 117 48 view .LVU115
 536 0008 9A88     		ldrh	r2, [r3, #4]
 537 000a 07EE902A 		vmov	s15, r2	@ int
 538              		.loc 1 117 52 view .LVU116
 539 000e F8EEE77A 		vcvt.f32.s32	s15, s15
 540 0012 9FED0C7A 		vldr.32	s14, .L28+4
 541 0016 67EE877A 		vmul.f32	s15, s15, s14
 542              		.loc 1 117 39 view .LVU117
 543 001a 93ED007A 		vldr.32	s14, [r3]	@ int
 544 001e B8EE470A 		vcvt.f32.u32	s0, s14
 545 0022 30EE270A 		vadd.f32	s0, s0, s15
 546              		.loc 1 117 70 view .LVU118
 547 0026 DB88     		ldrh	r3, [r3, #6]
 548 0028 07EE903A 		vmov	s15, r3	@ int
 549              		.loc 1 117 74 view .LVU119
 550 002c F8EEE77A 		vcvt.f32.s32	s15, s15
 551 0030 9FED057A 		vldr.32	s14, .L28+8
 552 0034 67EE877A 		vmul.f32	s15, s15, s14
 553              	.LVL22:
 118:Bsp/dwt/bsp_dwt.c **** 
 119:Bsp/dwt/bsp_dwt.c ****     return DWT_Timelinef32;
 554              		.loc 1 119 5 is_stmt 1 view .LVU120
 120:Bsp/dwt/bsp_dwt.c **** }
 555              		.loc 1 120 1 is_stmt 0 view .LVU121
 556 0038 30EE270A 		vadd.f32	s0, s0, s15
 557              	.LVL23:
 558              		.loc 1 120 1 view .LVU122
 559 003c 08BD     		pop	{r3, pc}
 560              	.L29:
 561 003e 00BF     		.align	2
 562              	.L28:
 563 0040 00000000 		.word	SysTime
 564 0044 6F12833A 		.word	981668463
 565 0048 BD378635 		.word	897988541
 566              		.cfi_endproc
 567              	.LFE142:
 569              		.section	.text.DWT_GetTimeline_ms,"ax",%progbits
 570              		.align	1
 571              		.global	DWT_GetTimeline_ms
 572              		.syntax unified
 573              		.thumb
 574              		.thumb_func
 576              	DWT_GetTimeline_ms:
ARM GAS  C:\Users\KETEN_~1\AppData\Local\Temp\ccL6e6eH.s 			page 13


 577              	.LFB143:
 121:Bsp/dwt/bsp_dwt.c **** 
 122:Bsp/dwt/bsp_dwt.c **** 
 123:Bsp/dwt/bsp_dwt.c **** float DWT_GetTimeline_ms(void)
 124:Bsp/dwt/bsp_dwt.c **** {
 578              		.loc 1 124 1 is_stmt 1 view -0
 579              		.cfi_startproc
 580              		@ args = 0, pretend = 0, frame = 0
 581              		@ frame_needed = 0, uses_anonymous_args = 0
 582 0000 08B5     		push	{r3, lr}
 583              	.LCFI17:
 584              		.cfi_def_cfa_offset 8
 585              		.cfi_offset 3, -8
 586              		.cfi_offset 14, -4
 125:Bsp/dwt/bsp_dwt.c ****     DWT_SysTimeUpdate();
 587              		.loc 1 125 5 view .LVU124
 588 0002 FFF7FEFF 		bl	DWT_SysTimeUpdate
 589              	.LVL24:
 126:Bsp/dwt/bsp_dwt.c **** 
 127:Bsp/dwt/bsp_dwt.c ****     float DWT_Timelinef32 = SysTime.s * 1000 + SysTime.ms + SysTime.us * 0.001f;
 590              		.loc 1 127 5 view .LVU125
 591              		.loc 1 127 36 is_stmt 0 view .LVU126
 592 0006 0B4A     		ldr	r2, .L32
 593 0008 1168     		ldr	r1, [r2]
 594              		.loc 1 127 55 view .LVU127
 595 000a 9388     		ldrh	r3, [r2, #4]
 596              		.loc 1 127 46 view .LVU128
 597 000c 4FF47A70 		mov	r0, #1000
 598 0010 00FB0133 		mla	r3, r0, r1, r3
 599 0014 00EE103A 		vmov	s0, r3	@ int
 600              		.loc 1 127 59 view .LVU129
 601 0018 B8EE400A 		vcvt.f32.u32	s0, s0
 602              		.loc 1 127 68 view .LVU130
 603 001c D388     		ldrh	r3, [r2, #6]
 604 001e 07EE903A 		vmov	s15, r3	@ int
 605              		.loc 1 127 72 view .LVU131
 606 0022 F8EEE77A 		vcvt.f32.s32	s15, s15
 607 0026 9FED047A 		vldr.32	s14, .L32+4
 608 002a 67EE877A 		vmul.f32	s15, s15, s14
 609              	.LVL25:
 128:Bsp/dwt/bsp_dwt.c **** 
 129:Bsp/dwt/bsp_dwt.c ****     return DWT_Timelinef32;
 610              		.loc 1 129 5 is_stmt 1 view .LVU132
 130:Bsp/dwt/bsp_dwt.c **** }
 611              		.loc 1 130 1 is_stmt 0 view .LVU133
 612 002e 30EE270A 		vadd.f32	s0, s0, s15
 613              	.LVL26:
 614              		.loc 1 130 1 view .LVU134
 615 0032 08BD     		pop	{r3, pc}
 616              	.L33:
 617              		.align	2
 618              	.L32:
 619 0034 00000000 		.word	SysTime
 620 0038 6F12833A 		.word	981668463
 621              		.cfi_endproc
 622              	.LFE143:
 624              		.section	.text.DWT_GetTimeline_us,"ax",%progbits
ARM GAS  C:\Users\KETEN_~1\AppData\Local\Temp\ccL6e6eH.s 			page 14


 625              		.align	1
 626              		.global	DWT_GetTimeline_us
 627              		.syntax unified
 628              		.thumb
 629              		.thumb_func
 631              	DWT_GetTimeline_us:
 632              	.LFB144:
 131:Bsp/dwt/bsp_dwt.c **** 
 132:Bsp/dwt/bsp_dwt.c **** 
 133:Bsp/dwt/bsp_dwt.c **** uint64_t DWT_GetTimeline_us(void)
 134:Bsp/dwt/bsp_dwt.c **** {
 633              		.loc 1 134 1 is_stmt 1 view -0
 634              		.cfi_startproc
 635              		@ args = 0, pretend = 0, frame = 0
 636              		@ frame_needed = 0, uses_anonymous_args = 0
 637 0000 08B5     		push	{r3, lr}
 638              	.LCFI18:
 639              		.cfi_def_cfa_offset 8
 640              		.cfi_offset 3, -8
 641              		.cfi_offset 14, -4
 135:Bsp/dwt/bsp_dwt.c ****     DWT_SysTimeUpdate();
 642              		.loc 1 135 5 view .LVU136
 643 0002 FFF7FEFF 		bl	DWT_SysTimeUpdate
 644              	.LVL27:
 136:Bsp/dwt/bsp_dwt.c **** 
 137:Bsp/dwt/bsp_dwt.c ****     uint64_t DWT_Timelinef32 = SysTime.s * 1000000 + SysTime.ms * 1000 + SysTime.us;
 645              		.loc 1 137 5 view .LVU137
 646              		.loc 1 137 39 is_stmt 0 view .LVU138
 647 0006 074A     		ldr	r2, .L36
 648 0008 1168     		ldr	r1, [r2]
 649              		.loc 1 137 61 view .LVU139
 650 000a 9388     		ldrh	r3, [r2, #4]
 651              		.loc 1 137 65 view .LVU140
 652 000c 4FF47A70 		mov	r0, #1000
 653 0010 00FB03F3 		mul	r3, r0, r3
 654              		.loc 1 137 52 view .LVU141
 655 0014 0448     		ldr	r0, .L36+4
 656 0016 00FB0133 		mla	r3, r0, r1, r3
 657              		.loc 1 137 81 view .LVU142
 658 001a D088     		ldrh	r0, [r2, #6]
 659              	.LVL28:
 138:Bsp/dwt/bsp_dwt.c **** 
 139:Bsp/dwt/bsp_dwt.c ****     return DWT_Timelinef32;
 660              		.loc 1 139 5 is_stmt 1 view .LVU143
 140:Bsp/dwt/bsp_dwt.c **** }
 661              		.loc 1 140 1 is_stmt 0 view .LVU144
 662 001c 1844     		add	r0, r0, r3
 663              	.LVL29:
 664              		.loc 1 140 1 view .LVU145
 665 001e 0021     		movs	r1, #0
 666 0020 08BD     		pop	{r3, pc}
 667              	.L37:
 668 0022 00BF     		.align	2
 669              	.L36:
 670 0024 00000000 		.word	SysTime
 671 0028 40420F00 		.word	1000000
 672              		.cfi_endproc
ARM GAS  C:\Users\KETEN_~1\AppData\Local\Temp\ccL6e6eH.s 			page 15


 673              	.LFE144:
 675              		.section	.text.DWT_Delay,"ax",%progbits
 676              		.align	1
 677              		.global	DWT_Delay
 678              		.syntax unified
 679              		.thumb
 680              		.thumb_func
 682              	DWT_Delay:
 683              	.LVL30:
 684              	.LFB145:
 141:Bsp/dwt/bsp_dwt.c **** 
 142:Bsp/dwt/bsp_dwt.c **** 
 143:Bsp/dwt/bsp_dwt.c **** void DWT_Delay(float Delay)
 144:Bsp/dwt/bsp_dwt.c **** {
 685              		.loc 1 144 1 is_stmt 1 view -0
 686              		.cfi_startproc
 687              		@ args = 0, pretend = 0, frame = 0
 688              		@ frame_needed = 0, uses_anonymous_args = 0
 689              		@ link register save eliminated.
 145:Bsp/dwt/bsp_dwt.c ****     uint32_t tickstart = DWT->CYCCNT;
 690              		.loc 1 145 5 view .LVU147
 691              		.loc 1 145 14 is_stmt 0 view .LVU148
 692 0000 0A4B     		ldr	r3, .L40
 693 0002 5968     		ldr	r1, [r3, #4]
 694              	.LVL31:
 146:Bsp/dwt/bsp_dwt.c ****     float wait = Delay;
 695              		.loc 1 146 5 is_stmt 1 view .LVU149
 147:Bsp/dwt/bsp_dwt.c **** 
 148:Bsp/dwt/bsp_dwt.c ****     while ((DWT->CYCCNT - tickstart) < wait * (float)CPU_FREQ_Hz)
 696              		.loc 1 148 5 view .LVU150
 697              	.L39:
 698              		.loc 1 148 38 discriminator 1 view .LVU151
 699              		.loc 1 148 16 is_stmt 0 discriminator 1 view .LVU152
 700 0004 094B     		ldr	r3, .L40
 701 0006 5B68     		ldr	r3, [r3, #4]
 702              		.loc 1 148 25 discriminator 1 view .LVU153
 703 0008 5B1A     		subs	r3, r3, r1
 704              		.loc 1 148 47 discriminator 1 view .LVU154
 705 000a 094A     		ldr	r2, .L40+4
 706 000c D2ED007A 		vldr.32	s15, [r2]	@ int
 707 0010 F8EE677A 		vcvt.f32.u32	s15, s15
 708              		.loc 1 148 45 discriminator 1 view .LVU155
 709 0014 67EE807A 		vmul.f32	s15, s15, s0
 710              		.loc 1 148 38 discriminator 1 view .LVU156
 711 0018 07EE103A 		vmov	s14, r3	@ int
 712 001c B8EE477A 		vcvt.f32.u32	s14, s14
 713 0020 B4EEE77A 		vcmpe.f32	s14, s15
 714 0024 F1EE10FA 		vmrs	APSR_nzcv, FPSCR
 715 0028 ECD4     		bmi	.L39
 149:Bsp/dwt/bsp_dwt.c ****         ;
 150:Bsp/dwt/bsp_dwt.c **** }
 716              		.loc 1 150 1 view .LVU157
 717 002a 7047     		bx	lr
 718              	.L41:
 719              		.align	2
 720              	.L40:
 721 002c 001000E0 		.word	-536866816
ARM GAS  C:\Users\KETEN_~1\AppData\Local\Temp\ccL6e6eH.s 			page 16


 722 0030 00000000 		.word	CPU_FREQ_Hz
 723              		.cfi_endproc
 724              	.LFE145:
 726              		.section	.bss.CNT_TEMP3.0,"aw",%nobits
 727              		.align	3
 730              	CNT_TEMP3.0:
 731 0000 00000000 		.space	8
 731      00000000 
 732              		.section	.bss.CNT_TEMP2.1,"aw",%nobits
 733              		.align	3
 736              	CNT_TEMP2.1:
 737 0000 00000000 		.space	8
 737      00000000 
 738              		.section	.bss.CNT_TEMP1.2,"aw",%nobits
 739              		.align	3
 742              	CNT_TEMP1.2:
 743 0000 00000000 		.space	8
 743      00000000 
 744              		.section	.bss.bit_locker.3,"aw",%nobits
 747              	bit_locker.3:
 748 0000 00       		.space	1
 749              		.section	.bss.CYCCNT64,"aw",%nobits
 750              		.align	3
 753              	CYCCNT64:
 754 0000 00000000 		.space	8
 754      00000000 
 755              		.section	.bss.CYCCNT_LAST,"aw",%nobits
 756              		.align	2
 759              	CYCCNT_LAST:
 760 0000 00000000 		.space	4
 761              		.section	.bss.CYCCNT_RountCount,"aw",%nobits
 762              		.align	2
 765              	CYCCNT_RountCount:
 766 0000 00000000 		.space	4
 767              		.section	.bss.CPU_FREQ_Hz_us,"aw",%nobits
 768              		.align	2
 771              	CPU_FREQ_Hz_us:
 772 0000 00000000 		.space	4
 773              		.section	.bss.CPU_FREQ_Hz_ms,"aw",%nobits
 774              		.align	2
 777              	CPU_FREQ_Hz_ms:
 778 0000 00000000 		.space	4
 779              		.section	.bss.CPU_FREQ_Hz,"aw",%nobits
 780              		.align	2
 783              	CPU_FREQ_Hz:
 784 0000 00000000 		.space	4
 785              		.section	.bss.SysTime,"aw",%nobits
 786              		.align	2
 789              	SysTime:
 790 0000 00000000 		.space	8
 790      00000000 
 791              		.text
 792              	.Letext0:
 793              		.file 2 "C:/msys64/mingw64/arm-none-eabi/include/machine/_default_types.h"
 794              		.file 3 "C:/msys64/mingw64/arm-none-eabi/include/sys/_stdint.h"
 795              		.file 4 "Drivers/CMSIS/Include/core_cm4.h"
 796              		.file 5 "Bsp/dwt/bsp_dwt.h"
ARM GAS  C:\Users\KETEN_~1\AppData\Local\Temp\ccL6e6eH.s 			page 17


ARM GAS  C:\Users\KETEN_~1\AppData\Local\Temp\ccL6e6eH.s 			page 18

