ARM GAS  C:\Users\KETEN_~1\AppData\Local\Temp\ccrO5pUv.s 			page 1


   1              		.cpu cortex-m4
   2              		.arch armv7e-m
   3              		.fpu fpv4-sp-d16
   4              		.eabi_attribute 27, 1
   5              		.eabi_attribute 28, 1
   6              		.eabi_attribute 20, 1
   7              		.eabi_attribute 21, 1
   8              		.eabi_attribute 23, 3
   9              		.eabi_attribute 24, 1
  10              		.eabi_attribute 25, 1
  11              		.eabi_attribute 26, 1
  12              		.eabi_attribute 30, 1
  13              		.eabi_attribute 34, 1
  14              		.eabi_attribute 18, 4
  15              		.file	"bsp_log.c"
  16              		.text
  17              	.Ltext0:
  18              		.cfi_sections	.debug_frame
  19              		.file 1 "Bsp/log/bsp_log.c"
  20              		.section	.text.BSPLogInit,"ax",%progbits
  21              		.align	1
  22              		.global	BSPLogInit
  23              		.syntax unified
  24              		.thumb
  25              		.thumb_func
  27              	BSPLogInit:
  28              	.LFB3:
   1:Bsp/log/bsp_log.c **** #include "bsp_log.h"
   2:Bsp/log/bsp_log.c **** 
   3:Bsp/log/bsp_log.c **** #include "SEGGER_RTT.h"
   4:Bsp/log/bsp_log.c **** #include "SEGGER_RTT_Conf.h"
   5:Bsp/log/bsp_log.c **** #include <stdio.h>
   6:Bsp/log/bsp_log.c **** 
   7:Bsp/log/bsp_log.c **** 
   8:Bsp/log/bsp_log.c **** void BSPLogInit()
   9:Bsp/log/bsp_log.c **** {
  29              		.loc 1 9 1 view -0
  30              		.cfi_startproc
  31              		@ args = 0, pretend = 0, frame = 0
  32              		@ frame_needed = 0, uses_anonymous_args = 0
  33 0000 08B5     		push	{r3, lr}
  34              	.LCFI0:
  35              		.cfi_def_cfa_offset 8
  36              		.cfi_offset 3, -8
  37              		.cfi_offset 14, -4
  10:Bsp/log/bsp_log.c ****     SEGGER_RTT_Init();
  38              		.loc 1 10 5 view .LVU1
  39 0002 FFF7FEFF 		bl	SEGGER_RTT_Init
  40              	.LVL0:
  11:Bsp/log/bsp_log.c **** }
  41              		.loc 1 11 1 is_stmt 0 view .LVU2
  42 0006 08BD     		pop	{r3, pc}
  43              		.cfi_endproc
  44              	.LFE3:
  46              		.section	.text.PrintLog,"ax",%progbits
  47              		.align	1
  48              		.global	PrintLog
ARM GAS  C:\Users\KETEN_~1\AppData\Local\Temp\ccrO5pUv.s 			page 2


  49              		.syntax unified
  50              		.thumb
  51              		.thumb_func
  53              	PrintLog:
  54              	.LVL1:
  55              	.LFB4:
  12:Bsp/log/bsp_log.c **** 
  13:Bsp/log/bsp_log.c **** int PrintLog(const char *fmt, ...)
  14:Bsp/log/bsp_log.c **** {
  56              		.loc 1 14 1 is_stmt 1 view -0
  57              		.cfi_startproc
  58              		@ args = 4, pretend = 16, frame = 8
  59              		@ frame_needed = 0, uses_anonymous_args = 1
  60              		.loc 1 14 1 is_stmt 0 view .LVU4
  61 0000 0FB4     		push	{r0, r1, r2, r3}
  62              	.LCFI1:
  63              		.cfi_def_cfa_offset 16
  64              		.cfi_offset 0, -16
  65              		.cfi_offset 1, -12
  66              		.cfi_offset 2, -8
  67              		.cfi_offset 3, -4
  68 0002 00B5     		push	{lr}
  69              	.LCFI2:
  70              		.cfi_def_cfa_offset 20
  71              		.cfi_offset 14, -20
  72 0004 83B0     		sub	sp, sp, #12
  73              	.LCFI3:
  74              		.cfi_def_cfa_offset 32
  75 0006 04AB     		add	r3, sp, #16
  76 0008 53F8041B 		ldr	r1, [r3], #4
  15:Bsp/log/bsp_log.c ****     va_list args;
  77              		.loc 1 15 5 is_stmt 1 view .LVU5
  16:Bsp/log/bsp_log.c ****     va_start(args, fmt);
  78              		.loc 1 16 5 view .LVU6
  79 000c 0193     		str	r3, [sp, #4]
  17:Bsp/log/bsp_log.c ****     int n = SEGGER_RTT_vprintf(BUFFER_INDEX, fmt, &args); // ‰∏ÄÊ¨°ÂèØ‰ª•ÂºÄÂêØÂ§ö‰∏™buffer(Â§ö‰∏™Á
  80              		.loc 1 17 5 view .LVU7
  81              		.loc 1 17 13 is_stmt 0 view .LVU8
  82 000e 01AA     		add	r2, sp, #4
  83 0010 0020     		movs	r0, #0
  84 0012 FFF7FEFF 		bl	SEGGER_RTT_vprintf
  85              	.LVL2:
  18:Bsp/log/bsp_log.c ****     va_end(args);
  86              		.loc 1 18 5 is_stmt 1 view .LVU9
  19:Bsp/log/bsp_log.c ****     return n;
  87              		.loc 1 19 5 view .LVU10
  20:Bsp/log/bsp_log.c **** }
  88              		.loc 1 20 1 is_stmt 0 view .LVU11
  89 0016 03B0     		add	sp, sp, #12
  90              	.LCFI4:
  91              		.cfi_def_cfa_offset 20
  92              		@ sp needed
  93 0018 5DF804EB 		ldr	lr, [sp], #4
  94              	.LCFI5:
  95              		.cfi_restore 14
  96              		.cfi_def_cfa_offset 16
  97 001c 04B0     		add	sp, sp, #16
ARM GAS  C:\Users\KETEN_~1\AppData\Local\Temp\ccrO5pUv.s 			page 3


  98              	.LCFI6:
  99              		.cfi_restore 3
 100              		.cfi_restore 2
 101              		.cfi_restore 1
 102              		.cfi_restore 0
 103              		.cfi_def_cfa_offset 0
 104 001e 7047     		bx	lr
 105              		.cfi_endproc
 106              	.LFE4:
 108              		.section	.rodata.Float2Str.str1.4,"aMS",%progbits,1
 109              		.align	2
 110              	.LC0:
 111 0000 2D25642E 		.ascii	"-%d.%d\000"
 111      256400
 112 0007 00       		.align	2
 113              	.LC1:
 114 0008 25642E25 		.ascii	"%d.%d\000"
 114      6400
 115              		.section	.text.Float2Str,"ax",%progbits
 116              		.align	1
 117              		.global	Float2Str
 118              		.syntax unified
 119              		.thumb
 120              		.thumb_func
 122              	Float2Str:
 123              	.LVL3:
 124              	.LFB5:
  21:Bsp/log/bsp_log.c **** 
  22:Bsp/log/bsp_log.c **** void Float2Str(char *str, float va)
  23:Bsp/log/bsp_log.c **** {
 125              		.loc 1 23 1 is_stmt 1 view -0
 126              		.cfi_startproc
 127              		@ args = 0, pretend = 0, frame = 0
 128              		@ frame_needed = 0, uses_anonymous_args = 0
 129              		.loc 1 23 1 is_stmt 0 view .LVU13
 130 0000 08B5     		push	{r3, lr}
 131              	.LCFI7:
 132              		.cfi_def_cfa_offset 8
 133              		.cfi_offset 3, -8
 134              		.cfi_offset 14, -4
  24:Bsp/log/bsp_log.c ****     int flag = va < 0;
 135              		.loc 1 24 5 is_stmt 1 view .LVU14
 136              	.LVL4:
  25:Bsp/log/bsp_log.c ****     int head = (int)va;
 137              		.loc 1 25 5 view .LVU15
 138              		.loc 1 25 9 is_stmt 0 view .LVU16
 139 0002 BDEEC07A 		vcvt.s32.f32	s14, s0
 140              	.LVL5:
  26:Bsp/log/bsp_log.c ****     int point = (int)((va - head) * 1000);
 141              		.loc 1 26 5 is_stmt 1 view .LVU17
 142              		.loc 1 26 27 is_stmt 0 view .LVU18
 143 0006 F8EEC77A 		vcvt.f32.s32	s15, s14
 144 000a 70EE677A 		vsub.f32	s15, s0, s15
 145              		.loc 1 26 35 view .LVU19
 146 000e DFED0E6A 		vldr.32	s13, .L13
 147 0012 67EEA67A 		vmul.f32	s15, s15, s13
 148              		.loc 1 26 9 view .LVU20
ARM GAS  C:\Users\KETEN_~1\AppData\Local\Temp\ccrO5pUv.s 			page 4


 149 0016 FDEEE77A 		vcvt.s32.f32	s15, s15
 150 001a 17EE903A 		vmov	r3, s15	@ int
 151              	.LVL6:
  27:Bsp/log/bsp_log.c ****     head = abs(head);
 152              		.loc 1 27 5 is_stmt 1 view .LVU21
 153              		.loc 1 27 10 is_stmt 0 view .LVU22
 154 001e 17EE102A 		vmov	r2, s14	@ int
 155 0022 002A     		cmp	r2, #0
 156 0024 B8BF     		it	lt
 157 0026 5242     		rsblt	r2, r2, #0
 158              	.LVL7:
  28:Bsp/log/bsp_log.c ****     point = abs(point);
 159              		.loc 1 28 5 is_stmt 1 view .LVU23
 160              		.loc 1 28 11 is_stmt 0 view .LVU24
 161 0028 002B     		cmp	r3, #0
 162 002a B8BF     		it	lt
 163 002c 5B42     		rsblt	r3, r3, #0
 164              	.LVL8:
  29:Bsp/log/bsp_log.c ****     if (flag)
 165              		.loc 1 29 5 is_stmt 1 view .LVU25
 166              		.loc 1 29 8 is_stmt 0 view .LVU26
 167 002e B5EEC00A 		vcmpe.f32	s0, #0
 168 0032 F1EE10FA 		vmrs	APSR_nzcv, FPSCR
 169 0036 03D4     		bmi	.L12
  30:Bsp/log/bsp_log.c ****         sprintf(str, "-%d.%d", head, point);
  31:Bsp/log/bsp_log.c ****     else
  32:Bsp/log/bsp_log.c ****         sprintf(str, "%d.%d", head, point);
 170              		.loc 1 32 9 is_stmt 1 view .LVU27
 171 0038 0449     		ldr	r1, .L13+4
 172 003a FFF7FEFF 		bl	sprintf
 173              	.LVL9:
 174              	.L5:
  33:Bsp/log/bsp_log.c **** }
 175              		.loc 1 33 1 is_stmt 0 view .LVU28
 176 003e 08BD     		pop	{r3, pc}
 177              	.LVL10:
 178              	.L12:
  30:Bsp/log/bsp_log.c ****         sprintf(str, "-%d.%d", head, point);
 179              		.loc 1 30 9 is_stmt 1 view .LVU29
 180 0040 0349     		ldr	r1, .L13+8
 181 0042 FFF7FEFF 		bl	sprintf
 182              	.LVL11:
  30:Bsp/log/bsp_log.c ****         sprintf(str, "-%d.%d", head, point);
 183              		.loc 1 30 9 is_stmt 0 view .LVU30
 184 0046 FAE7     		b	.L5
 185              	.L14:
 186              		.align	2
 187              	.L13:
 188 0048 00007A44 		.word	1148846080
 189 004c 08000000 		.word	.LC1
 190 0050 00000000 		.word	.LC0
 191              		.cfi_endproc
 192              	.LFE5:
 194              		.text
 195              	.Letext0:
 196              		.file 2 "C:/msys64/mingw64/lib/gcc/arm-none-eabi/13.3.0/include/stdarg.h"
 197              		.file 3 "C:/msys64/mingw64/arm-none-eabi/include/stdio.h"
ARM GAS  C:\Users\KETEN_~1\AppData\Local\Temp\ccrO5pUv.s 			page 5


 198              		.file 4 "Middlewares/Third_Party/SystemView/SEGGER/SEGGER_RTT.h"
 199              		.file 5 "<built-in>"
ARM GAS  C:\Users\KETEN_~1\AppData\Local\Temp\ccrO5pUv.s 			page 6

