ARM GAS  C:\Users\KETEN_~1\AppData\Local\Temp\ccIeQTbg.s 			page 1


   1              		.cpu cortex-m4
   2              		.arch armv7e-m
   3              		.fpu fpv4-sp-d16
   4              		.eabi_attribute 27, 1
   5              		.eabi_attribute 28, 1
   6              		.eabi_attribute 20, 1
   7              		.eabi_attribute 21, 1
   8              		.eabi_attribute 23, 3
   9              		.eabi_attribute 24, 1
  10              		.eabi_attribute 25, 1
  11              		.eabi_attribute 26, 1
  12              		.eabi_attribute 30, 1
  13              		.eabi_attribute 34, 1
  14              		.eabi_attribute 18, 4
  15              		.file	"event_groups.c"
  16              		.text
  17              	.Ltext0:
  18              		.cfi_sections	.debug_frame
  19              		.file 1 "Middlewares/Third_Party/FreeRTOS/Source/event_groups.c"
  20              		.section	.text.prvTestWaitCondition,"ax",%progbits
  21              		.align	1
  22              		.syntax unified
  23              		.thumb
  24              		.thumb_func
  26              	prvTestWaitCondition:
  27              	.LVL0:
  28              	.LFB15:
   1:Middlewares/Third_Party/FreeRTOS/Source/event_groups.c **** /*
   2:Middlewares/Third_Party/FreeRTOS/Source/event_groups.c ****  * FreeRTOS Kernel V10.3.1
   3:Middlewares/Third_Party/FreeRTOS/Source/event_groups.c ****  * Copyright (C) 2020 Amazon.com, Inc. or its affiliates.  All Rights Reserved.
   4:Middlewares/Third_Party/FreeRTOS/Source/event_groups.c ****  *
   5:Middlewares/Third_Party/FreeRTOS/Source/event_groups.c ****  * Permission is hereby granted, free of charge, to any person obtaining a copy of
   6:Middlewares/Third_Party/FreeRTOS/Source/event_groups.c ****  * this software and associated documentation files (the "Software"), to deal in
   7:Middlewares/Third_Party/FreeRTOS/Source/event_groups.c ****  * the Software without restriction, including without limitation the rights to
   8:Middlewares/Third_Party/FreeRTOS/Source/event_groups.c ****  * use, copy, modify, merge, publish, distribute, sublicense, and/or sell copies of
   9:Middlewares/Third_Party/FreeRTOS/Source/event_groups.c ****  * the Software, and to permit persons to whom the Software is furnished to do so,
  10:Middlewares/Third_Party/FreeRTOS/Source/event_groups.c ****  * subject to the following conditions:
  11:Middlewares/Third_Party/FreeRTOS/Source/event_groups.c ****  *
  12:Middlewares/Third_Party/FreeRTOS/Source/event_groups.c ****  * The above copyright notice and this permission notice shall be included in all
  13:Middlewares/Third_Party/FreeRTOS/Source/event_groups.c ****  * copies or substantial portions of the Software.
  14:Middlewares/Third_Party/FreeRTOS/Source/event_groups.c ****  *
  15:Middlewares/Third_Party/FreeRTOS/Source/event_groups.c ****  * THE SOFTWARE IS PROVIDED "AS IS", WITHOUT WARRANTY OF ANY KIND, EXPRESS OR
  16:Middlewares/Third_Party/FreeRTOS/Source/event_groups.c ****  * IMPLIED, INCLUDING BUT NOT LIMITED TO THE WARRANTIES OF MERCHANTABILITY, FITNESS
  17:Middlewares/Third_Party/FreeRTOS/Source/event_groups.c ****  * FOR A PARTICULAR PURPOSE AND NONINFRINGEMENT. IN NO EVENT SHALL THE AUTHORS OR
  18:Middlewares/Third_Party/FreeRTOS/Source/event_groups.c ****  * COPYRIGHT HOLDERS BE LIABLE FOR ANY CLAIM, DAMAGES OR OTHER LIABILITY, WHETHER
  19:Middlewares/Third_Party/FreeRTOS/Source/event_groups.c ****  * IN AN ACTION OF CONTRACT, TORT OR OTHERWISE, ARISING FROM, OUT OF OR IN
  20:Middlewares/Third_Party/FreeRTOS/Source/event_groups.c ****  * CONNECTION WITH THE SOFTWARE OR THE USE OR OTHER DEALINGS IN THE SOFTWARE.
  21:Middlewares/Third_Party/FreeRTOS/Source/event_groups.c ****  *
  22:Middlewares/Third_Party/FreeRTOS/Source/event_groups.c ****  * http://www.FreeRTOS.org
  23:Middlewares/Third_Party/FreeRTOS/Source/event_groups.c ****  * http://aws.amazon.com/freertos
  24:Middlewares/Third_Party/FreeRTOS/Source/event_groups.c ****  *
  25:Middlewares/Third_Party/FreeRTOS/Source/event_groups.c ****  * 1 tab == 4 spaces!
  26:Middlewares/Third_Party/FreeRTOS/Source/event_groups.c ****  */
  27:Middlewares/Third_Party/FreeRTOS/Source/event_groups.c **** 
  28:Middlewares/Third_Party/FreeRTOS/Source/event_groups.c **** /* Standard includes. */
  29:Middlewares/Third_Party/FreeRTOS/Source/event_groups.c **** #include <stdlib.h>
  30:Middlewares/Third_Party/FreeRTOS/Source/event_groups.c **** 
ARM GAS  C:\Users\KETEN_~1\AppData\Local\Temp\ccIeQTbg.s 			page 2


  31:Middlewares/Third_Party/FreeRTOS/Source/event_groups.c **** /* Defining MPU_WRAPPERS_INCLUDED_FROM_API_FILE prevents task.h from redefining
  32:Middlewares/Third_Party/FreeRTOS/Source/event_groups.c **** all the API functions to use the MPU wrappers.  That should only be done when
  33:Middlewares/Third_Party/FreeRTOS/Source/event_groups.c **** task.h is included from an application file. */
  34:Middlewares/Third_Party/FreeRTOS/Source/event_groups.c **** #define MPU_WRAPPERS_INCLUDED_FROM_API_FILE
  35:Middlewares/Third_Party/FreeRTOS/Source/event_groups.c **** 
  36:Middlewares/Third_Party/FreeRTOS/Source/event_groups.c **** /* FreeRTOS includes. */
  37:Middlewares/Third_Party/FreeRTOS/Source/event_groups.c **** #include "FreeRTOS.h"
  38:Middlewares/Third_Party/FreeRTOS/Source/event_groups.c **** #include "task.h"
  39:Middlewares/Third_Party/FreeRTOS/Source/event_groups.c **** #include "timers.h"
  40:Middlewares/Third_Party/FreeRTOS/Source/event_groups.c **** #include "event_groups.h"
  41:Middlewares/Third_Party/FreeRTOS/Source/event_groups.c **** 
  42:Middlewares/Third_Party/FreeRTOS/Source/event_groups.c **** /* Lint e961, e750 and e9021 are suppressed as a MISRA exception justified
  43:Middlewares/Third_Party/FreeRTOS/Source/event_groups.c **** because the MPU ports require MPU_WRAPPERS_INCLUDED_FROM_API_FILE to be defined
  44:Middlewares/Third_Party/FreeRTOS/Source/event_groups.c **** for the header files above, but not in this file, in order to generate the
  45:Middlewares/Third_Party/FreeRTOS/Source/event_groups.c **** correct privileged Vs unprivileged linkage and placement. */
  46:Middlewares/Third_Party/FreeRTOS/Source/event_groups.c **** #undef MPU_WRAPPERS_INCLUDED_FROM_API_FILE /*lint !e961 !e750 !e9021 See comment above. */
  47:Middlewares/Third_Party/FreeRTOS/Source/event_groups.c **** 
  48:Middlewares/Third_Party/FreeRTOS/Source/event_groups.c **** /* The following bit fields convey control information in a task's event list
  49:Middlewares/Third_Party/FreeRTOS/Source/event_groups.c **** item value.  It is important they don't clash with the
  50:Middlewares/Third_Party/FreeRTOS/Source/event_groups.c **** taskEVENT_LIST_ITEM_VALUE_IN_USE definition. */
  51:Middlewares/Third_Party/FreeRTOS/Source/event_groups.c **** #if configUSE_16_BIT_TICKS == 1
  52:Middlewares/Third_Party/FreeRTOS/Source/event_groups.c **** 	#define eventCLEAR_EVENTS_ON_EXIT_BIT	0x0100U
  53:Middlewares/Third_Party/FreeRTOS/Source/event_groups.c **** 	#define eventUNBLOCKED_DUE_TO_BIT_SET	0x0200U
  54:Middlewares/Third_Party/FreeRTOS/Source/event_groups.c **** 	#define eventWAIT_FOR_ALL_BITS			0x0400U
  55:Middlewares/Third_Party/FreeRTOS/Source/event_groups.c **** 	#define eventEVENT_BITS_CONTROL_BYTES	0xff00U
  56:Middlewares/Third_Party/FreeRTOS/Source/event_groups.c **** #else
  57:Middlewares/Third_Party/FreeRTOS/Source/event_groups.c **** 	#define eventCLEAR_EVENTS_ON_EXIT_BIT	0x01000000UL
  58:Middlewares/Third_Party/FreeRTOS/Source/event_groups.c **** 	#define eventUNBLOCKED_DUE_TO_BIT_SET	0x02000000UL
  59:Middlewares/Third_Party/FreeRTOS/Source/event_groups.c **** 	#define eventWAIT_FOR_ALL_BITS			0x04000000UL
  60:Middlewares/Third_Party/FreeRTOS/Source/event_groups.c **** 	#define eventEVENT_BITS_CONTROL_BYTES	0xff000000UL
  61:Middlewares/Third_Party/FreeRTOS/Source/event_groups.c **** #endif
  62:Middlewares/Third_Party/FreeRTOS/Source/event_groups.c **** 
  63:Middlewares/Third_Party/FreeRTOS/Source/event_groups.c **** typedef struct EventGroupDef_t
  64:Middlewares/Third_Party/FreeRTOS/Source/event_groups.c **** {
  65:Middlewares/Third_Party/FreeRTOS/Source/event_groups.c **** 	EventBits_t uxEventBits;
  66:Middlewares/Third_Party/FreeRTOS/Source/event_groups.c **** 	List_t xTasksWaitingForBits;		/*< List of tasks waiting for a bit to be set. */
  67:Middlewares/Third_Party/FreeRTOS/Source/event_groups.c **** 
  68:Middlewares/Third_Party/FreeRTOS/Source/event_groups.c **** 	#if( configUSE_TRACE_FACILITY == 1 )
  69:Middlewares/Third_Party/FreeRTOS/Source/event_groups.c **** 		UBaseType_t uxEventGroupNumber;
  70:Middlewares/Third_Party/FreeRTOS/Source/event_groups.c **** 	#endif
  71:Middlewares/Third_Party/FreeRTOS/Source/event_groups.c **** 
  72:Middlewares/Third_Party/FreeRTOS/Source/event_groups.c **** 	#if( ( configSUPPORT_STATIC_ALLOCATION == 1 ) && ( configSUPPORT_DYNAMIC_ALLOCATION == 1 ) )
  73:Middlewares/Third_Party/FreeRTOS/Source/event_groups.c **** 		uint8_t ucStaticallyAllocated; /*< Set to pdTRUE if the event group is statically allocated to en
  74:Middlewares/Third_Party/FreeRTOS/Source/event_groups.c **** 	#endif
  75:Middlewares/Third_Party/FreeRTOS/Source/event_groups.c **** } EventGroup_t;
  76:Middlewares/Third_Party/FreeRTOS/Source/event_groups.c **** 
  77:Middlewares/Third_Party/FreeRTOS/Source/event_groups.c **** /*-----------------------------------------------------------*/
  78:Middlewares/Third_Party/FreeRTOS/Source/event_groups.c **** 
  79:Middlewares/Third_Party/FreeRTOS/Source/event_groups.c **** /*
  80:Middlewares/Third_Party/FreeRTOS/Source/event_groups.c ****  * Test the bits set in uxCurrentEventBits to see if the wait condition is met.
  81:Middlewares/Third_Party/FreeRTOS/Source/event_groups.c ****  * The wait condition is defined by xWaitForAllBits.  If xWaitForAllBits is
  82:Middlewares/Third_Party/FreeRTOS/Source/event_groups.c ****  * pdTRUE then the wait condition is met if all the bits set in uxBitsToWaitFor
  83:Middlewares/Third_Party/FreeRTOS/Source/event_groups.c ****  * are also set in uxCurrentEventBits.  If xWaitForAllBits is pdFALSE then the
  84:Middlewares/Third_Party/FreeRTOS/Source/event_groups.c ****  * wait condition is met if any of the bits set in uxBitsToWait for are also set
  85:Middlewares/Third_Party/FreeRTOS/Source/event_groups.c ****  * in uxCurrentEventBits.
  86:Middlewares/Third_Party/FreeRTOS/Source/event_groups.c ****  */
  87:Middlewares/Third_Party/FreeRTOS/Source/event_groups.c **** static BaseType_t prvTestWaitCondition( const EventBits_t uxCurrentEventBits, const EventBits_t uxB
ARM GAS  C:\Users\KETEN_~1\AppData\Local\Temp\ccIeQTbg.s 			page 3


  88:Middlewares/Third_Party/FreeRTOS/Source/event_groups.c **** 
  89:Middlewares/Third_Party/FreeRTOS/Source/event_groups.c **** /*-----------------------------------------------------------*/
  90:Middlewares/Third_Party/FreeRTOS/Source/event_groups.c **** 
  91:Middlewares/Third_Party/FreeRTOS/Source/event_groups.c **** #if( configSUPPORT_STATIC_ALLOCATION == 1 )
  92:Middlewares/Third_Party/FreeRTOS/Source/event_groups.c **** 
  93:Middlewares/Third_Party/FreeRTOS/Source/event_groups.c **** 	EventGroupHandle_t xEventGroupCreateStatic( StaticEventGroup_t *pxEventGroupBuffer )
  94:Middlewares/Third_Party/FreeRTOS/Source/event_groups.c **** 	{
  95:Middlewares/Third_Party/FreeRTOS/Source/event_groups.c **** 	EventGroup_t *pxEventBits;
  96:Middlewares/Third_Party/FreeRTOS/Source/event_groups.c **** 
  97:Middlewares/Third_Party/FreeRTOS/Source/event_groups.c **** 		/* A StaticEventGroup_t object must be provided. */
  98:Middlewares/Third_Party/FreeRTOS/Source/event_groups.c **** 		configASSERT( pxEventGroupBuffer );
  99:Middlewares/Third_Party/FreeRTOS/Source/event_groups.c **** 
 100:Middlewares/Third_Party/FreeRTOS/Source/event_groups.c **** 		#if( configASSERT_DEFINED == 1 )
 101:Middlewares/Third_Party/FreeRTOS/Source/event_groups.c **** 		{
 102:Middlewares/Third_Party/FreeRTOS/Source/event_groups.c **** 			/* Sanity check that the size of the structure used to declare a
 103:Middlewares/Third_Party/FreeRTOS/Source/event_groups.c **** 			variable of type StaticEventGroup_t equals the size of the real
 104:Middlewares/Third_Party/FreeRTOS/Source/event_groups.c **** 			event group structure. */
 105:Middlewares/Third_Party/FreeRTOS/Source/event_groups.c **** 			volatile size_t xSize = sizeof( StaticEventGroup_t );
 106:Middlewares/Third_Party/FreeRTOS/Source/event_groups.c **** 			configASSERT( xSize == sizeof( EventGroup_t ) );
 107:Middlewares/Third_Party/FreeRTOS/Source/event_groups.c **** 		} /*lint !e529 xSize is referenced if configASSERT() is defined. */
 108:Middlewares/Third_Party/FreeRTOS/Source/event_groups.c **** 		#endif /* configASSERT_DEFINED */
 109:Middlewares/Third_Party/FreeRTOS/Source/event_groups.c **** 
 110:Middlewares/Third_Party/FreeRTOS/Source/event_groups.c **** 		/* The user has provided a statically allocated event group - use it. */
 111:Middlewares/Third_Party/FreeRTOS/Source/event_groups.c **** 		pxEventBits = ( EventGroup_t * ) pxEventGroupBuffer; /*lint !e740 !e9087 EventGroup_t and StaticE
 112:Middlewares/Third_Party/FreeRTOS/Source/event_groups.c **** 
 113:Middlewares/Third_Party/FreeRTOS/Source/event_groups.c **** 		if( pxEventBits != NULL )
 114:Middlewares/Third_Party/FreeRTOS/Source/event_groups.c **** 		{
 115:Middlewares/Third_Party/FreeRTOS/Source/event_groups.c **** 			pxEventBits->uxEventBits = 0;
 116:Middlewares/Third_Party/FreeRTOS/Source/event_groups.c **** 			vListInitialise( &( pxEventBits->xTasksWaitingForBits ) );
 117:Middlewares/Third_Party/FreeRTOS/Source/event_groups.c **** 
 118:Middlewares/Third_Party/FreeRTOS/Source/event_groups.c **** 			#if( configSUPPORT_DYNAMIC_ALLOCATION == 1 )
 119:Middlewares/Third_Party/FreeRTOS/Source/event_groups.c **** 			{
 120:Middlewares/Third_Party/FreeRTOS/Source/event_groups.c **** 				/* Both static and dynamic allocation can be used, so note that
 121:Middlewares/Third_Party/FreeRTOS/Source/event_groups.c **** 				this event group was created statically in case the event group
 122:Middlewares/Third_Party/FreeRTOS/Source/event_groups.c **** 				is later deleted. */
 123:Middlewares/Third_Party/FreeRTOS/Source/event_groups.c **** 				pxEventBits->ucStaticallyAllocated = pdTRUE;
 124:Middlewares/Third_Party/FreeRTOS/Source/event_groups.c **** 			}
 125:Middlewares/Third_Party/FreeRTOS/Source/event_groups.c **** 			#endif /* configSUPPORT_DYNAMIC_ALLOCATION */
 126:Middlewares/Third_Party/FreeRTOS/Source/event_groups.c **** 
 127:Middlewares/Third_Party/FreeRTOS/Source/event_groups.c **** 			traceEVENT_GROUP_CREATE( pxEventBits );
 128:Middlewares/Third_Party/FreeRTOS/Source/event_groups.c **** 		}
 129:Middlewares/Third_Party/FreeRTOS/Source/event_groups.c **** 		else
 130:Middlewares/Third_Party/FreeRTOS/Source/event_groups.c **** 		{
 131:Middlewares/Third_Party/FreeRTOS/Source/event_groups.c **** 			/* xEventGroupCreateStatic should only ever be called with
 132:Middlewares/Third_Party/FreeRTOS/Source/event_groups.c **** 			pxEventGroupBuffer pointing to a pre-allocated (compile time
 133:Middlewares/Third_Party/FreeRTOS/Source/event_groups.c **** 			allocated) StaticEventGroup_t variable. */
 134:Middlewares/Third_Party/FreeRTOS/Source/event_groups.c **** 			traceEVENT_GROUP_CREATE_FAILED();
 135:Middlewares/Third_Party/FreeRTOS/Source/event_groups.c **** 		}
 136:Middlewares/Third_Party/FreeRTOS/Source/event_groups.c **** 
 137:Middlewares/Third_Party/FreeRTOS/Source/event_groups.c **** 		return pxEventBits;
 138:Middlewares/Third_Party/FreeRTOS/Source/event_groups.c **** 	}
 139:Middlewares/Third_Party/FreeRTOS/Source/event_groups.c **** 
 140:Middlewares/Third_Party/FreeRTOS/Source/event_groups.c **** #endif /* configSUPPORT_STATIC_ALLOCATION */
 141:Middlewares/Third_Party/FreeRTOS/Source/event_groups.c **** /*-----------------------------------------------------------*/
 142:Middlewares/Third_Party/FreeRTOS/Source/event_groups.c **** 
 143:Middlewares/Third_Party/FreeRTOS/Source/event_groups.c **** #if( configSUPPORT_DYNAMIC_ALLOCATION == 1 )
 144:Middlewares/Third_Party/FreeRTOS/Source/event_groups.c **** 
ARM GAS  C:\Users\KETEN_~1\AppData\Local\Temp\ccIeQTbg.s 			page 4


 145:Middlewares/Third_Party/FreeRTOS/Source/event_groups.c **** 	EventGroupHandle_t xEventGroupCreate( void )
 146:Middlewares/Third_Party/FreeRTOS/Source/event_groups.c **** 	{
 147:Middlewares/Third_Party/FreeRTOS/Source/event_groups.c **** 	EventGroup_t *pxEventBits;
 148:Middlewares/Third_Party/FreeRTOS/Source/event_groups.c **** 
 149:Middlewares/Third_Party/FreeRTOS/Source/event_groups.c **** 		/* Allocate the event group.  Justification for MISRA deviation as
 150:Middlewares/Third_Party/FreeRTOS/Source/event_groups.c **** 		follows:  pvPortMalloc() always ensures returned memory blocks are
 151:Middlewares/Third_Party/FreeRTOS/Source/event_groups.c **** 		aligned per the requirements of the MCU stack.  In this case
 152:Middlewares/Third_Party/FreeRTOS/Source/event_groups.c **** 		pvPortMalloc() must return a pointer that is guaranteed to meet the
 153:Middlewares/Third_Party/FreeRTOS/Source/event_groups.c **** 		alignment requirements of the EventGroup_t structure - which (if you
 154:Middlewares/Third_Party/FreeRTOS/Source/event_groups.c **** 		follow it through) is the alignment requirements of the TickType_t type
 155:Middlewares/Third_Party/FreeRTOS/Source/event_groups.c **** 		(EventBits_t being of TickType_t itself).  Therefore, whenever the
 156:Middlewares/Third_Party/FreeRTOS/Source/event_groups.c **** 		stack alignment requirements are greater than or equal to the
 157:Middlewares/Third_Party/FreeRTOS/Source/event_groups.c **** 		TickType_t alignment requirements the cast is safe.  In other cases,
 158:Middlewares/Third_Party/FreeRTOS/Source/event_groups.c **** 		where the natural word size of the architecture is less than
 159:Middlewares/Third_Party/FreeRTOS/Source/event_groups.c **** 		sizeof( TickType_t ), the TickType_t variables will be accessed in two
 160:Middlewares/Third_Party/FreeRTOS/Source/event_groups.c **** 		or more reads operations, and the alignment requirements is only that
 161:Middlewares/Third_Party/FreeRTOS/Source/event_groups.c **** 		of each individual read. */
 162:Middlewares/Third_Party/FreeRTOS/Source/event_groups.c **** 		pxEventBits = ( EventGroup_t * ) pvPortMalloc( sizeof( EventGroup_t ) ); /*lint !e9087 !e9079 see
 163:Middlewares/Third_Party/FreeRTOS/Source/event_groups.c **** 
 164:Middlewares/Third_Party/FreeRTOS/Source/event_groups.c **** 		if( pxEventBits != NULL )
 165:Middlewares/Third_Party/FreeRTOS/Source/event_groups.c **** 		{
 166:Middlewares/Third_Party/FreeRTOS/Source/event_groups.c **** 			pxEventBits->uxEventBits = 0;
 167:Middlewares/Third_Party/FreeRTOS/Source/event_groups.c **** 			vListInitialise( &( pxEventBits->xTasksWaitingForBits ) );
 168:Middlewares/Third_Party/FreeRTOS/Source/event_groups.c **** 
 169:Middlewares/Third_Party/FreeRTOS/Source/event_groups.c **** 			#if( configSUPPORT_STATIC_ALLOCATION == 1 )
 170:Middlewares/Third_Party/FreeRTOS/Source/event_groups.c **** 			{
 171:Middlewares/Third_Party/FreeRTOS/Source/event_groups.c **** 				/* Both static and dynamic allocation can be used, so note this
 172:Middlewares/Third_Party/FreeRTOS/Source/event_groups.c **** 				event group was allocated statically in case the event group is
 173:Middlewares/Third_Party/FreeRTOS/Source/event_groups.c **** 				later deleted. */
 174:Middlewares/Third_Party/FreeRTOS/Source/event_groups.c **** 				pxEventBits->ucStaticallyAllocated = pdFALSE;
 175:Middlewares/Third_Party/FreeRTOS/Source/event_groups.c **** 			}
 176:Middlewares/Third_Party/FreeRTOS/Source/event_groups.c **** 			#endif /* configSUPPORT_STATIC_ALLOCATION */
 177:Middlewares/Third_Party/FreeRTOS/Source/event_groups.c **** 
 178:Middlewares/Third_Party/FreeRTOS/Source/event_groups.c **** 			traceEVENT_GROUP_CREATE( pxEventBits );
 179:Middlewares/Third_Party/FreeRTOS/Source/event_groups.c **** 		}
 180:Middlewares/Third_Party/FreeRTOS/Source/event_groups.c **** 		else
 181:Middlewares/Third_Party/FreeRTOS/Source/event_groups.c **** 		{
 182:Middlewares/Third_Party/FreeRTOS/Source/event_groups.c **** 			traceEVENT_GROUP_CREATE_FAILED(); /*lint !e9063 Else branch only exists to allow tracing and doe
 183:Middlewares/Third_Party/FreeRTOS/Source/event_groups.c **** 		}
 184:Middlewares/Third_Party/FreeRTOS/Source/event_groups.c **** 
 185:Middlewares/Third_Party/FreeRTOS/Source/event_groups.c **** 		return pxEventBits;
 186:Middlewares/Third_Party/FreeRTOS/Source/event_groups.c **** 	}
 187:Middlewares/Third_Party/FreeRTOS/Source/event_groups.c **** 
 188:Middlewares/Third_Party/FreeRTOS/Source/event_groups.c **** #endif /* configSUPPORT_DYNAMIC_ALLOCATION */
 189:Middlewares/Third_Party/FreeRTOS/Source/event_groups.c **** /*-----------------------------------------------------------*/
 190:Middlewares/Third_Party/FreeRTOS/Source/event_groups.c **** 
 191:Middlewares/Third_Party/FreeRTOS/Source/event_groups.c **** EventBits_t xEventGroupSync( EventGroupHandle_t xEventGroup, const EventBits_t uxBitsToSet, const E
 192:Middlewares/Third_Party/FreeRTOS/Source/event_groups.c **** {
 193:Middlewares/Third_Party/FreeRTOS/Source/event_groups.c **** EventBits_t uxOriginalBitValue, uxReturn;
 194:Middlewares/Third_Party/FreeRTOS/Source/event_groups.c **** EventGroup_t *pxEventBits = xEventGroup;
 195:Middlewares/Third_Party/FreeRTOS/Source/event_groups.c **** BaseType_t xAlreadyYielded;
 196:Middlewares/Third_Party/FreeRTOS/Source/event_groups.c **** BaseType_t xTimeoutOccurred = pdFALSE;
 197:Middlewares/Third_Party/FreeRTOS/Source/event_groups.c **** 
 198:Middlewares/Third_Party/FreeRTOS/Source/event_groups.c **** 	configASSERT( ( uxBitsToWaitFor & eventEVENT_BITS_CONTROL_BYTES ) == 0 );
 199:Middlewares/Third_Party/FreeRTOS/Source/event_groups.c **** 	configASSERT( uxBitsToWaitFor != 0 );
 200:Middlewares/Third_Party/FreeRTOS/Source/event_groups.c **** 	#if ( ( INCLUDE_xTaskGetSchedulerState == 1 ) || ( configUSE_TIMERS == 1 ) )
 201:Middlewares/Third_Party/FreeRTOS/Source/event_groups.c **** 	{
ARM GAS  C:\Users\KETEN_~1\AppData\Local\Temp\ccIeQTbg.s 			page 5


 202:Middlewares/Third_Party/FreeRTOS/Source/event_groups.c **** 		configASSERT( !( ( xTaskGetSchedulerState() == taskSCHEDULER_SUSPENDED ) && ( xTicksToWait != 0 )
 203:Middlewares/Third_Party/FreeRTOS/Source/event_groups.c **** 	}
 204:Middlewares/Third_Party/FreeRTOS/Source/event_groups.c **** 	#endif
 205:Middlewares/Third_Party/FreeRTOS/Source/event_groups.c **** 
 206:Middlewares/Third_Party/FreeRTOS/Source/event_groups.c **** 	vTaskSuspendAll();
 207:Middlewares/Third_Party/FreeRTOS/Source/event_groups.c **** 	{
 208:Middlewares/Third_Party/FreeRTOS/Source/event_groups.c **** 		uxOriginalBitValue = pxEventBits->uxEventBits;
 209:Middlewares/Third_Party/FreeRTOS/Source/event_groups.c **** 
 210:Middlewares/Third_Party/FreeRTOS/Source/event_groups.c **** 		( void ) xEventGroupSetBits( xEventGroup, uxBitsToSet );
 211:Middlewares/Third_Party/FreeRTOS/Source/event_groups.c **** 
 212:Middlewares/Third_Party/FreeRTOS/Source/event_groups.c **** 		if( ( ( uxOriginalBitValue | uxBitsToSet ) & uxBitsToWaitFor ) == uxBitsToWaitFor )
 213:Middlewares/Third_Party/FreeRTOS/Source/event_groups.c **** 		{
 214:Middlewares/Third_Party/FreeRTOS/Source/event_groups.c **** 			/* All the rendezvous bits are now set - no need to block. */
 215:Middlewares/Third_Party/FreeRTOS/Source/event_groups.c **** 			uxReturn = ( uxOriginalBitValue | uxBitsToSet );
 216:Middlewares/Third_Party/FreeRTOS/Source/event_groups.c **** 
 217:Middlewares/Third_Party/FreeRTOS/Source/event_groups.c **** 			/* Rendezvous always clear the bits.  They will have been cleared
 218:Middlewares/Third_Party/FreeRTOS/Source/event_groups.c **** 			already unless this is the only task in the rendezvous. */
 219:Middlewares/Third_Party/FreeRTOS/Source/event_groups.c **** 			pxEventBits->uxEventBits &= ~uxBitsToWaitFor;
 220:Middlewares/Third_Party/FreeRTOS/Source/event_groups.c **** 
 221:Middlewares/Third_Party/FreeRTOS/Source/event_groups.c **** 			xTicksToWait = 0;
 222:Middlewares/Third_Party/FreeRTOS/Source/event_groups.c **** 		}
 223:Middlewares/Third_Party/FreeRTOS/Source/event_groups.c **** 		else
 224:Middlewares/Third_Party/FreeRTOS/Source/event_groups.c **** 		{
 225:Middlewares/Third_Party/FreeRTOS/Source/event_groups.c **** 			if( xTicksToWait != ( TickType_t ) 0 )
 226:Middlewares/Third_Party/FreeRTOS/Source/event_groups.c **** 			{
 227:Middlewares/Third_Party/FreeRTOS/Source/event_groups.c **** 				traceEVENT_GROUP_SYNC_BLOCK( xEventGroup, uxBitsToSet, uxBitsToWaitFor );
 228:Middlewares/Third_Party/FreeRTOS/Source/event_groups.c **** 
 229:Middlewares/Third_Party/FreeRTOS/Source/event_groups.c **** 				/* Store the bits that the calling task is waiting for in the
 230:Middlewares/Third_Party/FreeRTOS/Source/event_groups.c **** 				task's event list item so the kernel knows when a match is
 231:Middlewares/Third_Party/FreeRTOS/Source/event_groups.c **** 				found.  Then enter the blocked state. */
 232:Middlewares/Third_Party/FreeRTOS/Source/event_groups.c **** 				vTaskPlaceOnUnorderedEventList( &( pxEventBits->xTasksWaitingForBits ), ( uxBitsToWaitFor | eve
 233:Middlewares/Third_Party/FreeRTOS/Source/event_groups.c **** 
 234:Middlewares/Third_Party/FreeRTOS/Source/event_groups.c **** 				/* This assignment is obsolete as uxReturn will get set after
 235:Middlewares/Third_Party/FreeRTOS/Source/event_groups.c **** 				the task unblocks, but some compilers mistakenly generate a
 236:Middlewares/Third_Party/FreeRTOS/Source/event_groups.c **** 				warning about uxReturn being returned without being set if the
 237:Middlewares/Third_Party/FreeRTOS/Source/event_groups.c **** 				assignment is omitted. */
 238:Middlewares/Third_Party/FreeRTOS/Source/event_groups.c **** 				uxReturn = 0;
 239:Middlewares/Third_Party/FreeRTOS/Source/event_groups.c **** 			}
 240:Middlewares/Third_Party/FreeRTOS/Source/event_groups.c **** 			else
 241:Middlewares/Third_Party/FreeRTOS/Source/event_groups.c **** 			{
 242:Middlewares/Third_Party/FreeRTOS/Source/event_groups.c **** 				/* The rendezvous bits were not set, but no block time was
 243:Middlewares/Third_Party/FreeRTOS/Source/event_groups.c **** 				specified - just return the current event bit value. */
 244:Middlewares/Third_Party/FreeRTOS/Source/event_groups.c **** 				uxReturn = pxEventBits->uxEventBits;
 245:Middlewares/Third_Party/FreeRTOS/Source/event_groups.c **** 				xTimeoutOccurred = pdTRUE;
 246:Middlewares/Third_Party/FreeRTOS/Source/event_groups.c **** 			}
 247:Middlewares/Third_Party/FreeRTOS/Source/event_groups.c **** 		}
 248:Middlewares/Third_Party/FreeRTOS/Source/event_groups.c **** 	}
 249:Middlewares/Third_Party/FreeRTOS/Source/event_groups.c **** 	xAlreadyYielded = xTaskResumeAll();
 250:Middlewares/Third_Party/FreeRTOS/Source/event_groups.c **** 
 251:Middlewares/Third_Party/FreeRTOS/Source/event_groups.c **** 	if( xTicksToWait != ( TickType_t ) 0 )
 252:Middlewares/Third_Party/FreeRTOS/Source/event_groups.c **** 	{
 253:Middlewares/Third_Party/FreeRTOS/Source/event_groups.c **** 		if( xAlreadyYielded == pdFALSE )
 254:Middlewares/Third_Party/FreeRTOS/Source/event_groups.c **** 		{
 255:Middlewares/Third_Party/FreeRTOS/Source/event_groups.c **** 			portYIELD_WITHIN_API();
 256:Middlewares/Third_Party/FreeRTOS/Source/event_groups.c **** 		}
 257:Middlewares/Third_Party/FreeRTOS/Source/event_groups.c **** 		else
 258:Middlewares/Third_Party/FreeRTOS/Source/event_groups.c **** 		{
ARM GAS  C:\Users\KETEN_~1\AppData\Local\Temp\ccIeQTbg.s 			page 6


 259:Middlewares/Third_Party/FreeRTOS/Source/event_groups.c **** 			mtCOVERAGE_TEST_MARKER();
 260:Middlewares/Third_Party/FreeRTOS/Source/event_groups.c **** 		}
 261:Middlewares/Third_Party/FreeRTOS/Source/event_groups.c **** 
 262:Middlewares/Third_Party/FreeRTOS/Source/event_groups.c **** 		/* The task blocked to wait for its required bits to be set - at this
 263:Middlewares/Third_Party/FreeRTOS/Source/event_groups.c **** 		point either the required bits were set or the block time expired.  If
 264:Middlewares/Third_Party/FreeRTOS/Source/event_groups.c **** 		the required bits were set they will have been stored in the task's
 265:Middlewares/Third_Party/FreeRTOS/Source/event_groups.c **** 		event list item, and they should now be retrieved then cleared. */
 266:Middlewares/Third_Party/FreeRTOS/Source/event_groups.c **** 		uxReturn = uxTaskResetEventItemValue();
 267:Middlewares/Third_Party/FreeRTOS/Source/event_groups.c **** 
 268:Middlewares/Third_Party/FreeRTOS/Source/event_groups.c **** 		if( ( uxReturn & eventUNBLOCKED_DUE_TO_BIT_SET ) == ( EventBits_t ) 0 )
 269:Middlewares/Third_Party/FreeRTOS/Source/event_groups.c **** 		{
 270:Middlewares/Third_Party/FreeRTOS/Source/event_groups.c **** 			/* The task timed out, just return the current event bit value. */
 271:Middlewares/Third_Party/FreeRTOS/Source/event_groups.c **** 			taskENTER_CRITICAL();
 272:Middlewares/Third_Party/FreeRTOS/Source/event_groups.c **** 			{
 273:Middlewares/Third_Party/FreeRTOS/Source/event_groups.c **** 				uxReturn = pxEventBits->uxEventBits;
 274:Middlewares/Third_Party/FreeRTOS/Source/event_groups.c **** 
 275:Middlewares/Third_Party/FreeRTOS/Source/event_groups.c **** 				/* Although the task got here because it timed out before the
 276:Middlewares/Third_Party/FreeRTOS/Source/event_groups.c **** 				bits it was waiting for were set, it is possible that since it
 277:Middlewares/Third_Party/FreeRTOS/Source/event_groups.c **** 				unblocked another task has set the bits.  If this is the case
 278:Middlewares/Third_Party/FreeRTOS/Source/event_groups.c **** 				then it needs to clear the bits before exiting. */
 279:Middlewares/Third_Party/FreeRTOS/Source/event_groups.c **** 				if( ( uxReturn & uxBitsToWaitFor ) == uxBitsToWaitFor )
 280:Middlewares/Third_Party/FreeRTOS/Source/event_groups.c **** 				{
 281:Middlewares/Third_Party/FreeRTOS/Source/event_groups.c **** 					pxEventBits->uxEventBits &= ~uxBitsToWaitFor;
 282:Middlewares/Third_Party/FreeRTOS/Source/event_groups.c **** 				}
 283:Middlewares/Third_Party/FreeRTOS/Source/event_groups.c **** 				else
 284:Middlewares/Third_Party/FreeRTOS/Source/event_groups.c **** 				{
 285:Middlewares/Third_Party/FreeRTOS/Source/event_groups.c **** 					mtCOVERAGE_TEST_MARKER();
 286:Middlewares/Third_Party/FreeRTOS/Source/event_groups.c **** 				}
 287:Middlewares/Third_Party/FreeRTOS/Source/event_groups.c **** 			}
 288:Middlewares/Third_Party/FreeRTOS/Source/event_groups.c **** 			taskEXIT_CRITICAL();
 289:Middlewares/Third_Party/FreeRTOS/Source/event_groups.c **** 
 290:Middlewares/Third_Party/FreeRTOS/Source/event_groups.c **** 			xTimeoutOccurred = pdTRUE;
 291:Middlewares/Third_Party/FreeRTOS/Source/event_groups.c **** 		}
 292:Middlewares/Third_Party/FreeRTOS/Source/event_groups.c **** 		else
 293:Middlewares/Third_Party/FreeRTOS/Source/event_groups.c **** 		{
 294:Middlewares/Third_Party/FreeRTOS/Source/event_groups.c **** 			/* The task unblocked because the bits were set. */
 295:Middlewares/Third_Party/FreeRTOS/Source/event_groups.c **** 		}
 296:Middlewares/Third_Party/FreeRTOS/Source/event_groups.c **** 
 297:Middlewares/Third_Party/FreeRTOS/Source/event_groups.c **** 		/* Control bits might be set as the task had blocked should not be
 298:Middlewares/Third_Party/FreeRTOS/Source/event_groups.c **** 		returned. */
 299:Middlewares/Third_Party/FreeRTOS/Source/event_groups.c **** 		uxReturn &= ~eventEVENT_BITS_CONTROL_BYTES;
 300:Middlewares/Third_Party/FreeRTOS/Source/event_groups.c **** 	}
 301:Middlewares/Third_Party/FreeRTOS/Source/event_groups.c **** 
 302:Middlewares/Third_Party/FreeRTOS/Source/event_groups.c **** 	traceEVENT_GROUP_SYNC_END( xEventGroup, uxBitsToSet, uxBitsToWaitFor, xTimeoutOccurred );
 303:Middlewares/Third_Party/FreeRTOS/Source/event_groups.c **** 
 304:Middlewares/Third_Party/FreeRTOS/Source/event_groups.c **** 	/* Prevent compiler warnings when trace macros are not used. */
 305:Middlewares/Third_Party/FreeRTOS/Source/event_groups.c **** 	( void ) xTimeoutOccurred;
 306:Middlewares/Third_Party/FreeRTOS/Source/event_groups.c **** 
 307:Middlewares/Third_Party/FreeRTOS/Source/event_groups.c **** 	return uxReturn;
 308:Middlewares/Third_Party/FreeRTOS/Source/event_groups.c **** }
 309:Middlewares/Third_Party/FreeRTOS/Source/event_groups.c **** /*-----------------------------------------------------------*/
 310:Middlewares/Third_Party/FreeRTOS/Source/event_groups.c **** 
 311:Middlewares/Third_Party/FreeRTOS/Source/event_groups.c **** EventBits_t xEventGroupWaitBits( EventGroupHandle_t xEventGroup, const EventBits_t uxBitsToWaitFor,
 312:Middlewares/Third_Party/FreeRTOS/Source/event_groups.c **** {
 313:Middlewares/Third_Party/FreeRTOS/Source/event_groups.c **** EventGroup_t *pxEventBits = xEventGroup;
 314:Middlewares/Third_Party/FreeRTOS/Source/event_groups.c **** EventBits_t uxReturn, uxControlBits = 0;
 315:Middlewares/Third_Party/FreeRTOS/Source/event_groups.c **** BaseType_t xWaitConditionMet, xAlreadyYielded;
ARM GAS  C:\Users\KETEN_~1\AppData\Local\Temp\ccIeQTbg.s 			page 7


 316:Middlewares/Third_Party/FreeRTOS/Source/event_groups.c **** BaseType_t xTimeoutOccurred = pdFALSE;
 317:Middlewares/Third_Party/FreeRTOS/Source/event_groups.c **** 
 318:Middlewares/Third_Party/FreeRTOS/Source/event_groups.c **** 	/* Check the user is not attempting to wait on the bits used by the kernel
 319:Middlewares/Third_Party/FreeRTOS/Source/event_groups.c **** 	itself, and that at least one bit is being requested. */
 320:Middlewares/Third_Party/FreeRTOS/Source/event_groups.c **** 	configASSERT( xEventGroup );
 321:Middlewares/Third_Party/FreeRTOS/Source/event_groups.c **** 	configASSERT( ( uxBitsToWaitFor & eventEVENT_BITS_CONTROL_BYTES ) == 0 );
 322:Middlewares/Third_Party/FreeRTOS/Source/event_groups.c **** 	configASSERT( uxBitsToWaitFor != 0 );
 323:Middlewares/Third_Party/FreeRTOS/Source/event_groups.c **** 	#if ( ( INCLUDE_xTaskGetSchedulerState == 1 ) || ( configUSE_TIMERS == 1 ) )
 324:Middlewares/Third_Party/FreeRTOS/Source/event_groups.c **** 	{
 325:Middlewares/Third_Party/FreeRTOS/Source/event_groups.c **** 		configASSERT( !( ( xTaskGetSchedulerState() == taskSCHEDULER_SUSPENDED ) && ( xTicksToWait != 0 )
 326:Middlewares/Third_Party/FreeRTOS/Source/event_groups.c **** 	}
 327:Middlewares/Third_Party/FreeRTOS/Source/event_groups.c **** 	#endif
 328:Middlewares/Third_Party/FreeRTOS/Source/event_groups.c **** 
 329:Middlewares/Third_Party/FreeRTOS/Source/event_groups.c **** 	vTaskSuspendAll();
 330:Middlewares/Third_Party/FreeRTOS/Source/event_groups.c **** 	{
 331:Middlewares/Third_Party/FreeRTOS/Source/event_groups.c **** 		const EventBits_t uxCurrentEventBits = pxEventBits->uxEventBits;
 332:Middlewares/Third_Party/FreeRTOS/Source/event_groups.c **** 
 333:Middlewares/Third_Party/FreeRTOS/Source/event_groups.c **** 		/* Check to see if the wait condition is already met or not. */
 334:Middlewares/Third_Party/FreeRTOS/Source/event_groups.c **** 		xWaitConditionMet = prvTestWaitCondition( uxCurrentEventBits, uxBitsToWaitFor, xWaitForAllBits );
 335:Middlewares/Third_Party/FreeRTOS/Source/event_groups.c **** 
 336:Middlewares/Third_Party/FreeRTOS/Source/event_groups.c **** 		if( xWaitConditionMet != pdFALSE )
 337:Middlewares/Third_Party/FreeRTOS/Source/event_groups.c **** 		{
 338:Middlewares/Third_Party/FreeRTOS/Source/event_groups.c **** 			/* The wait condition has already been met so there is no need to
 339:Middlewares/Third_Party/FreeRTOS/Source/event_groups.c **** 			block. */
 340:Middlewares/Third_Party/FreeRTOS/Source/event_groups.c **** 			uxReturn = uxCurrentEventBits;
 341:Middlewares/Third_Party/FreeRTOS/Source/event_groups.c **** 			xTicksToWait = ( TickType_t ) 0;
 342:Middlewares/Third_Party/FreeRTOS/Source/event_groups.c **** 
 343:Middlewares/Third_Party/FreeRTOS/Source/event_groups.c **** 			/* Clear the wait bits if requested to do so. */
 344:Middlewares/Third_Party/FreeRTOS/Source/event_groups.c **** 			if( xClearOnExit != pdFALSE )
 345:Middlewares/Third_Party/FreeRTOS/Source/event_groups.c **** 			{
 346:Middlewares/Third_Party/FreeRTOS/Source/event_groups.c **** 				pxEventBits->uxEventBits &= ~uxBitsToWaitFor;
 347:Middlewares/Third_Party/FreeRTOS/Source/event_groups.c **** 			}
 348:Middlewares/Third_Party/FreeRTOS/Source/event_groups.c **** 			else
 349:Middlewares/Third_Party/FreeRTOS/Source/event_groups.c **** 			{
 350:Middlewares/Third_Party/FreeRTOS/Source/event_groups.c **** 				mtCOVERAGE_TEST_MARKER();
 351:Middlewares/Third_Party/FreeRTOS/Source/event_groups.c **** 			}
 352:Middlewares/Third_Party/FreeRTOS/Source/event_groups.c **** 		}
 353:Middlewares/Third_Party/FreeRTOS/Source/event_groups.c **** 		else if( xTicksToWait == ( TickType_t ) 0 )
 354:Middlewares/Third_Party/FreeRTOS/Source/event_groups.c **** 		{
 355:Middlewares/Third_Party/FreeRTOS/Source/event_groups.c **** 			/* The wait condition has not been met, but no block time was
 356:Middlewares/Third_Party/FreeRTOS/Source/event_groups.c **** 			specified, so just return the current value. */
 357:Middlewares/Third_Party/FreeRTOS/Source/event_groups.c **** 			uxReturn = uxCurrentEventBits;
 358:Middlewares/Third_Party/FreeRTOS/Source/event_groups.c **** 			xTimeoutOccurred = pdTRUE;
 359:Middlewares/Third_Party/FreeRTOS/Source/event_groups.c **** 		}
 360:Middlewares/Third_Party/FreeRTOS/Source/event_groups.c **** 		else
 361:Middlewares/Third_Party/FreeRTOS/Source/event_groups.c **** 		{
 362:Middlewares/Third_Party/FreeRTOS/Source/event_groups.c **** 			/* The task is going to block to wait for its required bits to be
 363:Middlewares/Third_Party/FreeRTOS/Source/event_groups.c **** 			set.  uxControlBits are used to remember the specified behaviour of
 364:Middlewares/Third_Party/FreeRTOS/Source/event_groups.c **** 			this call to xEventGroupWaitBits() - for use when the event bits
 365:Middlewares/Third_Party/FreeRTOS/Source/event_groups.c **** 			unblock the task. */
 366:Middlewares/Third_Party/FreeRTOS/Source/event_groups.c **** 			if( xClearOnExit != pdFALSE )
 367:Middlewares/Third_Party/FreeRTOS/Source/event_groups.c **** 			{
 368:Middlewares/Third_Party/FreeRTOS/Source/event_groups.c **** 				uxControlBits |= eventCLEAR_EVENTS_ON_EXIT_BIT;
 369:Middlewares/Third_Party/FreeRTOS/Source/event_groups.c **** 			}
 370:Middlewares/Third_Party/FreeRTOS/Source/event_groups.c **** 			else
 371:Middlewares/Third_Party/FreeRTOS/Source/event_groups.c **** 			{
 372:Middlewares/Third_Party/FreeRTOS/Source/event_groups.c **** 				mtCOVERAGE_TEST_MARKER();
ARM GAS  C:\Users\KETEN_~1\AppData\Local\Temp\ccIeQTbg.s 			page 8


 373:Middlewares/Third_Party/FreeRTOS/Source/event_groups.c **** 			}
 374:Middlewares/Third_Party/FreeRTOS/Source/event_groups.c **** 
 375:Middlewares/Third_Party/FreeRTOS/Source/event_groups.c **** 			if( xWaitForAllBits != pdFALSE )
 376:Middlewares/Third_Party/FreeRTOS/Source/event_groups.c **** 			{
 377:Middlewares/Third_Party/FreeRTOS/Source/event_groups.c **** 				uxControlBits |= eventWAIT_FOR_ALL_BITS;
 378:Middlewares/Third_Party/FreeRTOS/Source/event_groups.c **** 			}
 379:Middlewares/Third_Party/FreeRTOS/Source/event_groups.c **** 			else
 380:Middlewares/Third_Party/FreeRTOS/Source/event_groups.c **** 			{
 381:Middlewares/Third_Party/FreeRTOS/Source/event_groups.c **** 				mtCOVERAGE_TEST_MARKER();
 382:Middlewares/Third_Party/FreeRTOS/Source/event_groups.c **** 			}
 383:Middlewares/Third_Party/FreeRTOS/Source/event_groups.c **** 
 384:Middlewares/Third_Party/FreeRTOS/Source/event_groups.c **** 			/* Store the bits that the calling task is waiting for in the
 385:Middlewares/Third_Party/FreeRTOS/Source/event_groups.c **** 			task's event list item so the kernel knows when a match is
 386:Middlewares/Third_Party/FreeRTOS/Source/event_groups.c **** 			found.  Then enter the blocked state. */
 387:Middlewares/Third_Party/FreeRTOS/Source/event_groups.c **** 			vTaskPlaceOnUnorderedEventList( &( pxEventBits->xTasksWaitingForBits ), ( uxBitsToWaitFor | uxCo
 388:Middlewares/Third_Party/FreeRTOS/Source/event_groups.c **** 
 389:Middlewares/Third_Party/FreeRTOS/Source/event_groups.c **** 			/* This is obsolete as it will get set after the task unblocks, but
 390:Middlewares/Third_Party/FreeRTOS/Source/event_groups.c **** 			some compilers mistakenly generate a warning about the variable
 391:Middlewares/Third_Party/FreeRTOS/Source/event_groups.c **** 			being returned without being set if it is not done. */
 392:Middlewares/Third_Party/FreeRTOS/Source/event_groups.c **** 			uxReturn = 0;
 393:Middlewares/Third_Party/FreeRTOS/Source/event_groups.c **** 
 394:Middlewares/Third_Party/FreeRTOS/Source/event_groups.c **** 			traceEVENT_GROUP_WAIT_BITS_BLOCK( xEventGroup, uxBitsToWaitFor );
 395:Middlewares/Third_Party/FreeRTOS/Source/event_groups.c **** 		}
 396:Middlewares/Third_Party/FreeRTOS/Source/event_groups.c **** 	}
 397:Middlewares/Third_Party/FreeRTOS/Source/event_groups.c **** 	xAlreadyYielded = xTaskResumeAll();
 398:Middlewares/Third_Party/FreeRTOS/Source/event_groups.c **** 
 399:Middlewares/Third_Party/FreeRTOS/Source/event_groups.c **** 	if( xTicksToWait != ( TickType_t ) 0 )
 400:Middlewares/Third_Party/FreeRTOS/Source/event_groups.c **** 	{
 401:Middlewares/Third_Party/FreeRTOS/Source/event_groups.c **** 		if( xAlreadyYielded == pdFALSE )
 402:Middlewares/Third_Party/FreeRTOS/Source/event_groups.c **** 		{
 403:Middlewares/Third_Party/FreeRTOS/Source/event_groups.c **** 			portYIELD_WITHIN_API();
 404:Middlewares/Third_Party/FreeRTOS/Source/event_groups.c **** 		}
 405:Middlewares/Third_Party/FreeRTOS/Source/event_groups.c **** 		else
 406:Middlewares/Third_Party/FreeRTOS/Source/event_groups.c **** 		{
 407:Middlewares/Third_Party/FreeRTOS/Source/event_groups.c **** 			mtCOVERAGE_TEST_MARKER();
 408:Middlewares/Third_Party/FreeRTOS/Source/event_groups.c **** 		}
 409:Middlewares/Third_Party/FreeRTOS/Source/event_groups.c **** 
 410:Middlewares/Third_Party/FreeRTOS/Source/event_groups.c **** 		/* The task blocked to wait for its required bits to be set - at this
 411:Middlewares/Third_Party/FreeRTOS/Source/event_groups.c **** 		point either the required bits were set or the block time expired.  If
 412:Middlewares/Third_Party/FreeRTOS/Source/event_groups.c **** 		the required bits were set they will have been stored in the task's
 413:Middlewares/Third_Party/FreeRTOS/Source/event_groups.c **** 		event list item, and they should now be retrieved then cleared. */
 414:Middlewares/Third_Party/FreeRTOS/Source/event_groups.c **** 		uxReturn = uxTaskResetEventItemValue();
 415:Middlewares/Third_Party/FreeRTOS/Source/event_groups.c **** 
 416:Middlewares/Third_Party/FreeRTOS/Source/event_groups.c **** 		if( ( uxReturn & eventUNBLOCKED_DUE_TO_BIT_SET ) == ( EventBits_t ) 0 )
 417:Middlewares/Third_Party/FreeRTOS/Source/event_groups.c **** 		{
 418:Middlewares/Third_Party/FreeRTOS/Source/event_groups.c **** 			taskENTER_CRITICAL();
 419:Middlewares/Third_Party/FreeRTOS/Source/event_groups.c **** 			{
 420:Middlewares/Third_Party/FreeRTOS/Source/event_groups.c **** 				/* The task timed out, just return the current event bit value. */
 421:Middlewares/Third_Party/FreeRTOS/Source/event_groups.c **** 				uxReturn = pxEventBits->uxEventBits;
 422:Middlewares/Third_Party/FreeRTOS/Source/event_groups.c **** 
 423:Middlewares/Third_Party/FreeRTOS/Source/event_groups.c **** 				/* It is possible that the event bits were updated between this
 424:Middlewares/Third_Party/FreeRTOS/Source/event_groups.c **** 				task leaving the Blocked state and running again. */
 425:Middlewares/Third_Party/FreeRTOS/Source/event_groups.c **** 				if( prvTestWaitCondition( uxReturn, uxBitsToWaitFor, xWaitForAllBits ) != pdFALSE )
 426:Middlewares/Third_Party/FreeRTOS/Source/event_groups.c **** 				{
 427:Middlewares/Third_Party/FreeRTOS/Source/event_groups.c **** 					if( xClearOnExit != pdFALSE )
 428:Middlewares/Third_Party/FreeRTOS/Source/event_groups.c **** 					{
 429:Middlewares/Third_Party/FreeRTOS/Source/event_groups.c **** 						pxEventBits->uxEventBits &= ~uxBitsToWaitFor;
ARM GAS  C:\Users\KETEN_~1\AppData\Local\Temp\ccIeQTbg.s 			page 9


 430:Middlewares/Third_Party/FreeRTOS/Source/event_groups.c **** 					}
 431:Middlewares/Third_Party/FreeRTOS/Source/event_groups.c **** 					else
 432:Middlewares/Third_Party/FreeRTOS/Source/event_groups.c **** 					{
 433:Middlewares/Third_Party/FreeRTOS/Source/event_groups.c **** 						mtCOVERAGE_TEST_MARKER();
 434:Middlewares/Third_Party/FreeRTOS/Source/event_groups.c **** 					}
 435:Middlewares/Third_Party/FreeRTOS/Source/event_groups.c **** 				}
 436:Middlewares/Third_Party/FreeRTOS/Source/event_groups.c **** 				else
 437:Middlewares/Third_Party/FreeRTOS/Source/event_groups.c **** 				{
 438:Middlewares/Third_Party/FreeRTOS/Source/event_groups.c **** 					mtCOVERAGE_TEST_MARKER();
 439:Middlewares/Third_Party/FreeRTOS/Source/event_groups.c **** 				}
 440:Middlewares/Third_Party/FreeRTOS/Source/event_groups.c **** 				xTimeoutOccurred = pdTRUE;
 441:Middlewares/Third_Party/FreeRTOS/Source/event_groups.c **** 			}
 442:Middlewares/Third_Party/FreeRTOS/Source/event_groups.c **** 			taskEXIT_CRITICAL();
 443:Middlewares/Third_Party/FreeRTOS/Source/event_groups.c **** 		}
 444:Middlewares/Third_Party/FreeRTOS/Source/event_groups.c **** 		else
 445:Middlewares/Third_Party/FreeRTOS/Source/event_groups.c **** 		{
 446:Middlewares/Third_Party/FreeRTOS/Source/event_groups.c **** 			/* The task unblocked because the bits were set. */
 447:Middlewares/Third_Party/FreeRTOS/Source/event_groups.c **** 		}
 448:Middlewares/Third_Party/FreeRTOS/Source/event_groups.c **** 
 449:Middlewares/Third_Party/FreeRTOS/Source/event_groups.c **** 		/* The task blocked so control bits may have been set. */
 450:Middlewares/Third_Party/FreeRTOS/Source/event_groups.c **** 		uxReturn &= ~eventEVENT_BITS_CONTROL_BYTES;
 451:Middlewares/Third_Party/FreeRTOS/Source/event_groups.c **** 	}
 452:Middlewares/Third_Party/FreeRTOS/Source/event_groups.c **** 	traceEVENT_GROUP_WAIT_BITS_END( xEventGroup, uxBitsToWaitFor, xTimeoutOccurred );
 453:Middlewares/Third_Party/FreeRTOS/Source/event_groups.c **** 
 454:Middlewares/Third_Party/FreeRTOS/Source/event_groups.c **** 	/* Prevent compiler warnings when trace macros are not used. */
 455:Middlewares/Third_Party/FreeRTOS/Source/event_groups.c **** 	( void ) xTimeoutOccurred;
 456:Middlewares/Third_Party/FreeRTOS/Source/event_groups.c **** 
 457:Middlewares/Third_Party/FreeRTOS/Source/event_groups.c **** 	return uxReturn;
 458:Middlewares/Third_Party/FreeRTOS/Source/event_groups.c **** }
 459:Middlewares/Third_Party/FreeRTOS/Source/event_groups.c **** /*-----------------------------------------------------------*/
 460:Middlewares/Third_Party/FreeRTOS/Source/event_groups.c **** 
 461:Middlewares/Third_Party/FreeRTOS/Source/event_groups.c **** EventBits_t xEventGroupClearBits( EventGroupHandle_t xEventGroup, const EventBits_t uxBitsToClear )
 462:Middlewares/Third_Party/FreeRTOS/Source/event_groups.c **** {
 463:Middlewares/Third_Party/FreeRTOS/Source/event_groups.c **** EventGroup_t *pxEventBits = xEventGroup;
 464:Middlewares/Third_Party/FreeRTOS/Source/event_groups.c **** EventBits_t uxReturn;
 465:Middlewares/Third_Party/FreeRTOS/Source/event_groups.c **** 
 466:Middlewares/Third_Party/FreeRTOS/Source/event_groups.c **** 	/* Check the user is not attempting to clear the bits used by the kernel
 467:Middlewares/Third_Party/FreeRTOS/Source/event_groups.c **** 	itself. */
 468:Middlewares/Third_Party/FreeRTOS/Source/event_groups.c **** 	configASSERT( xEventGroup );
 469:Middlewares/Third_Party/FreeRTOS/Source/event_groups.c **** 	configASSERT( ( uxBitsToClear & eventEVENT_BITS_CONTROL_BYTES ) == 0 );
 470:Middlewares/Third_Party/FreeRTOS/Source/event_groups.c **** 
 471:Middlewares/Third_Party/FreeRTOS/Source/event_groups.c **** 	taskENTER_CRITICAL();
 472:Middlewares/Third_Party/FreeRTOS/Source/event_groups.c **** 	{
 473:Middlewares/Third_Party/FreeRTOS/Source/event_groups.c **** 		traceEVENT_GROUP_CLEAR_BITS( xEventGroup, uxBitsToClear );
 474:Middlewares/Third_Party/FreeRTOS/Source/event_groups.c **** 
 475:Middlewares/Third_Party/FreeRTOS/Source/event_groups.c **** 		/* The value returned is the event group value prior to the bits being
 476:Middlewares/Third_Party/FreeRTOS/Source/event_groups.c **** 		cleared. */
 477:Middlewares/Third_Party/FreeRTOS/Source/event_groups.c **** 		uxReturn = pxEventBits->uxEventBits;
 478:Middlewares/Third_Party/FreeRTOS/Source/event_groups.c **** 
 479:Middlewares/Third_Party/FreeRTOS/Source/event_groups.c **** 		/* Clear the bits. */
 480:Middlewares/Third_Party/FreeRTOS/Source/event_groups.c **** 		pxEventBits->uxEventBits &= ~uxBitsToClear;
 481:Middlewares/Third_Party/FreeRTOS/Source/event_groups.c **** 	}
 482:Middlewares/Third_Party/FreeRTOS/Source/event_groups.c **** 	taskEXIT_CRITICAL();
 483:Middlewares/Third_Party/FreeRTOS/Source/event_groups.c **** 
 484:Middlewares/Third_Party/FreeRTOS/Source/event_groups.c **** 	return uxReturn;
 485:Middlewares/Third_Party/FreeRTOS/Source/event_groups.c **** }
 486:Middlewares/Third_Party/FreeRTOS/Source/event_groups.c **** /*-----------------------------------------------------------*/
ARM GAS  C:\Users\KETEN_~1\AppData\Local\Temp\ccIeQTbg.s 			page 10


 487:Middlewares/Third_Party/FreeRTOS/Source/event_groups.c **** 
 488:Middlewares/Third_Party/FreeRTOS/Source/event_groups.c **** #if ( ( configUSE_TRACE_FACILITY == 1 ) && ( INCLUDE_xTimerPendFunctionCall == 1 ) && ( configUSE_T
 489:Middlewares/Third_Party/FreeRTOS/Source/event_groups.c **** 
 490:Middlewares/Third_Party/FreeRTOS/Source/event_groups.c **** 	BaseType_t xEventGroupClearBitsFromISR( EventGroupHandle_t xEventGroup, const EventBits_t uxBitsTo
 491:Middlewares/Third_Party/FreeRTOS/Source/event_groups.c **** 	{
 492:Middlewares/Third_Party/FreeRTOS/Source/event_groups.c **** 		BaseType_t xReturn;
 493:Middlewares/Third_Party/FreeRTOS/Source/event_groups.c **** 
 494:Middlewares/Third_Party/FreeRTOS/Source/event_groups.c **** 		traceEVENT_GROUP_CLEAR_BITS_FROM_ISR( xEventGroup, uxBitsToClear );
 495:Middlewares/Third_Party/FreeRTOS/Source/event_groups.c **** 		xReturn = xTimerPendFunctionCallFromISR( vEventGroupClearBitsCallback, ( void * ) xEventGroup, ( 
 496:Middlewares/Third_Party/FreeRTOS/Source/event_groups.c **** 
 497:Middlewares/Third_Party/FreeRTOS/Source/event_groups.c **** 		return xReturn;
 498:Middlewares/Third_Party/FreeRTOS/Source/event_groups.c **** 	}
 499:Middlewares/Third_Party/FreeRTOS/Source/event_groups.c **** 
 500:Middlewares/Third_Party/FreeRTOS/Source/event_groups.c **** #endif
 501:Middlewares/Third_Party/FreeRTOS/Source/event_groups.c **** /*-----------------------------------------------------------*/
 502:Middlewares/Third_Party/FreeRTOS/Source/event_groups.c **** 
 503:Middlewares/Third_Party/FreeRTOS/Source/event_groups.c **** EventBits_t xEventGroupGetBitsFromISR( EventGroupHandle_t xEventGroup )
 504:Middlewares/Third_Party/FreeRTOS/Source/event_groups.c **** {
 505:Middlewares/Third_Party/FreeRTOS/Source/event_groups.c **** UBaseType_t uxSavedInterruptStatus;
 506:Middlewares/Third_Party/FreeRTOS/Source/event_groups.c **** EventGroup_t const * const pxEventBits = xEventGroup;
 507:Middlewares/Third_Party/FreeRTOS/Source/event_groups.c **** EventBits_t uxReturn;
 508:Middlewares/Third_Party/FreeRTOS/Source/event_groups.c **** 
 509:Middlewares/Third_Party/FreeRTOS/Source/event_groups.c **** 	uxSavedInterruptStatus = portSET_INTERRUPT_MASK_FROM_ISR();
 510:Middlewares/Third_Party/FreeRTOS/Source/event_groups.c **** 	{
 511:Middlewares/Third_Party/FreeRTOS/Source/event_groups.c **** 		uxReturn = pxEventBits->uxEventBits;
 512:Middlewares/Third_Party/FreeRTOS/Source/event_groups.c **** 	}
 513:Middlewares/Third_Party/FreeRTOS/Source/event_groups.c **** 	portCLEAR_INTERRUPT_MASK_FROM_ISR( uxSavedInterruptStatus );
 514:Middlewares/Third_Party/FreeRTOS/Source/event_groups.c **** 
 515:Middlewares/Third_Party/FreeRTOS/Source/event_groups.c **** 	return uxReturn;
 516:Middlewares/Third_Party/FreeRTOS/Source/event_groups.c **** } /*lint !e818 EventGroupHandle_t is a typedef used in other functions to so can't be pointer to co
 517:Middlewares/Third_Party/FreeRTOS/Source/event_groups.c **** /*-----------------------------------------------------------*/
 518:Middlewares/Third_Party/FreeRTOS/Source/event_groups.c **** 
 519:Middlewares/Third_Party/FreeRTOS/Source/event_groups.c **** EventBits_t xEventGroupSetBits( EventGroupHandle_t xEventGroup, const EventBits_t uxBitsToSet )
 520:Middlewares/Third_Party/FreeRTOS/Source/event_groups.c **** {
 521:Middlewares/Third_Party/FreeRTOS/Source/event_groups.c **** ListItem_t *pxListItem, *pxNext;
 522:Middlewares/Third_Party/FreeRTOS/Source/event_groups.c **** ListItem_t const *pxListEnd;
 523:Middlewares/Third_Party/FreeRTOS/Source/event_groups.c **** List_t const * pxList;
 524:Middlewares/Third_Party/FreeRTOS/Source/event_groups.c **** EventBits_t uxBitsToClear = 0, uxBitsWaitedFor, uxControlBits;
 525:Middlewares/Third_Party/FreeRTOS/Source/event_groups.c **** EventGroup_t *pxEventBits = xEventGroup;
 526:Middlewares/Third_Party/FreeRTOS/Source/event_groups.c **** BaseType_t xMatchFound = pdFALSE;
 527:Middlewares/Third_Party/FreeRTOS/Source/event_groups.c **** 
 528:Middlewares/Third_Party/FreeRTOS/Source/event_groups.c **** 	/* Check the user is not attempting to set the bits used by the kernel
 529:Middlewares/Third_Party/FreeRTOS/Source/event_groups.c **** 	itself. */
 530:Middlewares/Third_Party/FreeRTOS/Source/event_groups.c **** 	configASSERT( xEventGroup );
 531:Middlewares/Third_Party/FreeRTOS/Source/event_groups.c **** 	configASSERT( ( uxBitsToSet & eventEVENT_BITS_CONTROL_BYTES ) == 0 );
 532:Middlewares/Third_Party/FreeRTOS/Source/event_groups.c **** 
 533:Middlewares/Third_Party/FreeRTOS/Source/event_groups.c **** 	pxList = &( pxEventBits->xTasksWaitingForBits );
 534:Middlewares/Third_Party/FreeRTOS/Source/event_groups.c **** 	pxListEnd = listGET_END_MARKER( pxList ); /*lint !e826 !e740 !e9087 The mini list structure is use
 535:Middlewares/Third_Party/FreeRTOS/Source/event_groups.c **** 	vTaskSuspendAll();
 536:Middlewares/Third_Party/FreeRTOS/Source/event_groups.c **** 	{
 537:Middlewares/Third_Party/FreeRTOS/Source/event_groups.c **** 		traceEVENT_GROUP_SET_BITS( xEventGroup, uxBitsToSet );
 538:Middlewares/Third_Party/FreeRTOS/Source/event_groups.c **** 
 539:Middlewares/Third_Party/FreeRTOS/Source/event_groups.c **** 		pxListItem = listGET_HEAD_ENTRY( pxList );
 540:Middlewares/Third_Party/FreeRTOS/Source/event_groups.c **** 
 541:Middlewares/Third_Party/FreeRTOS/Source/event_groups.c **** 		/* Set the bits. */
 542:Middlewares/Third_Party/FreeRTOS/Source/event_groups.c **** 		pxEventBits->uxEventBits |= uxBitsToSet;
 543:Middlewares/Third_Party/FreeRTOS/Source/event_groups.c **** 
ARM GAS  C:\Users\KETEN_~1\AppData\Local\Temp\ccIeQTbg.s 			page 11


 544:Middlewares/Third_Party/FreeRTOS/Source/event_groups.c **** 		/* See if the new bit value should unblock any tasks. */
 545:Middlewares/Third_Party/FreeRTOS/Source/event_groups.c **** 		while( pxListItem != pxListEnd )
 546:Middlewares/Third_Party/FreeRTOS/Source/event_groups.c **** 		{
 547:Middlewares/Third_Party/FreeRTOS/Source/event_groups.c **** 			pxNext = listGET_NEXT( pxListItem );
 548:Middlewares/Third_Party/FreeRTOS/Source/event_groups.c **** 			uxBitsWaitedFor = listGET_LIST_ITEM_VALUE( pxListItem );
 549:Middlewares/Third_Party/FreeRTOS/Source/event_groups.c **** 			xMatchFound = pdFALSE;
 550:Middlewares/Third_Party/FreeRTOS/Source/event_groups.c **** 
 551:Middlewares/Third_Party/FreeRTOS/Source/event_groups.c **** 			/* Split the bits waited for from the control bits. */
 552:Middlewares/Third_Party/FreeRTOS/Source/event_groups.c **** 			uxControlBits = uxBitsWaitedFor & eventEVENT_BITS_CONTROL_BYTES;
 553:Middlewares/Third_Party/FreeRTOS/Source/event_groups.c **** 			uxBitsWaitedFor &= ~eventEVENT_BITS_CONTROL_BYTES;
 554:Middlewares/Third_Party/FreeRTOS/Source/event_groups.c **** 
 555:Middlewares/Third_Party/FreeRTOS/Source/event_groups.c **** 			if( ( uxControlBits & eventWAIT_FOR_ALL_BITS ) == ( EventBits_t ) 0 )
 556:Middlewares/Third_Party/FreeRTOS/Source/event_groups.c **** 			{
 557:Middlewares/Third_Party/FreeRTOS/Source/event_groups.c **** 				/* Just looking for single bit being set. */
 558:Middlewares/Third_Party/FreeRTOS/Source/event_groups.c **** 				if( ( uxBitsWaitedFor & pxEventBits->uxEventBits ) != ( EventBits_t ) 0 )
 559:Middlewares/Third_Party/FreeRTOS/Source/event_groups.c **** 				{
 560:Middlewares/Third_Party/FreeRTOS/Source/event_groups.c **** 					xMatchFound = pdTRUE;
 561:Middlewares/Third_Party/FreeRTOS/Source/event_groups.c **** 				}
 562:Middlewares/Third_Party/FreeRTOS/Source/event_groups.c **** 				else
 563:Middlewares/Third_Party/FreeRTOS/Source/event_groups.c **** 				{
 564:Middlewares/Third_Party/FreeRTOS/Source/event_groups.c **** 					mtCOVERAGE_TEST_MARKER();
 565:Middlewares/Third_Party/FreeRTOS/Source/event_groups.c **** 				}
 566:Middlewares/Third_Party/FreeRTOS/Source/event_groups.c **** 			}
 567:Middlewares/Third_Party/FreeRTOS/Source/event_groups.c **** 			else if( ( uxBitsWaitedFor & pxEventBits->uxEventBits ) == uxBitsWaitedFor )
 568:Middlewares/Third_Party/FreeRTOS/Source/event_groups.c **** 			{
 569:Middlewares/Third_Party/FreeRTOS/Source/event_groups.c **** 				/* All bits are set. */
 570:Middlewares/Third_Party/FreeRTOS/Source/event_groups.c **** 				xMatchFound = pdTRUE;
 571:Middlewares/Third_Party/FreeRTOS/Source/event_groups.c **** 			}
 572:Middlewares/Third_Party/FreeRTOS/Source/event_groups.c **** 			else
 573:Middlewares/Third_Party/FreeRTOS/Source/event_groups.c **** 			{
 574:Middlewares/Third_Party/FreeRTOS/Source/event_groups.c **** 				/* Need all bits to be set, but not all the bits were set. */
 575:Middlewares/Third_Party/FreeRTOS/Source/event_groups.c **** 			}
 576:Middlewares/Third_Party/FreeRTOS/Source/event_groups.c **** 
 577:Middlewares/Third_Party/FreeRTOS/Source/event_groups.c **** 			if( xMatchFound != pdFALSE )
 578:Middlewares/Third_Party/FreeRTOS/Source/event_groups.c **** 			{
 579:Middlewares/Third_Party/FreeRTOS/Source/event_groups.c **** 				/* The bits match.  Should the bits be cleared on exit? */
 580:Middlewares/Third_Party/FreeRTOS/Source/event_groups.c **** 				if( ( uxControlBits & eventCLEAR_EVENTS_ON_EXIT_BIT ) != ( EventBits_t ) 0 )
 581:Middlewares/Third_Party/FreeRTOS/Source/event_groups.c **** 				{
 582:Middlewares/Third_Party/FreeRTOS/Source/event_groups.c **** 					uxBitsToClear |= uxBitsWaitedFor;
 583:Middlewares/Third_Party/FreeRTOS/Source/event_groups.c **** 				}
 584:Middlewares/Third_Party/FreeRTOS/Source/event_groups.c **** 				else
 585:Middlewares/Third_Party/FreeRTOS/Source/event_groups.c **** 				{
 586:Middlewares/Third_Party/FreeRTOS/Source/event_groups.c **** 					mtCOVERAGE_TEST_MARKER();
 587:Middlewares/Third_Party/FreeRTOS/Source/event_groups.c **** 				}
 588:Middlewares/Third_Party/FreeRTOS/Source/event_groups.c **** 
 589:Middlewares/Third_Party/FreeRTOS/Source/event_groups.c **** 				/* Store the actual event flag value in the task's event list
 590:Middlewares/Third_Party/FreeRTOS/Source/event_groups.c **** 				item before removing the task from the event list.  The
 591:Middlewares/Third_Party/FreeRTOS/Source/event_groups.c **** 				eventUNBLOCKED_DUE_TO_BIT_SET bit is set so the task knows
 592:Middlewares/Third_Party/FreeRTOS/Source/event_groups.c **** 				that is was unblocked due to its required bits matching, rather
 593:Middlewares/Third_Party/FreeRTOS/Source/event_groups.c **** 				than because it timed out. */
 594:Middlewares/Third_Party/FreeRTOS/Source/event_groups.c **** 				vTaskRemoveFromUnorderedEventList( pxListItem, pxEventBits->uxEventBits | eventUNBLOCKED_DUE_TO
 595:Middlewares/Third_Party/FreeRTOS/Source/event_groups.c **** 			}
 596:Middlewares/Third_Party/FreeRTOS/Source/event_groups.c **** 
 597:Middlewares/Third_Party/FreeRTOS/Source/event_groups.c **** 			/* Move onto the next list item.  Note pxListItem->pxNext is not
 598:Middlewares/Third_Party/FreeRTOS/Source/event_groups.c **** 			used here as the list item may have been removed from the event list
 599:Middlewares/Third_Party/FreeRTOS/Source/event_groups.c **** 			and inserted into the ready/pending reading list. */
 600:Middlewares/Third_Party/FreeRTOS/Source/event_groups.c **** 			pxListItem = pxNext;
ARM GAS  C:\Users\KETEN_~1\AppData\Local\Temp\ccIeQTbg.s 			page 12


 601:Middlewares/Third_Party/FreeRTOS/Source/event_groups.c **** 		}
 602:Middlewares/Third_Party/FreeRTOS/Source/event_groups.c **** 
 603:Middlewares/Third_Party/FreeRTOS/Source/event_groups.c **** 		/* Clear any bits that matched when the eventCLEAR_EVENTS_ON_EXIT_BIT
 604:Middlewares/Third_Party/FreeRTOS/Source/event_groups.c **** 		bit was set in the control word. */
 605:Middlewares/Third_Party/FreeRTOS/Source/event_groups.c **** 		pxEventBits->uxEventBits &= ~uxBitsToClear;
 606:Middlewares/Third_Party/FreeRTOS/Source/event_groups.c **** 	}
 607:Middlewares/Third_Party/FreeRTOS/Source/event_groups.c **** 	( void ) xTaskResumeAll();
 608:Middlewares/Third_Party/FreeRTOS/Source/event_groups.c **** 
 609:Middlewares/Third_Party/FreeRTOS/Source/event_groups.c **** 	return pxEventBits->uxEventBits;
 610:Middlewares/Third_Party/FreeRTOS/Source/event_groups.c **** }
 611:Middlewares/Third_Party/FreeRTOS/Source/event_groups.c **** /*-----------------------------------------------------------*/
 612:Middlewares/Third_Party/FreeRTOS/Source/event_groups.c **** 
 613:Middlewares/Third_Party/FreeRTOS/Source/event_groups.c **** void vEventGroupDelete( EventGroupHandle_t xEventGroup )
 614:Middlewares/Third_Party/FreeRTOS/Source/event_groups.c **** {
 615:Middlewares/Third_Party/FreeRTOS/Source/event_groups.c **** EventGroup_t *pxEventBits = xEventGroup;
 616:Middlewares/Third_Party/FreeRTOS/Source/event_groups.c **** const List_t *pxTasksWaitingForBits = &( pxEventBits->xTasksWaitingForBits );
 617:Middlewares/Third_Party/FreeRTOS/Source/event_groups.c **** 
 618:Middlewares/Third_Party/FreeRTOS/Source/event_groups.c **** 	vTaskSuspendAll();
 619:Middlewares/Third_Party/FreeRTOS/Source/event_groups.c **** 	{
 620:Middlewares/Third_Party/FreeRTOS/Source/event_groups.c **** 		traceEVENT_GROUP_DELETE( xEventGroup );
 621:Middlewares/Third_Party/FreeRTOS/Source/event_groups.c **** 
 622:Middlewares/Third_Party/FreeRTOS/Source/event_groups.c **** 		while( listCURRENT_LIST_LENGTH( pxTasksWaitingForBits ) > ( UBaseType_t ) 0 )
 623:Middlewares/Third_Party/FreeRTOS/Source/event_groups.c **** 		{
 624:Middlewares/Third_Party/FreeRTOS/Source/event_groups.c **** 			/* Unblock the task, returning 0 as the event list is being deleted
 625:Middlewares/Third_Party/FreeRTOS/Source/event_groups.c **** 			and cannot therefore have any bits set. */
 626:Middlewares/Third_Party/FreeRTOS/Source/event_groups.c **** 			configASSERT( pxTasksWaitingForBits->xListEnd.pxNext != ( const ListItem_t * ) &( pxTasksWaiting
 627:Middlewares/Third_Party/FreeRTOS/Source/event_groups.c **** 			vTaskRemoveFromUnorderedEventList( pxTasksWaitingForBits->xListEnd.pxNext, eventUNBLOCKED_DUE_TO
 628:Middlewares/Third_Party/FreeRTOS/Source/event_groups.c **** 		}
 629:Middlewares/Third_Party/FreeRTOS/Source/event_groups.c **** 
 630:Middlewares/Third_Party/FreeRTOS/Source/event_groups.c **** 		#if( ( configSUPPORT_DYNAMIC_ALLOCATION == 1 ) && ( configSUPPORT_STATIC_ALLOCATION == 0 ) )
 631:Middlewares/Third_Party/FreeRTOS/Source/event_groups.c **** 		{
 632:Middlewares/Third_Party/FreeRTOS/Source/event_groups.c **** 			/* The event group can only have been allocated dynamically - free
 633:Middlewares/Third_Party/FreeRTOS/Source/event_groups.c **** 			it again. */
 634:Middlewares/Third_Party/FreeRTOS/Source/event_groups.c **** 			vPortFree( pxEventBits );
 635:Middlewares/Third_Party/FreeRTOS/Source/event_groups.c **** 		}
 636:Middlewares/Third_Party/FreeRTOS/Source/event_groups.c **** 		#elif( ( configSUPPORT_DYNAMIC_ALLOCATION == 1 ) && ( configSUPPORT_STATIC_ALLOCATION == 1 ) )
 637:Middlewares/Third_Party/FreeRTOS/Source/event_groups.c **** 		{
 638:Middlewares/Third_Party/FreeRTOS/Source/event_groups.c **** 			/* The event group could have been allocated statically or
 639:Middlewares/Third_Party/FreeRTOS/Source/event_groups.c **** 			dynamically, so check before attempting to free the memory. */
 640:Middlewares/Third_Party/FreeRTOS/Source/event_groups.c **** 			if( pxEventBits->ucStaticallyAllocated == ( uint8_t ) pdFALSE )
 641:Middlewares/Third_Party/FreeRTOS/Source/event_groups.c **** 			{
 642:Middlewares/Third_Party/FreeRTOS/Source/event_groups.c **** 				vPortFree( pxEventBits );
 643:Middlewares/Third_Party/FreeRTOS/Source/event_groups.c **** 			}
 644:Middlewares/Third_Party/FreeRTOS/Source/event_groups.c **** 			else
 645:Middlewares/Third_Party/FreeRTOS/Source/event_groups.c **** 			{
 646:Middlewares/Third_Party/FreeRTOS/Source/event_groups.c **** 				mtCOVERAGE_TEST_MARKER();
 647:Middlewares/Third_Party/FreeRTOS/Source/event_groups.c **** 			}
 648:Middlewares/Third_Party/FreeRTOS/Source/event_groups.c **** 		}
 649:Middlewares/Third_Party/FreeRTOS/Source/event_groups.c **** 		#endif /* configSUPPORT_DYNAMIC_ALLOCATION */
 650:Middlewares/Third_Party/FreeRTOS/Source/event_groups.c **** 	}
 651:Middlewares/Third_Party/FreeRTOS/Source/event_groups.c **** 	( void ) xTaskResumeAll();
 652:Middlewares/Third_Party/FreeRTOS/Source/event_groups.c **** }
 653:Middlewares/Third_Party/FreeRTOS/Source/event_groups.c **** /*-----------------------------------------------------------*/
 654:Middlewares/Third_Party/FreeRTOS/Source/event_groups.c **** 
 655:Middlewares/Third_Party/FreeRTOS/Source/event_groups.c **** /* For internal use only - execute a 'set bits' command that was pended from
 656:Middlewares/Third_Party/FreeRTOS/Source/event_groups.c **** an interrupt. */
 657:Middlewares/Third_Party/FreeRTOS/Source/event_groups.c **** void vEventGroupSetBitsCallback( void *pvEventGroup, const uint32_t ulBitsToSet )
ARM GAS  C:\Users\KETEN_~1\AppData\Local\Temp\ccIeQTbg.s 			page 13


 658:Middlewares/Third_Party/FreeRTOS/Source/event_groups.c **** {
 659:Middlewares/Third_Party/FreeRTOS/Source/event_groups.c **** 	( void ) xEventGroupSetBits( pvEventGroup, ( EventBits_t ) ulBitsToSet ); /*lint !e9079 Can't avoi
 660:Middlewares/Third_Party/FreeRTOS/Source/event_groups.c **** }
 661:Middlewares/Third_Party/FreeRTOS/Source/event_groups.c **** /*-----------------------------------------------------------*/
 662:Middlewares/Third_Party/FreeRTOS/Source/event_groups.c **** 
 663:Middlewares/Third_Party/FreeRTOS/Source/event_groups.c **** /* For internal use only - execute a 'clear bits' command that was pended from
 664:Middlewares/Third_Party/FreeRTOS/Source/event_groups.c **** an interrupt. */
 665:Middlewares/Third_Party/FreeRTOS/Source/event_groups.c **** void vEventGroupClearBitsCallback( void *pvEventGroup, const uint32_t ulBitsToClear )
 666:Middlewares/Third_Party/FreeRTOS/Source/event_groups.c **** {
 667:Middlewares/Third_Party/FreeRTOS/Source/event_groups.c **** 	( void ) xEventGroupClearBits( pvEventGroup, ( EventBits_t ) ulBitsToClear ); /*lint !e9079 Can't 
 668:Middlewares/Third_Party/FreeRTOS/Source/event_groups.c **** }
 669:Middlewares/Third_Party/FreeRTOS/Source/event_groups.c **** /*-----------------------------------------------------------*/
 670:Middlewares/Third_Party/FreeRTOS/Source/event_groups.c **** 
 671:Middlewares/Third_Party/FreeRTOS/Source/event_groups.c **** static BaseType_t prvTestWaitCondition( const EventBits_t uxCurrentEventBits, const EventBits_t uxB
 672:Middlewares/Third_Party/FreeRTOS/Source/event_groups.c **** {
  29              		.loc 1 672 1 view -0
  30              		.cfi_startproc
  31              		@ args = 0, pretend = 0, frame = 0
  32              		@ frame_needed = 0, uses_anonymous_args = 0
  33              		@ link register save eliminated.
 673:Middlewares/Third_Party/FreeRTOS/Source/event_groups.c **** BaseType_t xWaitConditionMet = pdFALSE;
  34              		.loc 1 673 1 view .LVU1
 674:Middlewares/Third_Party/FreeRTOS/Source/event_groups.c **** 
 675:Middlewares/Third_Party/FreeRTOS/Source/event_groups.c **** 	if( xWaitForAllBits == pdFALSE )
  35              		.loc 1 675 2 view .LVU2
  36              		.loc 1 675 4 is_stmt 0 view .LVU3
  37 0000 1AB9     		cbnz	r2, .L2
 676:Middlewares/Third_Party/FreeRTOS/Source/event_groups.c **** 	{
 677:Middlewares/Third_Party/FreeRTOS/Source/event_groups.c **** 		/* Task only has to wait for one bit within uxBitsToWaitFor to be
 678:Middlewares/Third_Party/FreeRTOS/Source/event_groups.c **** 		set.  Is one already set? */
 679:Middlewares/Third_Party/FreeRTOS/Source/event_groups.c **** 		if( ( uxCurrentEventBits & uxBitsToWaitFor ) != ( EventBits_t ) 0 )
  38              		.loc 1 679 3 is_stmt 1 view .LVU4
  39              		.loc 1 679 5 is_stmt 0 view .LVU5
  40 0002 0842     		tst	r0, r1
  41 0004 05D1     		bne	.L4
 673:Middlewares/Third_Party/FreeRTOS/Source/event_groups.c **** 
  42              		.loc 1 673 12 view .LVU6
  43 0006 1046     		mov	r0, r2
  44              	.LVL1:
 673:Middlewares/Third_Party/FreeRTOS/Source/event_groups.c **** 
  45              		.loc 1 673 12 view .LVU7
  46 0008 7047     		bx	lr
  47              	.LVL2:
  48              	.L2:
 680:Middlewares/Third_Party/FreeRTOS/Source/event_groups.c **** 		{
 681:Middlewares/Third_Party/FreeRTOS/Source/event_groups.c **** 			xWaitConditionMet = pdTRUE;
 682:Middlewares/Third_Party/FreeRTOS/Source/event_groups.c **** 		}
 683:Middlewares/Third_Party/FreeRTOS/Source/event_groups.c **** 		else
 684:Middlewares/Third_Party/FreeRTOS/Source/event_groups.c **** 		{
 685:Middlewares/Third_Party/FreeRTOS/Source/event_groups.c **** 			mtCOVERAGE_TEST_MARKER();
 686:Middlewares/Third_Party/FreeRTOS/Source/event_groups.c **** 		}
 687:Middlewares/Third_Party/FreeRTOS/Source/event_groups.c **** 	}
 688:Middlewares/Third_Party/FreeRTOS/Source/event_groups.c **** 	else
 689:Middlewares/Third_Party/FreeRTOS/Source/event_groups.c **** 	{
 690:Middlewares/Third_Party/FreeRTOS/Source/event_groups.c **** 		/* Task has to wait for all the bits in uxBitsToWaitFor to be set.
 691:Middlewares/Third_Party/FreeRTOS/Source/event_groups.c **** 		Are they set already? */
 692:Middlewares/Third_Party/FreeRTOS/Source/event_groups.c **** 		if( ( uxCurrentEventBits & uxBitsToWaitFor ) == uxBitsToWaitFor )
ARM GAS  C:\Users\KETEN_~1\AppData\Local\Temp\ccIeQTbg.s 			page 14


  49              		.loc 1 692 3 is_stmt 1 view .LVU8
  50              		.loc 1 692 5 is_stmt 0 view .LVU9
  51 000a 8143     		bics	r1, r1, r0
  52              	.LVL3:
  53              		.loc 1 692 5 view .LVU10
  54 000c 03D0     		beq	.L5
 673:Middlewares/Third_Party/FreeRTOS/Source/event_groups.c **** 
  55              		.loc 1 673 12 view .LVU11
  56 000e 0020     		movs	r0, #0
  57              	.LVL4:
 673:Middlewares/Third_Party/FreeRTOS/Source/event_groups.c **** 
  58              		.loc 1 673 12 view .LVU12
  59 0010 7047     		bx	lr
  60              	.LVL5:
  61              	.L4:
 681:Middlewares/Third_Party/FreeRTOS/Source/event_groups.c **** 		}
  62              		.loc 1 681 22 view .LVU13
  63 0012 0120     		movs	r0, #1
  64              	.LVL6:
 681:Middlewares/Third_Party/FreeRTOS/Source/event_groups.c **** 		}
  65              		.loc 1 681 22 view .LVU14
  66 0014 7047     		bx	lr
  67              	.LVL7:
  68              	.L5:
 693:Middlewares/Third_Party/FreeRTOS/Source/event_groups.c **** 		{
 694:Middlewares/Third_Party/FreeRTOS/Source/event_groups.c **** 			xWaitConditionMet = pdTRUE;
  69              		.loc 1 694 22 view .LVU15
  70 0016 0120     		movs	r0, #1
  71              	.LVL8:
 695:Middlewares/Third_Party/FreeRTOS/Source/event_groups.c **** 		}
 696:Middlewares/Third_Party/FreeRTOS/Source/event_groups.c **** 		else
 697:Middlewares/Third_Party/FreeRTOS/Source/event_groups.c **** 		{
 698:Middlewares/Third_Party/FreeRTOS/Source/event_groups.c **** 			mtCOVERAGE_TEST_MARKER();
  72              		.loc 1 698 28 is_stmt 1 view .LVU16
 699:Middlewares/Third_Party/FreeRTOS/Source/event_groups.c **** 		}
 700:Middlewares/Third_Party/FreeRTOS/Source/event_groups.c **** 	}
 701:Middlewares/Third_Party/FreeRTOS/Source/event_groups.c **** 
 702:Middlewares/Third_Party/FreeRTOS/Source/event_groups.c **** 	return xWaitConditionMet;
  73              		.loc 1 702 2 view .LVU17
 703:Middlewares/Third_Party/FreeRTOS/Source/event_groups.c **** }
  74              		.loc 1 703 1 is_stmt 0 view .LVU18
  75 0018 7047     		bx	lr
  76              		.cfi_endproc
  77              	.LFE15:
  79              		.section	.text.xEventGroupCreateStatic,"ax",%progbits
  80              		.align	1
  81              		.global	xEventGroupCreateStatic
  82              		.syntax unified
  83              		.thumb
  84              		.thumb_func
  86              	xEventGroupCreateStatic:
  87              	.LVL9:
  88              	.LFB4:
  94:Middlewares/Third_Party/FreeRTOS/Source/event_groups.c **** 	EventGroup_t *pxEventBits;
  89              		.loc 1 94 2 is_stmt 1 view -0
  90              		.cfi_startproc
  91              		@ args = 0, pretend = 0, frame = 8
ARM GAS  C:\Users\KETEN_~1\AppData\Local\Temp\ccIeQTbg.s 			page 15


  92              		@ frame_needed = 0, uses_anonymous_args = 0
  95:Middlewares/Third_Party/FreeRTOS/Source/event_groups.c **** 
  93              		.loc 1 95 2 view .LVU20
  98:Middlewares/Third_Party/FreeRTOS/Source/event_groups.c **** 
  94              		.loc 1 98 3 view .LVU21
  95 0000 80B1     		cbz	r0, .L13
  94:Middlewares/Third_Party/FreeRTOS/Source/event_groups.c **** 	EventGroup_t *pxEventBits;
  96              		.loc 1 94 2 is_stmt 0 view .LVU22
  97 0002 10B5     		push	{r4, lr}
  98              	.LCFI0:
  99              		.cfi_def_cfa_offset 8
 100              		.cfi_offset 4, -8
 101              		.cfi_offset 14, -4
 102 0004 82B0     		sub	sp, sp, #8
 103              	.LCFI1:
 104              		.cfi_def_cfa_offset 16
 105 0006 0446     		mov	r4, r0
  98:Middlewares/Third_Party/FreeRTOS/Source/event_groups.c **** 
 106              		.loc 1 98 37 is_stmt 1 discriminator 2 view .LVU23
 107              	.LBB36:
 105:Middlewares/Third_Party/FreeRTOS/Source/event_groups.c **** 			configASSERT( xSize == sizeof( EventGroup_t ) );
 108              		.loc 1 105 4 view .LVU24
 105:Middlewares/Third_Party/FreeRTOS/Source/event_groups.c **** 			configASSERT( xSize == sizeof( EventGroup_t ) );
 109              		.loc 1 105 20 is_stmt 0 view .LVU25
 110 0008 2023     		movs	r3, #32
 111 000a 0193     		str	r3, [sp, #4]
 106:Middlewares/Third_Party/FreeRTOS/Source/event_groups.c **** 		} /*lint !e529 xSize is referenced if configASSERT() is defined. */
 112              		.loc 1 106 4 is_stmt 1 view .LVU26
 113 000c 019B     		ldr	r3, [sp, #4]
 114 000e 202B     		cmp	r3, #32
 115 0010 11D0     		beq	.L9
 106:Middlewares/Third_Party/FreeRTOS/Source/event_groups.c **** 		} /*lint !e529 xSize is referenced if configASSERT() is defined. */
 116              		.loc 1 106 4 discriminator 1 view .LVU27
 117              	.LBB37:
 118              	.LBI37:
 119              		.file 2 "Middlewares/Third_Party/FreeRTOS/Source/portable/GCC/ARM_CM4F/portmacro.h"
   1:Middlewares/Third_Party/FreeRTOS/Source/portable/GCC/ARM_CM4F/portmacro.h **** /*
   2:Middlewares/Third_Party/FreeRTOS/Source/portable/GCC/ARM_CM4F/portmacro.h ****  * FreeRTOS Kernel V10.3.1
   3:Middlewares/Third_Party/FreeRTOS/Source/portable/GCC/ARM_CM4F/portmacro.h ****  * Copyright (C) 2020 Amazon.com, Inc. or its affiliates.  All Rights Reserved.
   4:Middlewares/Third_Party/FreeRTOS/Source/portable/GCC/ARM_CM4F/portmacro.h ****  *
   5:Middlewares/Third_Party/FreeRTOS/Source/portable/GCC/ARM_CM4F/portmacro.h ****  * Permission is hereby granted, free of charge, to any person obtaining a copy of
   6:Middlewares/Third_Party/FreeRTOS/Source/portable/GCC/ARM_CM4F/portmacro.h ****  * this software and associated documentation files (the "Software"), to deal in
   7:Middlewares/Third_Party/FreeRTOS/Source/portable/GCC/ARM_CM4F/portmacro.h ****  * the Software without restriction, including without limitation the rights to
   8:Middlewares/Third_Party/FreeRTOS/Source/portable/GCC/ARM_CM4F/portmacro.h ****  * use, copy, modify, merge, publish, distribute, sublicense, and/or sell copies of
   9:Middlewares/Third_Party/FreeRTOS/Source/portable/GCC/ARM_CM4F/portmacro.h ****  * the Software, and to permit persons to whom the Software is furnished to do so,
  10:Middlewares/Third_Party/FreeRTOS/Source/portable/GCC/ARM_CM4F/portmacro.h ****  * subject to the following conditions:
  11:Middlewares/Third_Party/FreeRTOS/Source/portable/GCC/ARM_CM4F/portmacro.h ****  *
  12:Middlewares/Third_Party/FreeRTOS/Source/portable/GCC/ARM_CM4F/portmacro.h ****  * The above copyright notice and this permission notice shall be included in all
  13:Middlewares/Third_Party/FreeRTOS/Source/portable/GCC/ARM_CM4F/portmacro.h ****  * copies or substantial portions of the Software.
  14:Middlewares/Third_Party/FreeRTOS/Source/portable/GCC/ARM_CM4F/portmacro.h ****  *
  15:Middlewares/Third_Party/FreeRTOS/Source/portable/GCC/ARM_CM4F/portmacro.h ****  * THE SOFTWARE IS PROVIDED "AS IS", WITHOUT WARRANTY OF ANY KIND, EXPRESS OR
  16:Middlewares/Third_Party/FreeRTOS/Source/portable/GCC/ARM_CM4F/portmacro.h ****  * IMPLIED, INCLUDING BUT NOT LIMITED TO THE WARRANTIES OF MERCHANTABILITY, FITNESS
  17:Middlewares/Third_Party/FreeRTOS/Source/portable/GCC/ARM_CM4F/portmacro.h ****  * FOR A PARTICULAR PURPOSE AND NONINFRINGEMENT. IN NO EVENT SHALL THE AUTHORS OR
  18:Middlewares/Third_Party/FreeRTOS/Source/portable/GCC/ARM_CM4F/portmacro.h ****  * COPYRIGHT HOLDERS BE LIABLE FOR ANY CLAIM, DAMAGES OR OTHER LIABILITY, WHETHER
  19:Middlewares/Third_Party/FreeRTOS/Source/portable/GCC/ARM_CM4F/portmacro.h ****  * IN AN ACTION OF CONTRACT, TORT OR OTHERWISE, ARISING FROM, OUT OF OR IN
  20:Middlewares/Third_Party/FreeRTOS/Source/portable/GCC/ARM_CM4F/portmacro.h ****  * CONNECTION WITH THE SOFTWARE OR THE USE OR OTHER DEALINGS IN THE SOFTWARE.
  21:Middlewares/Third_Party/FreeRTOS/Source/portable/GCC/ARM_CM4F/portmacro.h ****  *
ARM GAS  C:\Users\KETEN_~1\AppData\Local\Temp\ccIeQTbg.s 			page 16


  22:Middlewares/Third_Party/FreeRTOS/Source/portable/GCC/ARM_CM4F/portmacro.h ****  * http://www.FreeRTOS.org
  23:Middlewares/Third_Party/FreeRTOS/Source/portable/GCC/ARM_CM4F/portmacro.h ****  * http://aws.amazon.com/freertos
  24:Middlewares/Third_Party/FreeRTOS/Source/portable/GCC/ARM_CM4F/portmacro.h ****  *
  25:Middlewares/Third_Party/FreeRTOS/Source/portable/GCC/ARM_CM4F/portmacro.h ****  * 1 tab == 4 spaces!
  26:Middlewares/Third_Party/FreeRTOS/Source/portable/GCC/ARM_CM4F/portmacro.h ****  */
  27:Middlewares/Third_Party/FreeRTOS/Source/portable/GCC/ARM_CM4F/portmacro.h **** 
  28:Middlewares/Third_Party/FreeRTOS/Source/portable/GCC/ARM_CM4F/portmacro.h **** 
  29:Middlewares/Third_Party/FreeRTOS/Source/portable/GCC/ARM_CM4F/portmacro.h **** #ifndef PORTMACRO_H
  30:Middlewares/Third_Party/FreeRTOS/Source/portable/GCC/ARM_CM4F/portmacro.h **** #define PORTMACRO_H
  31:Middlewares/Third_Party/FreeRTOS/Source/portable/GCC/ARM_CM4F/portmacro.h **** 
  32:Middlewares/Third_Party/FreeRTOS/Source/portable/GCC/ARM_CM4F/portmacro.h **** #ifdef __cplusplus
  33:Middlewares/Third_Party/FreeRTOS/Source/portable/GCC/ARM_CM4F/portmacro.h **** extern "C" {
  34:Middlewares/Third_Party/FreeRTOS/Source/portable/GCC/ARM_CM4F/portmacro.h **** #endif
  35:Middlewares/Third_Party/FreeRTOS/Source/portable/GCC/ARM_CM4F/portmacro.h **** 
  36:Middlewares/Third_Party/FreeRTOS/Source/portable/GCC/ARM_CM4F/portmacro.h **** /*-----------------------------------------------------------
  37:Middlewares/Third_Party/FreeRTOS/Source/portable/GCC/ARM_CM4F/portmacro.h ****  * Port specific definitions.
  38:Middlewares/Third_Party/FreeRTOS/Source/portable/GCC/ARM_CM4F/portmacro.h ****  *
  39:Middlewares/Third_Party/FreeRTOS/Source/portable/GCC/ARM_CM4F/portmacro.h ****  * The settings in this file configure FreeRTOS correctly for the
  40:Middlewares/Third_Party/FreeRTOS/Source/portable/GCC/ARM_CM4F/portmacro.h ****  * given hardware and compiler.
  41:Middlewares/Third_Party/FreeRTOS/Source/portable/GCC/ARM_CM4F/portmacro.h ****  *
  42:Middlewares/Third_Party/FreeRTOS/Source/portable/GCC/ARM_CM4F/portmacro.h ****  * These settings should not be altered.
  43:Middlewares/Third_Party/FreeRTOS/Source/portable/GCC/ARM_CM4F/portmacro.h ****  *-----------------------------------------------------------
  44:Middlewares/Third_Party/FreeRTOS/Source/portable/GCC/ARM_CM4F/portmacro.h ****  */
  45:Middlewares/Third_Party/FreeRTOS/Source/portable/GCC/ARM_CM4F/portmacro.h **** 
  46:Middlewares/Third_Party/FreeRTOS/Source/portable/GCC/ARM_CM4F/portmacro.h **** /* Type definitions. */
  47:Middlewares/Third_Party/FreeRTOS/Source/portable/GCC/ARM_CM4F/portmacro.h **** #define portCHAR		char
  48:Middlewares/Third_Party/FreeRTOS/Source/portable/GCC/ARM_CM4F/portmacro.h **** #define portFLOAT		float
  49:Middlewares/Third_Party/FreeRTOS/Source/portable/GCC/ARM_CM4F/portmacro.h **** #define portDOUBLE		double
  50:Middlewares/Third_Party/FreeRTOS/Source/portable/GCC/ARM_CM4F/portmacro.h **** #define portLONG		long
  51:Middlewares/Third_Party/FreeRTOS/Source/portable/GCC/ARM_CM4F/portmacro.h **** #define portSHORT		short
  52:Middlewares/Third_Party/FreeRTOS/Source/portable/GCC/ARM_CM4F/portmacro.h **** #define portSTACK_TYPE	uint32_t
  53:Middlewares/Third_Party/FreeRTOS/Source/portable/GCC/ARM_CM4F/portmacro.h **** #define portBASE_TYPE	long
  54:Middlewares/Third_Party/FreeRTOS/Source/portable/GCC/ARM_CM4F/portmacro.h **** 
  55:Middlewares/Third_Party/FreeRTOS/Source/portable/GCC/ARM_CM4F/portmacro.h **** typedef portSTACK_TYPE StackType_t;
  56:Middlewares/Third_Party/FreeRTOS/Source/portable/GCC/ARM_CM4F/portmacro.h **** typedef long BaseType_t;
  57:Middlewares/Third_Party/FreeRTOS/Source/portable/GCC/ARM_CM4F/portmacro.h **** typedef unsigned long UBaseType_t;
  58:Middlewares/Third_Party/FreeRTOS/Source/portable/GCC/ARM_CM4F/portmacro.h **** 
  59:Middlewares/Third_Party/FreeRTOS/Source/portable/GCC/ARM_CM4F/portmacro.h **** #if( configUSE_16_BIT_TICKS == 1 )
  60:Middlewares/Third_Party/FreeRTOS/Source/portable/GCC/ARM_CM4F/portmacro.h **** 	typedef uint16_t TickType_t;
  61:Middlewares/Third_Party/FreeRTOS/Source/portable/GCC/ARM_CM4F/portmacro.h **** 	#define portMAX_DELAY ( TickType_t ) 0xffff
  62:Middlewares/Third_Party/FreeRTOS/Source/portable/GCC/ARM_CM4F/portmacro.h **** #else
  63:Middlewares/Third_Party/FreeRTOS/Source/portable/GCC/ARM_CM4F/portmacro.h **** 	typedef uint32_t TickType_t;
  64:Middlewares/Third_Party/FreeRTOS/Source/portable/GCC/ARM_CM4F/portmacro.h **** 	#define portMAX_DELAY ( TickType_t ) 0xffffffffUL
  65:Middlewares/Third_Party/FreeRTOS/Source/portable/GCC/ARM_CM4F/portmacro.h **** 
  66:Middlewares/Third_Party/FreeRTOS/Source/portable/GCC/ARM_CM4F/portmacro.h **** 	/* 32-bit tick type on a 32-bit architecture, so reads of the tick count do
  67:Middlewares/Third_Party/FreeRTOS/Source/portable/GCC/ARM_CM4F/portmacro.h **** 	not need to be guarded with a critical section. */
  68:Middlewares/Third_Party/FreeRTOS/Source/portable/GCC/ARM_CM4F/portmacro.h **** 	#define portTICK_TYPE_IS_ATOMIC 1
  69:Middlewares/Third_Party/FreeRTOS/Source/portable/GCC/ARM_CM4F/portmacro.h **** #endif
  70:Middlewares/Third_Party/FreeRTOS/Source/portable/GCC/ARM_CM4F/portmacro.h **** /*-----------------------------------------------------------*/
  71:Middlewares/Third_Party/FreeRTOS/Source/portable/GCC/ARM_CM4F/portmacro.h **** 
  72:Middlewares/Third_Party/FreeRTOS/Source/portable/GCC/ARM_CM4F/portmacro.h **** /* Architecture specifics. */
  73:Middlewares/Third_Party/FreeRTOS/Source/portable/GCC/ARM_CM4F/portmacro.h **** #define portSTACK_GROWTH			( -1 )
  74:Middlewares/Third_Party/FreeRTOS/Source/portable/GCC/ARM_CM4F/portmacro.h **** #define portTICK_PERIOD_MS			( ( TickType_t ) 1000 / configTICK_RATE_HZ )
  75:Middlewares/Third_Party/FreeRTOS/Source/portable/GCC/ARM_CM4F/portmacro.h **** #define portBYTE_ALIGNMENT			8
  76:Middlewares/Third_Party/FreeRTOS/Source/portable/GCC/ARM_CM4F/portmacro.h **** /*-----------------------------------------------------------*/
  77:Middlewares/Third_Party/FreeRTOS/Source/portable/GCC/ARM_CM4F/portmacro.h **** 
  78:Middlewares/Third_Party/FreeRTOS/Source/portable/GCC/ARM_CM4F/portmacro.h **** /* Scheduler utilities. */
ARM GAS  C:\Users\KETEN_~1\AppData\Local\Temp\ccIeQTbg.s 			page 17


  79:Middlewares/Third_Party/FreeRTOS/Source/portable/GCC/ARM_CM4F/portmacro.h **** #define portYIELD() 															\
  80:Middlewares/Third_Party/FreeRTOS/Source/portable/GCC/ARM_CM4F/portmacro.h **** {																				\
  81:Middlewares/Third_Party/FreeRTOS/Source/portable/GCC/ARM_CM4F/portmacro.h **** 	/* Set a PendSV to request a context switch. */								\
  82:Middlewares/Third_Party/FreeRTOS/Source/portable/GCC/ARM_CM4F/portmacro.h **** 	portNVIC_INT_CTRL_REG = portNVIC_PENDSVSET_BIT;								\
  83:Middlewares/Third_Party/FreeRTOS/Source/portable/GCC/ARM_CM4F/portmacro.h **** 																				\
  84:Middlewares/Third_Party/FreeRTOS/Source/portable/GCC/ARM_CM4F/portmacro.h **** 	/* Barriers are normally not required but do ensure the code is completely	\
  85:Middlewares/Third_Party/FreeRTOS/Source/portable/GCC/ARM_CM4F/portmacro.h **** 	within the specified behaviour for the architecture. */						\
  86:Middlewares/Third_Party/FreeRTOS/Source/portable/GCC/ARM_CM4F/portmacro.h **** 	__asm volatile( "dsb" ::: "memory" );										\
  87:Middlewares/Third_Party/FreeRTOS/Source/portable/GCC/ARM_CM4F/portmacro.h **** 	__asm volatile( "isb" );													\
  88:Middlewares/Third_Party/FreeRTOS/Source/portable/GCC/ARM_CM4F/portmacro.h **** }
  89:Middlewares/Third_Party/FreeRTOS/Source/portable/GCC/ARM_CM4F/portmacro.h **** 
  90:Middlewares/Third_Party/FreeRTOS/Source/portable/GCC/ARM_CM4F/portmacro.h **** #define portNVIC_INT_CTRL_REG		( * ( ( volatile uint32_t * ) 0xe000ed04 ) )
  91:Middlewares/Third_Party/FreeRTOS/Source/portable/GCC/ARM_CM4F/portmacro.h **** #define portNVIC_PENDSVSET_BIT		( 1UL << 28UL )
  92:Middlewares/Third_Party/FreeRTOS/Source/portable/GCC/ARM_CM4F/portmacro.h **** #define portEND_SWITCHING_ISR( xSwitchRequired ) if( xSwitchRequired != pdFALSE ) portYIELD()
  93:Middlewares/Third_Party/FreeRTOS/Source/portable/GCC/ARM_CM4F/portmacro.h **** #define portYIELD_FROM_ISR( x ) portEND_SWITCHING_ISR( x )
  94:Middlewares/Third_Party/FreeRTOS/Source/portable/GCC/ARM_CM4F/portmacro.h **** /*-----------------------------------------------------------*/
  95:Middlewares/Third_Party/FreeRTOS/Source/portable/GCC/ARM_CM4F/portmacro.h **** 
  96:Middlewares/Third_Party/FreeRTOS/Source/portable/GCC/ARM_CM4F/portmacro.h **** /* Critical section management. */
  97:Middlewares/Third_Party/FreeRTOS/Source/portable/GCC/ARM_CM4F/portmacro.h **** extern void vPortEnterCritical( void );
  98:Middlewares/Third_Party/FreeRTOS/Source/portable/GCC/ARM_CM4F/portmacro.h **** extern void vPortExitCritical( void );
  99:Middlewares/Third_Party/FreeRTOS/Source/portable/GCC/ARM_CM4F/portmacro.h **** #define portSET_INTERRUPT_MASK_FROM_ISR()		ulPortRaiseBASEPRI()
 100:Middlewares/Third_Party/FreeRTOS/Source/portable/GCC/ARM_CM4F/portmacro.h **** #define portCLEAR_INTERRUPT_MASK_FROM_ISR(x)	vPortSetBASEPRI(x)
 101:Middlewares/Third_Party/FreeRTOS/Source/portable/GCC/ARM_CM4F/portmacro.h **** #define portDISABLE_INTERRUPTS()				vPortRaiseBASEPRI()
 102:Middlewares/Third_Party/FreeRTOS/Source/portable/GCC/ARM_CM4F/portmacro.h **** #define portENABLE_INTERRUPTS()					vPortSetBASEPRI(0)
 103:Middlewares/Third_Party/FreeRTOS/Source/portable/GCC/ARM_CM4F/portmacro.h **** #define portENTER_CRITICAL()					vPortEnterCritical()
 104:Middlewares/Third_Party/FreeRTOS/Source/portable/GCC/ARM_CM4F/portmacro.h **** #define portEXIT_CRITICAL()						vPortExitCritical()
 105:Middlewares/Third_Party/FreeRTOS/Source/portable/GCC/ARM_CM4F/portmacro.h **** 
 106:Middlewares/Third_Party/FreeRTOS/Source/portable/GCC/ARM_CM4F/portmacro.h **** /*-----------------------------------------------------------*/
 107:Middlewares/Third_Party/FreeRTOS/Source/portable/GCC/ARM_CM4F/portmacro.h **** 
 108:Middlewares/Third_Party/FreeRTOS/Source/portable/GCC/ARM_CM4F/portmacro.h **** /* Task function macros as described on the FreeRTOS.org WEB site.  These are
 109:Middlewares/Third_Party/FreeRTOS/Source/portable/GCC/ARM_CM4F/portmacro.h **** not necessary for to use this port.  They are defined so the common demo files
 110:Middlewares/Third_Party/FreeRTOS/Source/portable/GCC/ARM_CM4F/portmacro.h **** (which build with all the ports) will build. */
 111:Middlewares/Third_Party/FreeRTOS/Source/portable/GCC/ARM_CM4F/portmacro.h **** #define portTASK_FUNCTION_PROTO( vFunction, pvParameters ) void vFunction( void *pvParameters )
 112:Middlewares/Third_Party/FreeRTOS/Source/portable/GCC/ARM_CM4F/portmacro.h **** #define portTASK_FUNCTION( vFunction, pvParameters ) void vFunction( void *pvParameters )
 113:Middlewares/Third_Party/FreeRTOS/Source/portable/GCC/ARM_CM4F/portmacro.h **** /*-----------------------------------------------------------*/
 114:Middlewares/Third_Party/FreeRTOS/Source/portable/GCC/ARM_CM4F/portmacro.h **** 
 115:Middlewares/Third_Party/FreeRTOS/Source/portable/GCC/ARM_CM4F/portmacro.h **** /* Tickless idle/low power functionality. */
 116:Middlewares/Third_Party/FreeRTOS/Source/portable/GCC/ARM_CM4F/portmacro.h **** #ifndef portSUPPRESS_TICKS_AND_SLEEP
 117:Middlewares/Third_Party/FreeRTOS/Source/portable/GCC/ARM_CM4F/portmacro.h **** 	extern void vPortSuppressTicksAndSleep( TickType_t xExpectedIdleTime );
 118:Middlewares/Third_Party/FreeRTOS/Source/portable/GCC/ARM_CM4F/portmacro.h **** 	#define portSUPPRESS_TICKS_AND_SLEEP( xExpectedIdleTime ) vPortSuppressTicksAndSleep( xExpectedIdl
 119:Middlewares/Third_Party/FreeRTOS/Source/portable/GCC/ARM_CM4F/portmacro.h **** #endif
 120:Middlewares/Third_Party/FreeRTOS/Source/portable/GCC/ARM_CM4F/portmacro.h **** /*-----------------------------------------------------------*/
 121:Middlewares/Third_Party/FreeRTOS/Source/portable/GCC/ARM_CM4F/portmacro.h **** 
 122:Middlewares/Third_Party/FreeRTOS/Source/portable/GCC/ARM_CM4F/portmacro.h **** /* Architecture specific optimisations. */
 123:Middlewares/Third_Party/FreeRTOS/Source/portable/GCC/ARM_CM4F/portmacro.h **** #ifndef configUSE_PORT_OPTIMISED_TASK_SELECTION
 124:Middlewares/Third_Party/FreeRTOS/Source/portable/GCC/ARM_CM4F/portmacro.h **** 	#define configUSE_PORT_OPTIMISED_TASK_SELECTION 1
 125:Middlewares/Third_Party/FreeRTOS/Source/portable/GCC/ARM_CM4F/portmacro.h **** #endif
 126:Middlewares/Third_Party/FreeRTOS/Source/portable/GCC/ARM_CM4F/portmacro.h **** 
 127:Middlewares/Third_Party/FreeRTOS/Source/portable/GCC/ARM_CM4F/portmacro.h **** #if configUSE_PORT_OPTIMISED_TASK_SELECTION == 1
 128:Middlewares/Third_Party/FreeRTOS/Source/portable/GCC/ARM_CM4F/portmacro.h **** 
 129:Middlewares/Third_Party/FreeRTOS/Source/portable/GCC/ARM_CM4F/portmacro.h **** 	/* Generic helper function. */
 130:Middlewares/Third_Party/FreeRTOS/Source/portable/GCC/ARM_CM4F/portmacro.h **** 	__attribute__( ( always_inline ) ) static inline uint8_t ucPortCountLeadingZeros( uint32_t ulBitma
 131:Middlewares/Third_Party/FreeRTOS/Source/portable/GCC/ARM_CM4F/portmacro.h **** 	{
 132:Middlewares/Third_Party/FreeRTOS/Source/portable/GCC/ARM_CM4F/portmacro.h **** 	uint8_t ucReturn;
 133:Middlewares/Third_Party/FreeRTOS/Source/portable/GCC/ARM_CM4F/portmacro.h **** 
 134:Middlewares/Third_Party/FreeRTOS/Source/portable/GCC/ARM_CM4F/portmacro.h **** 		__asm volatile ( "clz %0, %1" : "=r" ( ucReturn ) : "r" ( ulBitmap ) : "memory" );
 135:Middlewares/Third_Party/FreeRTOS/Source/portable/GCC/ARM_CM4F/portmacro.h **** 		return ucReturn;
ARM GAS  C:\Users\KETEN_~1\AppData\Local\Temp\ccIeQTbg.s 			page 18


 136:Middlewares/Third_Party/FreeRTOS/Source/portable/GCC/ARM_CM4F/portmacro.h **** 	}
 137:Middlewares/Third_Party/FreeRTOS/Source/portable/GCC/ARM_CM4F/portmacro.h **** 
 138:Middlewares/Third_Party/FreeRTOS/Source/portable/GCC/ARM_CM4F/portmacro.h **** 	/* Check the configuration. */
 139:Middlewares/Third_Party/FreeRTOS/Source/portable/GCC/ARM_CM4F/portmacro.h **** 	#if( configMAX_PRIORITIES > 32 )
 140:Middlewares/Third_Party/FreeRTOS/Source/portable/GCC/ARM_CM4F/portmacro.h **** 		#error configUSE_PORT_OPTIMISED_TASK_SELECTION can only be set to 1 when configMAX_PRIORITIES is 
 141:Middlewares/Third_Party/FreeRTOS/Source/portable/GCC/ARM_CM4F/portmacro.h **** 	#endif
 142:Middlewares/Third_Party/FreeRTOS/Source/portable/GCC/ARM_CM4F/portmacro.h **** 
 143:Middlewares/Third_Party/FreeRTOS/Source/portable/GCC/ARM_CM4F/portmacro.h **** 	/* Store/clear the ready priorities in a bit map. */
 144:Middlewares/Third_Party/FreeRTOS/Source/portable/GCC/ARM_CM4F/portmacro.h **** 	#define portRECORD_READY_PRIORITY( uxPriority, uxReadyPriorities ) ( uxReadyPriorities ) |= ( 1UL 
 145:Middlewares/Third_Party/FreeRTOS/Source/portable/GCC/ARM_CM4F/portmacro.h **** 	#define portRESET_READY_PRIORITY( uxPriority, uxReadyPriorities ) ( uxReadyPriorities ) &= ~( 1UL 
 146:Middlewares/Third_Party/FreeRTOS/Source/portable/GCC/ARM_CM4F/portmacro.h **** 
 147:Middlewares/Third_Party/FreeRTOS/Source/portable/GCC/ARM_CM4F/portmacro.h **** 	/*-----------------------------------------------------------*/
 148:Middlewares/Third_Party/FreeRTOS/Source/portable/GCC/ARM_CM4F/portmacro.h **** 
 149:Middlewares/Third_Party/FreeRTOS/Source/portable/GCC/ARM_CM4F/portmacro.h **** 	#define portGET_HIGHEST_PRIORITY( uxTopPriority, uxReadyPriorities ) uxTopPriority = ( 31UL - ( ui
 150:Middlewares/Third_Party/FreeRTOS/Source/portable/GCC/ARM_CM4F/portmacro.h **** 
 151:Middlewares/Third_Party/FreeRTOS/Source/portable/GCC/ARM_CM4F/portmacro.h **** #endif /* configUSE_PORT_OPTIMISED_TASK_SELECTION */
 152:Middlewares/Third_Party/FreeRTOS/Source/portable/GCC/ARM_CM4F/portmacro.h **** 
 153:Middlewares/Third_Party/FreeRTOS/Source/portable/GCC/ARM_CM4F/portmacro.h **** /*-----------------------------------------------------------*/
 154:Middlewares/Third_Party/FreeRTOS/Source/portable/GCC/ARM_CM4F/portmacro.h **** 
 155:Middlewares/Third_Party/FreeRTOS/Source/portable/GCC/ARM_CM4F/portmacro.h **** #ifdef configASSERT
 156:Middlewares/Third_Party/FreeRTOS/Source/portable/GCC/ARM_CM4F/portmacro.h **** 	void vPortValidateInterruptPriority( void );
 157:Middlewares/Third_Party/FreeRTOS/Source/portable/GCC/ARM_CM4F/portmacro.h **** 	#define portASSERT_IF_INTERRUPT_PRIORITY_INVALID() 	vPortValidateInterruptPriority()
 158:Middlewares/Third_Party/FreeRTOS/Source/portable/GCC/ARM_CM4F/portmacro.h **** #endif
 159:Middlewares/Third_Party/FreeRTOS/Source/portable/GCC/ARM_CM4F/portmacro.h **** 
 160:Middlewares/Third_Party/FreeRTOS/Source/portable/GCC/ARM_CM4F/portmacro.h **** /* portNOP() is not required by this port. */
 161:Middlewares/Third_Party/FreeRTOS/Source/portable/GCC/ARM_CM4F/portmacro.h **** #define portNOP()
 162:Middlewares/Third_Party/FreeRTOS/Source/portable/GCC/ARM_CM4F/portmacro.h **** 
 163:Middlewares/Third_Party/FreeRTOS/Source/portable/GCC/ARM_CM4F/portmacro.h **** #define portINLINE	__inline
 164:Middlewares/Third_Party/FreeRTOS/Source/portable/GCC/ARM_CM4F/portmacro.h **** 
 165:Middlewares/Third_Party/FreeRTOS/Source/portable/GCC/ARM_CM4F/portmacro.h **** #ifndef portFORCE_INLINE
 166:Middlewares/Third_Party/FreeRTOS/Source/portable/GCC/ARM_CM4F/portmacro.h **** 	#define portFORCE_INLINE inline __attribute__(( always_inline))
 167:Middlewares/Third_Party/FreeRTOS/Source/portable/GCC/ARM_CM4F/portmacro.h **** #endif
 168:Middlewares/Third_Party/FreeRTOS/Source/portable/GCC/ARM_CM4F/portmacro.h **** 
 169:Middlewares/Third_Party/FreeRTOS/Source/portable/GCC/ARM_CM4F/portmacro.h **** portFORCE_INLINE static BaseType_t xPortIsInsideInterrupt( void )
 170:Middlewares/Third_Party/FreeRTOS/Source/portable/GCC/ARM_CM4F/portmacro.h **** {
 171:Middlewares/Third_Party/FreeRTOS/Source/portable/GCC/ARM_CM4F/portmacro.h **** uint32_t ulCurrentInterrupt;
 172:Middlewares/Third_Party/FreeRTOS/Source/portable/GCC/ARM_CM4F/portmacro.h **** BaseType_t xReturn;
 173:Middlewares/Third_Party/FreeRTOS/Source/portable/GCC/ARM_CM4F/portmacro.h **** 
 174:Middlewares/Third_Party/FreeRTOS/Source/portable/GCC/ARM_CM4F/portmacro.h **** 	/* Obtain the number of the currently executing interrupt. */
 175:Middlewares/Third_Party/FreeRTOS/Source/portable/GCC/ARM_CM4F/portmacro.h **** 	__asm volatile( "mrs %0, ipsr" : "=r"( ulCurrentInterrupt ) :: "memory" );
 176:Middlewares/Third_Party/FreeRTOS/Source/portable/GCC/ARM_CM4F/portmacro.h **** 
 177:Middlewares/Third_Party/FreeRTOS/Source/portable/GCC/ARM_CM4F/portmacro.h **** 	if( ulCurrentInterrupt == 0 )
 178:Middlewares/Third_Party/FreeRTOS/Source/portable/GCC/ARM_CM4F/portmacro.h **** 	{
 179:Middlewares/Third_Party/FreeRTOS/Source/portable/GCC/ARM_CM4F/portmacro.h **** 		xReturn = pdFALSE;
 180:Middlewares/Third_Party/FreeRTOS/Source/portable/GCC/ARM_CM4F/portmacro.h **** 	}
 181:Middlewares/Third_Party/FreeRTOS/Source/portable/GCC/ARM_CM4F/portmacro.h **** 	else
 182:Middlewares/Third_Party/FreeRTOS/Source/portable/GCC/ARM_CM4F/portmacro.h **** 	{
 183:Middlewares/Third_Party/FreeRTOS/Source/portable/GCC/ARM_CM4F/portmacro.h **** 		xReturn = pdTRUE;
 184:Middlewares/Third_Party/FreeRTOS/Source/portable/GCC/ARM_CM4F/portmacro.h **** 	}
 185:Middlewares/Third_Party/FreeRTOS/Source/portable/GCC/ARM_CM4F/portmacro.h **** 
 186:Middlewares/Third_Party/FreeRTOS/Source/portable/GCC/ARM_CM4F/portmacro.h **** 	return xReturn;
 187:Middlewares/Third_Party/FreeRTOS/Source/portable/GCC/ARM_CM4F/portmacro.h **** }
 188:Middlewares/Third_Party/FreeRTOS/Source/portable/GCC/ARM_CM4F/portmacro.h **** 
 189:Middlewares/Third_Party/FreeRTOS/Source/portable/GCC/ARM_CM4F/portmacro.h **** /*-----------------------------------------------------------*/
 190:Middlewares/Third_Party/FreeRTOS/Source/portable/GCC/ARM_CM4F/portmacro.h **** 
 191:Middlewares/Third_Party/FreeRTOS/Source/portable/GCC/ARM_CM4F/portmacro.h **** portFORCE_INLINE static void vPortRaiseBASEPRI( void )
 120              		.loc 2 191 30 view .LVU28
ARM GAS  C:\Users\KETEN_~1\AppData\Local\Temp\ccIeQTbg.s 			page 19


 121              	.LBB38:
 192:Middlewares/Third_Party/FreeRTOS/Source/portable/GCC/ARM_CM4F/portmacro.h **** {
 193:Middlewares/Third_Party/FreeRTOS/Source/portable/GCC/ARM_CM4F/portmacro.h **** uint32_t ulNewBASEPRI;
 122              		.loc 2 193 1 view .LVU29
 194:Middlewares/Third_Party/FreeRTOS/Source/portable/GCC/ARM_CM4F/portmacro.h **** 
 195:Middlewares/Third_Party/FreeRTOS/Source/portable/GCC/ARM_CM4F/portmacro.h **** 	__asm volatile
 123              		.loc 2 195 2 view .LVU30
 124              		.syntax unified
 125              	@ 195 "Middlewares/Third_Party/FreeRTOS/Source/portable/GCC/ARM_CM4F/portmacro.h" 1
 126 0012 4FF05003 			mov r3, #80												
 127 0016 83F31188 		msr basepri, r3											
 128 001a BFF36F8F 		isb														
 129 001e BFF34F8F 		dsb														
 130              	
 131              	@ 0 "" 2
 132              		.thumb
 133              		.syntax unified
 134              	.L10:
 135              	.LBE38:
 136              	.LBE37:
 106:Middlewares/Third_Party/FreeRTOS/Source/event_groups.c **** 		} /*lint !e529 xSize is referenced if configASSERT() is defined. */
 137              		.loc 1 106 4 discriminator 3 view .LVU31
 106:Middlewares/Third_Party/FreeRTOS/Source/event_groups.c **** 		} /*lint !e529 xSize is referenced if configASSERT() is defined. */
 138              		.loc 1 106 4 discriminator 3 view .LVU32
 139 0022 FEE7     		b	.L10
 140              	.L13:
 141              	.LCFI2:
 142              		.cfi_def_cfa_offset 0
 143              		.cfi_restore 4
 144              		.cfi_restore 14
 106:Middlewares/Third_Party/FreeRTOS/Source/event_groups.c **** 		} /*lint !e529 xSize is referenced if configASSERT() is defined. */
 145              		.loc 1 106 4 is_stmt 0 discriminator 3 view .LVU33
 146              	.LBE36:
  98:Middlewares/Third_Party/FreeRTOS/Source/event_groups.c **** 
 147              		.loc 1 98 3 is_stmt 1 discriminator 1 view .LVU34
 148              	.LBB39:
 149              	.LBI39:
 191:Middlewares/Third_Party/FreeRTOS/Source/portable/GCC/ARM_CM4F/portmacro.h **** {
 150              		.loc 2 191 30 view .LVU35
 151              	.LBB40:
 193:Middlewares/Third_Party/FreeRTOS/Source/portable/GCC/ARM_CM4F/portmacro.h **** 
 152              		.loc 2 193 1 view .LVU36
 153              		.loc 2 195 2 view .LVU37
 154              		.syntax unified
 155              	@ 195 "Middlewares/Third_Party/FreeRTOS/Source/portable/GCC/ARM_CM4F/portmacro.h" 1
 156 0024 4FF05003 			mov r3, #80												
 157 0028 83F31188 		msr basepri, r3											
 158 002c BFF36F8F 		isb														
 159 0030 BFF34F8F 		dsb														
 160              	
 161              	@ 0 "" 2
 162              		.thumb
 163              		.syntax unified
 164              	.L8:
 165              	.LBE40:
 166              	.LBE39:
  98:Middlewares/Third_Party/FreeRTOS/Source/event_groups.c **** 
ARM GAS  C:\Users\KETEN_~1\AppData\Local\Temp\ccIeQTbg.s 			page 20


 167              		.loc 1 98 3 discriminator 3 view .LVU38
  98:Middlewares/Third_Party/FreeRTOS/Source/event_groups.c **** 
 168              		.loc 1 98 3 discriminator 3 view .LVU39
 169 0034 FEE7     		b	.L8
 170              	.L9:
 171              	.LCFI3:
 172              		.cfi_def_cfa_offset 16
 173              		.cfi_offset 4, -8
 174              		.cfi_offset 14, -4
 175              	.LBB41:
 106:Middlewares/Third_Party/FreeRTOS/Source/event_groups.c **** 		} /*lint !e529 xSize is referenced if configASSERT() is defined. */
 176              		.loc 1 106 51 discriminator 2 view .LVU40
 177              	.LBE41:
 111:Middlewares/Third_Party/FreeRTOS/Source/event_groups.c **** 
 178              		.loc 1 111 3 view .LVU41
 179              	.LVL10:
 113:Middlewares/Third_Party/FreeRTOS/Source/event_groups.c **** 		{
 180              		.loc 1 113 3 view .LVU42
 115:Middlewares/Third_Party/FreeRTOS/Source/event_groups.c **** 			vListInitialise( &( pxEventBits->xTasksWaitingForBits ) );
 181              		.loc 1 115 4 view .LVU43
 115:Middlewares/Third_Party/FreeRTOS/Source/event_groups.c **** 			vListInitialise( &( pxEventBits->xTasksWaitingForBits ) );
 182              		.loc 1 115 29 is_stmt 0 view .LVU44
 183 0036 0023     		movs	r3, #0
 184 0038 40F8043B 		str	r3, [r0], #4
 185              	.LVL11:
 116:Middlewares/Third_Party/FreeRTOS/Source/event_groups.c **** 
 186              		.loc 1 116 4 is_stmt 1 view .LVU45
 187 003c FFF7FEFF 		bl	vListInitialise
 188              	.LVL12:
 123:Middlewares/Third_Party/FreeRTOS/Source/event_groups.c **** 			}
 189              		.loc 1 123 5 view .LVU46
 123:Middlewares/Third_Party/FreeRTOS/Source/event_groups.c **** 			}
 190              		.loc 1 123 40 is_stmt 0 view .LVU47
 191 0040 0123     		movs	r3, #1
 192 0042 2377     		strb	r3, [r4, #28]
 127:Middlewares/Third_Party/FreeRTOS/Source/event_groups.c **** 		}
 193              		.loc 1 127 42 is_stmt 1 view .LVU48
 134:Middlewares/Third_Party/FreeRTOS/Source/event_groups.c **** 		}
 194              		.loc 1 134 36 view .LVU49
 137:Middlewares/Third_Party/FreeRTOS/Source/event_groups.c **** 	}
 195              		.loc 1 137 3 view .LVU50
 138:Middlewares/Third_Party/FreeRTOS/Source/event_groups.c **** 
 196              		.loc 1 138 2 is_stmt 0 view .LVU51
 197 0044 2046     		mov	r0, r4
 198 0046 02B0     		add	sp, sp, #8
 199              	.LCFI4:
 200              		.cfi_def_cfa_offset 8
 201              		@ sp needed
 202 0048 10BD     		pop	{r4, pc}
 138:Middlewares/Third_Party/FreeRTOS/Source/event_groups.c **** 
 203              		.loc 1 138 2 view .LVU52
 204              		.cfi_endproc
 205              	.LFE4:
 207              		.section	.text.xEventGroupCreate,"ax",%progbits
 208              		.align	1
 209              		.global	xEventGroupCreate
 210              		.syntax unified
ARM GAS  C:\Users\KETEN_~1\AppData\Local\Temp\ccIeQTbg.s 			page 21


 211              		.thumb
 212              		.thumb_func
 214              	xEventGroupCreate:
 215              	.LFB5:
 146:Middlewares/Third_Party/FreeRTOS/Source/event_groups.c **** 	EventGroup_t *pxEventBits;
 216              		.loc 1 146 2 is_stmt 1 view -0
 217              		.cfi_startproc
 218              		@ args = 0, pretend = 0, frame = 0
 219              		@ frame_needed = 0, uses_anonymous_args = 0
 220 0000 38B5     		push	{r3, r4, r5, lr}
 221              	.LCFI5:
 222              		.cfi_def_cfa_offset 16
 223              		.cfi_offset 3, -16
 224              		.cfi_offset 4, -12
 225              		.cfi_offset 5, -8
 226              		.cfi_offset 14, -4
 147:Middlewares/Third_Party/FreeRTOS/Source/event_groups.c **** 
 227              		.loc 1 147 2 view .LVU54
 162:Middlewares/Third_Party/FreeRTOS/Source/event_groups.c **** 
 228              		.loc 1 162 3 view .LVU55
 162:Middlewares/Third_Party/FreeRTOS/Source/event_groups.c **** 
 229              		.loc 1 162 36 is_stmt 0 view .LVU56
 230 0002 2020     		movs	r0, #32
 231 0004 FFF7FEFF 		bl	pvPortMalloc
 232              	.LVL13:
 164:Middlewares/Third_Party/FreeRTOS/Source/event_groups.c **** 		{
 233              		.loc 1 164 3 is_stmt 1 view .LVU57
 164:Middlewares/Third_Party/FreeRTOS/Source/event_groups.c **** 		{
 234              		.loc 1 164 5 is_stmt 0 view .LVU58
 235 0008 0446     		mov	r4, r0
 236 000a 28B1     		cbz	r0, .L14
 166:Middlewares/Third_Party/FreeRTOS/Source/event_groups.c **** 			vListInitialise( &( pxEventBits->xTasksWaitingForBits ) );
 237              		.loc 1 166 4 is_stmt 1 view .LVU59
 166:Middlewares/Third_Party/FreeRTOS/Source/event_groups.c **** 			vListInitialise( &( pxEventBits->xTasksWaitingForBits ) );
 238              		.loc 1 166 29 is_stmt 0 view .LVU60
 239 000c 0025     		movs	r5, #0
 240 000e 40F8045B 		str	r5, [r0], #4
 241              	.LVL14:
 167:Middlewares/Third_Party/FreeRTOS/Source/event_groups.c **** 
 242              		.loc 1 167 4 is_stmt 1 view .LVU61
 243 0012 FFF7FEFF 		bl	vListInitialise
 244              	.LVL15:
 174:Middlewares/Third_Party/FreeRTOS/Source/event_groups.c **** 			}
 245              		.loc 1 174 5 view .LVU62
 174:Middlewares/Third_Party/FreeRTOS/Source/event_groups.c **** 			}
 246              		.loc 1 174 40 is_stmt 0 view .LVU63
 247 0016 2577     		strb	r5, [r4, #28]
 178:Middlewares/Third_Party/FreeRTOS/Source/event_groups.c **** 		}
 248              		.loc 1 178 42 is_stmt 1 view .LVU64
 182:Middlewares/Third_Party/FreeRTOS/Source/event_groups.c **** 		}
 249              		.loc 1 182 36 view .LVU65
 185:Middlewares/Third_Party/FreeRTOS/Source/event_groups.c **** 	}
 250              		.loc 1 185 3 view .LVU66
 251              	.L14:
 186:Middlewares/Third_Party/FreeRTOS/Source/event_groups.c **** 
 252              		.loc 1 186 2 is_stmt 0 view .LVU67
 253 0018 2046     		mov	r0, r4
ARM GAS  C:\Users\KETEN_~1\AppData\Local\Temp\ccIeQTbg.s 			page 22


 254 001a 38BD     		pop	{r3, r4, r5, pc}
 186:Middlewares/Third_Party/FreeRTOS/Source/event_groups.c **** 
 255              		.loc 1 186 2 view .LVU68
 256              		.cfi_endproc
 257              	.LFE5:
 259              		.section	.text.xEventGroupWaitBits,"ax",%progbits
 260              		.align	1
 261              		.global	xEventGroupWaitBits
 262              		.syntax unified
 263              		.thumb
 264              		.thumb_func
 266              	xEventGroupWaitBits:
 267              	.LVL16:
 268              	.LFB7:
 312:Middlewares/Third_Party/FreeRTOS/Source/event_groups.c **** EventGroup_t *pxEventBits = xEventGroup;
 269              		.loc 1 312 1 is_stmt 1 view -0
 270              		.cfi_startproc
 271              		@ args = 4, pretend = 0, frame = 0
 272              		@ frame_needed = 0, uses_anonymous_args = 0
 313:Middlewares/Third_Party/FreeRTOS/Source/event_groups.c **** EventBits_t uxReturn, uxControlBits = 0;
 273              		.loc 1 313 1 view .LVU70
 314:Middlewares/Third_Party/FreeRTOS/Source/event_groups.c **** BaseType_t xWaitConditionMet, xAlreadyYielded;
 274              		.loc 1 314 1 view .LVU71
 315:Middlewares/Third_Party/FreeRTOS/Source/event_groups.c **** BaseType_t xTimeoutOccurred = pdFALSE;
 275              		.loc 1 315 1 view .LVU72
 316:Middlewares/Third_Party/FreeRTOS/Source/event_groups.c **** 
 276              		.loc 1 316 1 view .LVU73
 320:Middlewares/Third_Party/FreeRTOS/Source/event_groups.c **** 	configASSERT( ( uxBitsToWaitFor & eventEVENT_BITS_CONTROL_BYTES ) == 0 );
 277              		.loc 1 320 2 view .LVU74
 278 0000 88B1     		cbz	r0, .L38
 312:Middlewares/Third_Party/FreeRTOS/Source/event_groups.c **** EventGroup_t *pxEventBits = xEventGroup;
 279              		.loc 1 312 1 is_stmt 0 view .LVU75
 280 0002 2DE9F041 		push	{r4, r5, r6, r7, r8, lr}
 281              	.LCFI6:
 282              		.cfi_def_cfa_offset 24
 283              		.cfi_offset 4, -24
 284              		.cfi_offset 5, -20
 285              		.cfi_offset 6, -16
 286              		.cfi_offset 7, -12
 287              		.cfi_offset 8, -8
 288              		.cfi_offset 14, -4
 289 0006 0C46     		mov	r4, r1
 290 0008 1646     		mov	r6, r2
 291 000a 1D46     		mov	r5, r3
 292 000c 0746     		mov	r7, r0
 320:Middlewares/Third_Party/FreeRTOS/Source/event_groups.c **** 	configASSERT( ( uxBitsToWaitFor & eventEVENT_BITS_CONTROL_BYTES ) == 0 );
 293              		.loc 1 320 29 is_stmt 1 discriminator 2 view .LVU76
 321:Middlewares/Third_Party/FreeRTOS/Source/event_groups.c **** 	configASSERT( uxBitsToWaitFor != 0 );
 294              		.loc 1 321 2 view .LVU77
 295 000e B1F1807F 		cmp	r1, #16777216
 296 0012 11D3     		bcc	.L20
 321:Middlewares/Third_Party/FreeRTOS/Source/event_groups.c **** 	configASSERT( uxBitsToWaitFor != 0 );
 297              		.loc 1 321 2 discriminator 1 view .LVU78
 298              	.LBB42:
 299              	.LBI42:
 191:Middlewares/Third_Party/FreeRTOS/Source/portable/GCC/ARM_CM4F/portmacro.h **** {
 300              		.loc 2 191 30 view .LVU79
ARM GAS  C:\Users\KETEN_~1\AppData\Local\Temp\ccIeQTbg.s 			page 23


 301              	.LBB43:
 193:Middlewares/Third_Party/FreeRTOS/Source/portable/GCC/ARM_CM4F/portmacro.h **** 
 302              		.loc 2 193 1 view .LVU80
 303              		.loc 2 195 2 view .LVU81
 304              		.syntax unified
 305              	@ 195 "Middlewares/Third_Party/FreeRTOS/Source/portable/GCC/ARM_CM4F/portmacro.h" 1
 306 0014 4FF05003 			mov r3, #80												
 307 0018 83F31188 		msr basepri, r3											
 308 001c BFF36F8F 		isb														
 309 0020 BFF34F8F 		dsb														
 310              	
 311              	@ 0 "" 2
 312              	.LVL17:
 313              		.thumb
 314              		.syntax unified
 315              	.L21:
 316              		.loc 2 195 2 is_stmt 0 view .LVU82
 317              	.LBE43:
 318              	.LBE42:
 321:Middlewares/Third_Party/FreeRTOS/Source/event_groups.c **** 	configASSERT( uxBitsToWaitFor != 0 );
 319              		.loc 1 321 2 is_stmt 1 discriminator 3 view .LVU83
 321:Middlewares/Third_Party/FreeRTOS/Source/event_groups.c **** 	configASSERT( uxBitsToWaitFor != 0 );
 320              		.loc 1 321 2 discriminator 3 view .LVU84
 321 0024 FEE7     		b	.L21
 322              	.LVL18:
 323              	.L38:
 324              	.LCFI7:
 325              		.cfi_def_cfa_offset 0
 326              		.cfi_restore 4
 327              		.cfi_restore 5
 328              		.cfi_restore 6
 329              		.cfi_restore 7
 330              		.cfi_restore 8
 331              		.cfi_restore 14
 320:Middlewares/Third_Party/FreeRTOS/Source/event_groups.c **** 	configASSERT( ( uxBitsToWaitFor & eventEVENT_BITS_CONTROL_BYTES ) == 0 );
 332              		.loc 1 320 2 discriminator 1 view .LVU85
 333              	.LBB44:
 334              	.LBI44:
 191:Middlewares/Third_Party/FreeRTOS/Source/portable/GCC/ARM_CM4F/portmacro.h **** {
 335              		.loc 2 191 30 view .LVU86
 336              	.LBB45:
 193:Middlewares/Third_Party/FreeRTOS/Source/portable/GCC/ARM_CM4F/portmacro.h **** 
 337              		.loc 2 193 1 view .LVU87
 338              		.loc 2 195 2 view .LVU88
 339              		.syntax unified
 340              	@ 195 "Middlewares/Third_Party/FreeRTOS/Source/portable/GCC/ARM_CM4F/portmacro.h" 1
 341 0026 4FF05003 			mov r3, #80												
 342 002a 83F31188 		msr basepri, r3											
 343 002e BFF36F8F 		isb														
 344 0032 BFF34F8F 		dsb														
 345              	
 346              	@ 0 "" 2
 347              	.LVL19:
 348              		.thumb
 349              		.syntax unified
 350              	.L19:
 351              		.loc 2 195 2 is_stmt 0 view .LVU89
ARM GAS  C:\Users\KETEN_~1\AppData\Local\Temp\ccIeQTbg.s 			page 24


 352              	.LBE45:
 353              	.LBE44:
 320:Middlewares/Third_Party/FreeRTOS/Source/event_groups.c **** 	configASSERT( ( uxBitsToWaitFor & eventEVENT_BITS_CONTROL_BYTES ) == 0 );
 354              		.loc 1 320 2 is_stmt 1 discriminator 3 view .LVU90
 320:Middlewares/Third_Party/FreeRTOS/Source/event_groups.c **** 	configASSERT( ( uxBitsToWaitFor & eventEVENT_BITS_CONTROL_BYTES ) == 0 );
 355              		.loc 1 320 2 discriminator 3 view .LVU91
 356 0036 FEE7     		b	.L19
 357              	.LVL20:
 358              	.L20:
 359              	.LCFI8:
 360              		.cfi_def_cfa_offset 24
 361              		.cfi_offset 4, -24
 362              		.cfi_offset 5, -20
 363              		.cfi_offset 6, -16
 364              		.cfi_offset 7, -12
 365              		.cfi_offset 8, -8
 366              		.cfi_offset 14, -4
 321:Middlewares/Third_Party/FreeRTOS/Source/event_groups.c **** 	configASSERT( uxBitsToWaitFor != 0 );
 367              		.loc 1 321 74 discriminator 2 view .LVU92
 322:Middlewares/Third_Party/FreeRTOS/Source/event_groups.c **** 	#if ( ( INCLUDE_xTaskGetSchedulerState == 1 ) || ( configUSE_TIMERS == 1 ) )
 368              		.loc 1 322 2 view .LVU93
 369 0038 41B9     		cbnz	r1, .L22
 322:Middlewares/Third_Party/FreeRTOS/Source/event_groups.c **** 	#if ( ( INCLUDE_xTaskGetSchedulerState == 1 ) || ( configUSE_TIMERS == 1 ) )
 370              		.loc 1 322 2 discriminator 1 view .LVU94
 371              	.LBB46:
 372              	.LBI46:
 191:Middlewares/Third_Party/FreeRTOS/Source/portable/GCC/ARM_CM4F/portmacro.h **** {
 373              		.loc 2 191 30 view .LVU95
 374              	.LBB47:
 193:Middlewares/Third_Party/FreeRTOS/Source/portable/GCC/ARM_CM4F/portmacro.h **** 
 375              		.loc 2 193 1 view .LVU96
 376              		.loc 2 195 2 view .LVU97
 377              		.syntax unified
 378              	@ 195 "Middlewares/Third_Party/FreeRTOS/Source/portable/GCC/ARM_CM4F/portmacro.h" 1
 379 003a 4FF05003 			mov r3, #80												
 380 003e 83F31188 		msr basepri, r3											
 381 0042 BFF36F8F 		isb														
 382 0046 BFF34F8F 		dsb														
 383              	
 384              	@ 0 "" 2
 385              	.LVL21:
 386              		.thumb
 387              		.syntax unified
 388              	.L23:
 389              		.loc 2 195 2 is_stmt 0 view .LVU98
 390              	.LBE47:
 391              	.LBE46:
 322:Middlewares/Third_Party/FreeRTOS/Source/event_groups.c **** 	#if ( ( INCLUDE_xTaskGetSchedulerState == 1 ) || ( configUSE_TIMERS == 1 ) )
 392              		.loc 1 322 2 is_stmt 1 discriminator 3 view .LVU99
 322:Middlewares/Third_Party/FreeRTOS/Source/event_groups.c **** 	#if ( ( INCLUDE_xTaskGetSchedulerState == 1 ) || ( configUSE_TIMERS == 1 ) )
 393              		.loc 1 322 2 discriminator 3 view .LVU100
 394 004a FEE7     		b	.L23
 395              	.LVL22:
 396              	.L22:
 322:Middlewares/Third_Party/FreeRTOS/Source/event_groups.c **** 	#if ( ( INCLUDE_xTaskGetSchedulerState == 1 ) || ( configUSE_TIMERS == 1 ) )
 397              		.loc 1 322 38 discriminator 2 view .LVU101
 325:Middlewares/Third_Party/FreeRTOS/Source/event_groups.c **** 	}
ARM GAS  C:\Users\KETEN_~1\AppData\Local\Temp\ccIeQTbg.s 			page 25


 398              		.loc 1 325 3 view .LVU102
 399 004c FFF7FEFF 		bl	xTaskGetSchedulerState
 400              	.LVL23:
 325:Middlewares/Third_Party/FreeRTOS/Source/event_groups.c **** 	}
 401              		.loc 1 325 3 is_stmt 0 discriminator 1 view .LVU103
 402 0050 50B9     		cbnz	r0, .L24
 325:Middlewares/Third_Party/FreeRTOS/Source/event_groups.c **** 	}
 403              		.loc 1 325 3 discriminator 2 view .LVU104
 404 0052 069B     		ldr	r3, [sp, #24]
 405 0054 43B1     		cbz	r3, .L24
 325:Middlewares/Third_Party/FreeRTOS/Source/event_groups.c **** 	}
 406              		.loc 1 325 3 is_stmt 1 discriminator 7 view .LVU105
 407              	.LBB48:
 408              	.LBI48:
 191:Middlewares/Third_Party/FreeRTOS/Source/portable/GCC/ARM_CM4F/portmacro.h **** {
 409              		.loc 2 191 30 view .LVU106
 410              	.LBB49:
 193:Middlewares/Third_Party/FreeRTOS/Source/portable/GCC/ARM_CM4F/portmacro.h **** 
 411              		.loc 2 193 1 view .LVU107
 412              		.loc 2 195 2 view .LVU108
 413              		.syntax unified
 414              	@ 195 "Middlewares/Third_Party/FreeRTOS/Source/portable/GCC/ARM_CM4F/portmacro.h" 1
 415 0056 4FF05003 			mov r3, #80												
 416 005a 83F31188 		msr basepri, r3											
 417 005e BFF36F8F 		isb														
 418 0062 BFF34F8F 		dsb														
 419              	
 420              	@ 0 "" 2
 421              		.thumb
 422              		.syntax unified
 423              	.L25:
 424              	.LBE49:
 425              	.LBE48:
 325:Middlewares/Third_Party/FreeRTOS/Source/event_groups.c **** 	}
 426              		.loc 1 325 3 discriminator 9 view .LVU109
 325:Middlewares/Third_Party/FreeRTOS/Source/event_groups.c **** 	}
 427              		.loc 1 325 3 discriminator 9 view .LVU110
 428 0066 FEE7     		b	.L25
 429              	.L24:
 325:Middlewares/Third_Party/FreeRTOS/Source/event_groups.c **** 	}
 430              		.loc 1 325 104 discriminator 8 view .LVU111
 329:Middlewares/Third_Party/FreeRTOS/Source/event_groups.c **** 	{
 431              		.loc 1 329 2 view .LVU112
 432 0068 FFF7FEFF 		bl	vTaskSuspendAll
 433              	.LVL24:
 434              	.LBB50:
 331:Middlewares/Third_Party/FreeRTOS/Source/event_groups.c **** 
 435              		.loc 1 331 3 view .LVU113
 331:Middlewares/Third_Party/FreeRTOS/Source/event_groups.c **** 
 436              		.loc 1 331 21 is_stmt 0 view .LVU114
 437 006c D7F80080 		ldr	r8, [r7]
 438              	.LVL25:
 334:Middlewares/Third_Party/FreeRTOS/Source/event_groups.c **** 
 439              		.loc 1 334 3 is_stmt 1 view .LVU115
 334:Middlewares/Third_Party/FreeRTOS/Source/event_groups.c **** 
 440              		.loc 1 334 23 is_stmt 0 view .LVU116
 441 0070 2A46     		mov	r2, r5
ARM GAS  C:\Users\KETEN_~1\AppData\Local\Temp\ccIeQTbg.s 			page 26


 442 0072 2146     		mov	r1, r4
 443 0074 4046     		mov	r0, r8
 444 0076 FFF7FEFF 		bl	prvTestWaitCondition
 445              	.LVL26:
 336:Middlewares/Third_Party/FreeRTOS/Source/event_groups.c **** 		{
 446              		.loc 1 336 3 is_stmt 1 view .LVU117
 336:Middlewares/Third_Party/FreeRTOS/Source/event_groups.c **** 		{
 447              		.loc 1 336 5 is_stmt 0 view .LVU118
 448 007a F8B1     		cbz	r0, .L26
 340:Middlewares/Third_Party/FreeRTOS/Source/event_groups.c **** 			xTicksToWait = ( TickType_t ) 0;
 449              		.loc 1 340 4 is_stmt 1 view .LVU119
 450              	.LVL27:
 341:Middlewares/Third_Party/FreeRTOS/Source/event_groups.c **** 
 451              		.loc 1 341 4 view .LVU120
 344:Middlewares/Third_Party/FreeRTOS/Source/event_groups.c **** 			{
 452              		.loc 1 344 4 view .LVU121
 344:Middlewares/Third_Party/FreeRTOS/Source/event_groups.c **** 			{
 453              		.loc 1 344 6 is_stmt 0 view .LVU122
 454 007c 8EB3     		cbz	r6, .L34
 346:Middlewares/Third_Party/FreeRTOS/Source/event_groups.c **** 			}
 455              		.loc 1 346 5 is_stmt 1 view .LVU123
 346:Middlewares/Third_Party/FreeRTOS/Source/event_groups.c **** 			}
 456              		.loc 1 346 30 is_stmt 0 view .LVU124
 457 007e 28EA0403 		bic	r3, r8, r4
 458 0082 3B60     		str	r3, [r7]
 341:Middlewares/Third_Party/FreeRTOS/Source/event_groups.c **** 
 459              		.loc 1 341 17 view .LVU125
 460 0084 0023     		movs	r3, #0
 461 0086 0693     		str	r3, [sp, #24]
 462              	.LVL28:
 463              	.L27:
 394:Middlewares/Third_Party/FreeRTOS/Source/event_groups.c **** 		}
 464              		.loc 1 394 68 is_stmt 1 view .LVU126
 465              	.LBE50:
 397:Middlewares/Third_Party/FreeRTOS/Source/event_groups.c **** 
 466              		.loc 1 397 2 view .LVU127
 397:Middlewares/Third_Party/FreeRTOS/Source/event_groups.c **** 
 467              		.loc 1 397 20 is_stmt 0 view .LVU128
 468 0088 FFF7FEFF 		bl	xTaskResumeAll
 469              	.LVL29:
 399:Middlewares/Third_Party/FreeRTOS/Source/event_groups.c **** 	{
 470              		.loc 1 399 2 is_stmt 1 view .LVU129
 399:Middlewares/Third_Party/FreeRTOS/Source/event_groups.c **** 	{
 471              		.loc 1 399 4 is_stmt 0 view .LVU130
 472 008c 069B     		ldr	r3, [sp, #24]
 473 008e 93B1     		cbz	r3, .L17
 401:Middlewares/Third_Party/FreeRTOS/Source/event_groups.c **** 		{
 474              		.loc 1 401 3 is_stmt 1 view .LVU131
 401:Middlewares/Third_Party/FreeRTOS/Source/event_groups.c **** 		{
 475              		.loc 1 401 5 is_stmt 0 view .LVU132
 476 0090 48B9     		cbnz	r0, .L31
 403:Middlewares/Third_Party/FreeRTOS/Source/event_groups.c **** 		}
 477              		.loc 1 403 4 is_stmt 1 view .LVU133
 478 0092 4FF0E023 		mov	r3, #-536813568
 479 0096 4FF08052 		mov	r2, #268435456
 480 009a C3F8042D 		str	r2, [r3, #3332]
 481              	.LVL30:
ARM GAS  C:\Users\KETEN_~1\AppData\Local\Temp\ccIeQTbg.s 			page 27


 403:Middlewares/Third_Party/FreeRTOS/Source/event_groups.c **** 		}
 482              		.loc 1 403 4 view .LVU134
 483              		.syntax unified
 484              	@ 403 "Middlewares/Third_Party/FreeRTOS/Source/event_groups.c" 1
 485 009e BFF34F8F 		dsb
 486              	@ 0 "" 2
 403:Middlewares/Third_Party/FreeRTOS/Source/event_groups.c **** 		}
 487              		.loc 1 403 4 view .LVU135
 488              	@ 403 "Middlewares/Third_Party/FreeRTOS/Source/event_groups.c" 1
 489 00a2 BFF36F8F 		isb
 490              	@ 0 "" 2
 403:Middlewares/Third_Party/FreeRTOS/Source/event_groups.c **** 		}
 491              		.loc 1 403 26 view .LVU136
 492              		.thumb
 493              		.syntax unified
 494              	.L31:
 407:Middlewares/Third_Party/FreeRTOS/Source/event_groups.c **** 		}
 495              		.loc 1 407 28 view .LVU137
 414:Middlewares/Third_Party/FreeRTOS/Source/event_groups.c **** 
 496              		.loc 1 414 3 view .LVU138
 414:Middlewares/Third_Party/FreeRTOS/Source/event_groups.c **** 
 497              		.loc 1 414 14 is_stmt 0 view .LVU139
 498 00a6 FFF7FEFF 		bl	uxTaskResetEventItemValue
 499              	.LVL31:
 414:Middlewares/Third_Party/FreeRTOS/Source/event_groups.c **** 
 500              		.loc 1 414 14 view .LVU140
 501 00aa 8046     		mov	r8, r0
 502              	.LVL32:
 416:Middlewares/Third_Party/FreeRTOS/Source/event_groups.c **** 		{
 503              		.loc 1 416 3 is_stmt 1 view .LVU141
 416:Middlewares/Third_Party/FreeRTOS/Source/event_groups.c **** 		{
 504              		.loc 1 416 5 is_stmt 0 view .LVU142
 505 00ac 10F0007F 		tst	r0, #33554432
 506 00b0 1AD0     		beq	.L39
 507              	.LVL33:
 508              	.L32:
 447:Middlewares/Third_Party/FreeRTOS/Source/event_groups.c **** 
 509              		.loc 1 447 3 is_stmt 1 view .LVU143
 450:Middlewares/Third_Party/FreeRTOS/Source/event_groups.c **** 	}
 510              		.loc 1 450 3 view .LVU144
 450:Middlewares/Third_Party/FreeRTOS/Source/event_groups.c **** 	}
 511              		.loc 1 450 12 is_stmt 0 view .LVU145
 512 00b2 28F07F48 		bic	r8, r8, #-16777216
 513              	.LVL34:
 452:Middlewares/Third_Party/FreeRTOS/Source/event_groups.c **** 
 514              		.loc 1 452 2 is_stmt 1 view .LVU146
 455:Middlewares/Third_Party/FreeRTOS/Source/event_groups.c **** 
 515              		.loc 1 455 2 view .LVU147
 457:Middlewares/Third_Party/FreeRTOS/Source/event_groups.c **** }
 516              		.loc 1 457 2 view .LVU148
 517              	.L17:
 458:Middlewares/Third_Party/FreeRTOS/Source/event_groups.c **** /*-----------------------------------------------------------*/
 518              		.loc 1 458 1 is_stmt 0 view .LVU149
 519 00b6 4046     		mov	r0, r8
 520 00b8 BDE8F081 		pop	{r4, r5, r6, r7, r8, pc}
 521              	.LVL35:
 522              	.L26:
ARM GAS  C:\Users\KETEN_~1\AppData\Local\Temp\ccIeQTbg.s 			page 28


 523              	.LBB51:
 353:Middlewares/Third_Party/FreeRTOS/Source/event_groups.c **** 		{
 524              		.loc 1 353 8 is_stmt 1 view .LVU150
 353:Middlewares/Third_Party/FreeRTOS/Source/event_groups.c **** 		{
 525              		.loc 1 353 10 is_stmt 0 view .LVU151
 526 00bc 069B     		ldr	r3, [sp, #24]
 527 00be 002B     		cmp	r3, #0
 528 00c0 E2D0     		beq	.L27
 366:Middlewares/Third_Party/FreeRTOS/Source/event_groups.c **** 			{
 529              		.loc 1 366 4 is_stmt 1 view .LVU152
 366:Middlewares/Third_Party/FreeRTOS/Source/event_groups.c **** 			{
 530              		.loc 1 366 6 is_stmt 0 view .LVU153
 531 00c2 5EB9     		cbnz	r6, .L35
 532              	.LBE51:
 314:Middlewares/Third_Party/FreeRTOS/Source/event_groups.c **** BaseType_t xWaitConditionMet, xAlreadyYielded;
 533              		.loc 1 314 23 view .LVU154
 534 00c4 0021     		movs	r1, #0
 535              	.L28:
 536              	.LVL36:
 537              	.LBB52:
 372:Middlewares/Third_Party/FreeRTOS/Source/event_groups.c **** 			}
 538              		.loc 1 372 29 is_stmt 1 view .LVU155
 375:Middlewares/Third_Party/FreeRTOS/Source/event_groups.c **** 			{
 539              		.loc 1 375 4 view .LVU156
 375:Middlewares/Third_Party/FreeRTOS/Source/event_groups.c **** 			{
 540              		.loc 1 375 6 is_stmt 0 view .LVU157
 541 00c6 0DB1     		cbz	r5, .L29
 377:Middlewares/Third_Party/FreeRTOS/Source/event_groups.c **** 			}
 542              		.loc 1 377 5 is_stmt 1 view .LVU158
 377:Middlewares/Third_Party/FreeRTOS/Source/event_groups.c **** 			}
 543              		.loc 1 377 19 is_stmt 0 view .LVU159
 544 00c8 41F08061 		orr	r1, r1, #67108864
 545              	.LVL37:
 546              	.L29:
 381:Middlewares/Third_Party/FreeRTOS/Source/event_groups.c **** 			}
 547              		.loc 1 381 29 is_stmt 1 view .LVU160
 387:Middlewares/Third_Party/FreeRTOS/Source/event_groups.c **** 
 548              		.loc 1 387 4 view .LVU161
 549 00cc 069A     		ldr	r2, [sp, #24]
 550 00ce 2143     		orrs	r1, r1, r4
 551              	.LVL38:
 387:Middlewares/Third_Party/FreeRTOS/Source/event_groups.c **** 
 552              		.loc 1 387 4 is_stmt 0 view .LVU162
 553 00d0 381D     		adds	r0, r7, #4
 554              	.LVL39:
 387:Middlewares/Third_Party/FreeRTOS/Source/event_groups.c **** 
 555              		.loc 1 387 4 view .LVU163
 556 00d2 FFF7FEFF 		bl	vTaskPlaceOnUnorderedEventList
 557              	.LVL40:
 392:Middlewares/Third_Party/FreeRTOS/Source/event_groups.c **** 
 558              		.loc 1 392 4 is_stmt 1 view .LVU164
 392:Middlewares/Third_Party/FreeRTOS/Source/event_groups.c **** 
 559              		.loc 1 392 13 is_stmt 0 view .LVU165
 560 00d6 4FF00008 		mov	r8, #0
 561              	.LVL41:
 392:Middlewares/Third_Party/FreeRTOS/Source/event_groups.c **** 
 562              		.loc 1 392 13 view .LVU166
ARM GAS  C:\Users\KETEN_~1\AppData\Local\Temp\ccIeQTbg.s 			page 29


 563 00da D5E7     		b	.L27
 564              	.LVL42:
 565              	.L35:
 368:Middlewares/Third_Party/FreeRTOS/Source/event_groups.c **** 			}
 566              		.loc 1 368 19 view .LVU167
 567 00dc 4FF08071 		mov	r1, #16777216
 568 00e0 F1E7     		b	.L28
 569              	.LVL43:
 570              	.L34:
 341:Middlewares/Third_Party/FreeRTOS/Source/event_groups.c **** 
 571              		.loc 1 341 17 view .LVU168
 572 00e2 0023     		movs	r3, #0
 573 00e4 0693     		str	r3, [sp, #24]
 574 00e6 CFE7     		b	.L27
 575              	.LVL44:
 576              	.L39:
 341:Middlewares/Third_Party/FreeRTOS/Source/event_groups.c **** 
 577              		.loc 1 341 17 view .LVU169
 578              	.LBE52:
 418:Middlewares/Third_Party/FreeRTOS/Source/event_groups.c **** 			{
 579              		.loc 1 418 4 is_stmt 1 view .LVU170
 580 00e8 FFF7FEFF 		bl	vPortEnterCritical
 581              	.LVL45:
 421:Middlewares/Third_Party/FreeRTOS/Source/event_groups.c **** 
 582              		.loc 1 421 5 view .LVU171
 421:Middlewares/Third_Party/FreeRTOS/Source/event_groups.c **** 
 583              		.loc 1 421 14 is_stmt 0 view .LVU172
 584 00ec D7F80080 		ldr	r8, [r7]
 585              	.LVL46:
 425:Middlewares/Third_Party/FreeRTOS/Source/event_groups.c **** 				{
 586              		.loc 1 425 5 is_stmt 1 view .LVU173
 425:Middlewares/Third_Party/FreeRTOS/Source/event_groups.c **** 				{
 587              		.loc 1 425 9 is_stmt 0 view .LVU174
 588 00f0 2A46     		mov	r2, r5
 589 00f2 2146     		mov	r1, r4
 590 00f4 4046     		mov	r0, r8
 591 00f6 FFF7FEFF 		bl	prvTestWaitCondition
 592              	.LVL47:
 425:Middlewares/Third_Party/FreeRTOS/Source/event_groups.c **** 				{
 593              		.loc 1 425 7 discriminator 1 view .LVU175
 594 00fa 18B1     		cbz	r0, .L33
 427:Middlewares/Third_Party/FreeRTOS/Source/event_groups.c **** 					{
 595              		.loc 1 427 6 is_stmt 1 view .LVU176
 427:Middlewares/Third_Party/FreeRTOS/Source/event_groups.c **** 					{
 596              		.loc 1 427 8 is_stmt 0 view .LVU177
 597 00fc 16B1     		cbz	r6, .L33
 429:Middlewares/Third_Party/FreeRTOS/Source/event_groups.c **** 					}
 598              		.loc 1 429 7 is_stmt 1 view .LVU178
 429:Middlewares/Third_Party/FreeRTOS/Source/event_groups.c **** 					}
 599              		.loc 1 429 32 is_stmt 0 view .LVU179
 600 00fe 28EA0404 		bic	r4, r8, r4
 601              	.LVL48:
 429:Middlewares/Third_Party/FreeRTOS/Source/event_groups.c **** 					}
 602              		.loc 1 429 32 view .LVU180
 603 0102 3C60     		str	r4, [r7]
 604              	.L33:
 438:Middlewares/Third_Party/FreeRTOS/Source/event_groups.c **** 				}
ARM GAS  C:\Users\KETEN_~1\AppData\Local\Temp\ccIeQTbg.s 			page 30


 605              		.loc 1 438 30 is_stmt 1 view .LVU181
 440:Middlewares/Third_Party/FreeRTOS/Source/event_groups.c **** 			}
 606              		.loc 1 440 5 view .LVU182
 607              	.LVL49:
 442:Middlewares/Third_Party/FreeRTOS/Source/event_groups.c **** 		}
 608              		.loc 1 442 4 view .LVU183
 609 0104 FFF7FEFF 		bl	vPortExitCritical
 610              	.LVL50:
 611 0108 D3E7     		b	.L32
 612              		.cfi_endproc
 613              	.LFE7:
 615              		.section	.text.xEventGroupClearBits,"ax",%progbits
 616              		.align	1
 617              		.global	xEventGroupClearBits
 618              		.syntax unified
 619              		.thumb
 620              		.thumb_func
 622              	xEventGroupClearBits:
 623              	.LVL51:
 624              	.LFB8:
 462:Middlewares/Third_Party/FreeRTOS/Source/event_groups.c **** EventGroup_t *pxEventBits = xEventGroup;
 625              		.loc 1 462 1 view -0
 626              		.cfi_startproc
 627              		@ args = 0, pretend = 0, frame = 0
 628              		@ frame_needed = 0, uses_anonymous_args = 0
 463:Middlewares/Third_Party/FreeRTOS/Source/event_groups.c **** EventBits_t uxReturn;
 629              		.loc 1 463 1 view .LVU185
 464:Middlewares/Third_Party/FreeRTOS/Source/event_groups.c **** 
 630              		.loc 1 464 1 view .LVU186
 468:Middlewares/Third_Party/FreeRTOS/Source/event_groups.c **** 	configASSERT( ( uxBitsToClear & eventEVENT_BITS_CONTROL_BYTES ) == 0 );
 631              		.loc 1 468 2 view .LVU187
 632 0000 70B1     		cbz	r0, .L47
 462:Middlewares/Third_Party/FreeRTOS/Source/event_groups.c **** EventGroup_t *pxEventBits = xEventGroup;
 633              		.loc 1 462 1 is_stmt 0 view .LVU188
 634 0002 70B5     		push	{r4, r5, r6, lr}
 635              	.LCFI9:
 636              		.cfi_def_cfa_offset 16
 637              		.cfi_offset 4, -16
 638              		.cfi_offset 5, -12
 639              		.cfi_offset 6, -8
 640              		.cfi_offset 14, -4
 641 0004 0C46     		mov	r4, r1
 642 0006 0546     		mov	r5, r0
 468:Middlewares/Third_Party/FreeRTOS/Source/event_groups.c **** 	configASSERT( ( uxBitsToClear & eventEVENT_BITS_CONTROL_BYTES ) == 0 );
 643              		.loc 1 468 29 is_stmt 1 discriminator 2 view .LVU189
 469:Middlewares/Third_Party/FreeRTOS/Source/event_groups.c **** 
 644              		.loc 1 469 2 view .LVU190
 645 0008 B1F1807F 		cmp	r1, #16777216
 646 000c 11D3     		bcc	.L43
 469:Middlewares/Third_Party/FreeRTOS/Source/event_groups.c **** 
 647              		.loc 1 469 2 discriminator 1 view .LVU191
 648              	.LBB53:
 649              	.LBI53:
 191:Middlewares/Third_Party/FreeRTOS/Source/portable/GCC/ARM_CM4F/portmacro.h **** {
 650              		.loc 2 191 30 view .LVU192
 651              	.LBB54:
 193:Middlewares/Third_Party/FreeRTOS/Source/portable/GCC/ARM_CM4F/portmacro.h **** 
ARM GAS  C:\Users\KETEN_~1\AppData\Local\Temp\ccIeQTbg.s 			page 31


 652              		.loc 2 193 1 view .LVU193
 653              		.loc 2 195 2 view .LVU194
 654              		.syntax unified
 655              	@ 195 "Middlewares/Third_Party/FreeRTOS/Source/portable/GCC/ARM_CM4F/portmacro.h" 1
 656 000e 4FF05003 			mov r3, #80												
 657 0012 83F31188 		msr basepri, r3											
 658 0016 BFF36F8F 		isb														
 659 001a BFF34F8F 		dsb														
 660              	
 661              	@ 0 "" 2
 662              		.thumb
 663              		.syntax unified
 664              	.L44:
 665              	.LBE54:
 666              	.LBE53:
 469:Middlewares/Third_Party/FreeRTOS/Source/event_groups.c **** 
 667              		.loc 1 469 2 discriminator 3 view .LVU195
 469:Middlewares/Third_Party/FreeRTOS/Source/event_groups.c **** 
 668              		.loc 1 469 2 discriminator 3 view .LVU196
 669 001e FEE7     		b	.L44
 670              	.L47:
 671              	.LCFI10:
 672              		.cfi_def_cfa_offset 0
 673              		.cfi_restore 4
 674              		.cfi_restore 5
 675              		.cfi_restore 6
 676              		.cfi_restore 14
 468:Middlewares/Third_Party/FreeRTOS/Source/event_groups.c **** 	configASSERT( ( uxBitsToClear & eventEVENT_BITS_CONTROL_BYTES ) == 0 );
 677              		.loc 1 468 2 discriminator 1 view .LVU197
 678              	.LBB55:
 679              	.LBI55:
 191:Middlewares/Third_Party/FreeRTOS/Source/portable/GCC/ARM_CM4F/portmacro.h **** {
 680              		.loc 2 191 30 view .LVU198
 681              	.LBB56:
 193:Middlewares/Third_Party/FreeRTOS/Source/portable/GCC/ARM_CM4F/portmacro.h **** 
 682              		.loc 2 193 1 view .LVU199
 683              		.loc 2 195 2 view .LVU200
 684              		.syntax unified
 685              	@ 195 "Middlewares/Third_Party/FreeRTOS/Source/portable/GCC/ARM_CM4F/portmacro.h" 1
 686 0020 4FF05003 			mov r3, #80												
 687 0024 83F31188 		msr basepri, r3											
 688 0028 BFF36F8F 		isb														
 689 002c BFF34F8F 		dsb														
 690              	
 691              	@ 0 "" 2
 692              		.thumb
 693              		.syntax unified
 694              	.L42:
 695              	.LBE56:
 696              	.LBE55:
 468:Middlewares/Third_Party/FreeRTOS/Source/event_groups.c **** 	configASSERT( ( uxBitsToClear & eventEVENT_BITS_CONTROL_BYTES ) == 0 );
 697              		.loc 1 468 2 discriminator 3 view .LVU201
 468:Middlewares/Third_Party/FreeRTOS/Source/event_groups.c **** 	configASSERT( ( uxBitsToClear & eventEVENT_BITS_CONTROL_BYTES ) == 0 );
 698              		.loc 1 468 2 discriminator 3 view .LVU202
 699 0030 FEE7     		b	.L42
 700              	.L43:
 701              	.LCFI11:
ARM GAS  C:\Users\KETEN_~1\AppData\Local\Temp\ccIeQTbg.s 			page 32


 702              		.cfi_def_cfa_offset 16
 703              		.cfi_offset 4, -16
 704              		.cfi_offset 5, -12
 705              		.cfi_offset 6, -8
 706              		.cfi_offset 14, -4
 469:Middlewares/Third_Party/FreeRTOS/Source/event_groups.c **** 
 707              		.loc 1 469 72 discriminator 2 view .LVU203
 471:Middlewares/Third_Party/FreeRTOS/Source/event_groups.c **** 	{
 708              		.loc 1 471 2 view .LVU204
 709 0032 FFF7FEFF 		bl	vPortEnterCritical
 710              	.LVL52:
 473:Middlewares/Third_Party/FreeRTOS/Source/event_groups.c **** 
 711              		.loc 1 473 60 view .LVU205
 477:Middlewares/Third_Party/FreeRTOS/Source/event_groups.c **** 
 712              		.loc 1 477 3 view .LVU206
 477:Middlewares/Third_Party/FreeRTOS/Source/event_groups.c **** 
 713              		.loc 1 477 12 is_stmt 0 view .LVU207
 714 0036 2E68     		ldr	r6, [r5]
 715              	.LVL53:
 480:Middlewares/Third_Party/FreeRTOS/Source/event_groups.c **** 	}
 716              		.loc 1 480 3 is_stmt 1 view .LVU208
 480:Middlewares/Third_Party/FreeRTOS/Source/event_groups.c **** 	}
 717              		.loc 1 480 28 is_stmt 0 view .LVU209
 718 0038 26EA0404 		bic	r4, r6, r4
 719              	.LVL54:
 480:Middlewares/Third_Party/FreeRTOS/Source/event_groups.c **** 	}
 720              		.loc 1 480 28 view .LVU210
 721 003c 2C60     		str	r4, [r5]
 482:Middlewares/Third_Party/FreeRTOS/Source/event_groups.c **** 
 722              		.loc 1 482 2 is_stmt 1 view .LVU211
 723 003e FFF7FEFF 		bl	vPortExitCritical
 724              	.LVL55:
 484:Middlewares/Third_Party/FreeRTOS/Source/event_groups.c **** }
 725              		.loc 1 484 2 view .LVU212
 485:Middlewares/Third_Party/FreeRTOS/Source/event_groups.c **** /*-----------------------------------------------------------*/
 726              		.loc 1 485 1 is_stmt 0 view .LVU213
 727 0042 3046     		mov	r0, r6
 728 0044 70BD     		pop	{r4, r5, r6, pc}
 485:Middlewares/Third_Party/FreeRTOS/Source/event_groups.c **** /*-----------------------------------------------------------*/
 729              		.loc 1 485 1 view .LVU214
 730              		.cfi_endproc
 731              	.LFE8:
 733              		.section	.text.vEventGroupClearBitsCallback,"ax",%progbits
 734              		.align	1
 735              		.global	vEventGroupClearBitsCallback
 736              		.syntax unified
 737              		.thumb
 738              		.thumb_func
 740              	vEventGroupClearBitsCallback:
 741              	.LVL56:
 742              	.LFB14:
 666:Middlewares/Third_Party/FreeRTOS/Source/event_groups.c **** 	( void ) xEventGroupClearBits( pvEventGroup, ( EventBits_t ) ulBitsToClear ); /*lint !e9079 Can't 
 743              		.loc 1 666 1 is_stmt 1 view -0
 744              		.cfi_startproc
 745              		@ args = 0, pretend = 0, frame = 0
 746              		@ frame_needed = 0, uses_anonymous_args = 0
 666:Middlewares/Third_Party/FreeRTOS/Source/event_groups.c **** 	( void ) xEventGroupClearBits( pvEventGroup, ( EventBits_t ) ulBitsToClear ); /*lint !e9079 Can't 
ARM GAS  C:\Users\KETEN_~1\AppData\Local\Temp\ccIeQTbg.s 			page 33


 747              		.loc 1 666 1 is_stmt 0 view .LVU216
 748 0000 08B5     		push	{r3, lr}
 749              	.LCFI12:
 750              		.cfi_def_cfa_offset 8
 751              		.cfi_offset 3, -8
 752              		.cfi_offset 14, -4
 667:Middlewares/Third_Party/FreeRTOS/Source/event_groups.c **** }
 753              		.loc 1 667 2 is_stmt 1 view .LVU217
 667:Middlewares/Third_Party/FreeRTOS/Source/event_groups.c **** }
 754              		.loc 1 667 11 is_stmt 0 view .LVU218
 755 0002 FFF7FEFF 		bl	xEventGroupClearBits
 756              	.LVL57:
 668:Middlewares/Third_Party/FreeRTOS/Source/event_groups.c **** /*-----------------------------------------------------------*/
 757              		.loc 1 668 1 view .LVU219
 758 0006 08BD     		pop	{r3, pc}
 759              		.cfi_endproc
 760              	.LFE14:
 762              		.section	.text.xEventGroupClearBitsFromISR,"ax",%progbits
 763              		.align	1
 764              		.global	xEventGroupClearBitsFromISR
 765              		.syntax unified
 766              		.thumb
 767              		.thumb_func
 769              	xEventGroupClearBitsFromISR:
 770              	.LVL58:
 771              	.LFB9:
 491:Middlewares/Third_Party/FreeRTOS/Source/event_groups.c **** 		BaseType_t xReturn;
 772              		.loc 1 491 2 is_stmt 1 view -0
 773              		.cfi_startproc
 774              		@ args = 0, pretend = 0, frame = 0
 775              		@ frame_needed = 0, uses_anonymous_args = 0
 491:Middlewares/Third_Party/FreeRTOS/Source/event_groups.c **** 		BaseType_t xReturn;
 776              		.loc 1 491 2 is_stmt 0 view .LVU221
 777 0000 08B5     		push	{r3, lr}
 778              	.LCFI13:
 779              		.cfi_def_cfa_offset 8
 780              		.cfi_offset 3, -8
 781              		.cfi_offset 14, -4
 782 0002 0A46     		mov	r2, r1
 492:Middlewares/Third_Party/FreeRTOS/Source/event_groups.c **** 
 783              		.loc 1 492 3 is_stmt 1 view .LVU222
 494:Middlewares/Third_Party/FreeRTOS/Source/event_groups.c **** 		xReturn = xTimerPendFunctionCallFromISR( vEventGroupClearBitsCallback, ( void * ) xEventGroup, ( 
 784              		.loc 1 494 69 view .LVU223
 495:Middlewares/Third_Party/FreeRTOS/Source/event_groups.c **** 
 785              		.loc 1 495 3 view .LVU224
 495:Middlewares/Third_Party/FreeRTOS/Source/event_groups.c **** 
 786              		.loc 1 495 13 is_stmt 0 view .LVU225
 787 0004 0023     		movs	r3, #0
 788 0006 0146     		mov	r1, r0
 789              	.LVL59:
 495:Middlewares/Third_Party/FreeRTOS/Source/event_groups.c **** 
 790              		.loc 1 495 13 view .LVU226
 791 0008 0148     		ldr	r0, .L52
 792              	.LVL60:
 495:Middlewares/Third_Party/FreeRTOS/Source/event_groups.c **** 
 793              		.loc 1 495 13 view .LVU227
 794 000a FFF7FEFF 		bl	xTimerPendFunctionCallFromISR
ARM GAS  C:\Users\KETEN_~1\AppData\Local\Temp\ccIeQTbg.s 			page 34


 795              	.LVL61:
 497:Middlewares/Third_Party/FreeRTOS/Source/event_groups.c **** 	}
 796              		.loc 1 497 3 is_stmt 1 view .LVU228
 498:Middlewares/Third_Party/FreeRTOS/Source/event_groups.c **** 
 797              		.loc 1 498 2 is_stmt 0 view .LVU229
 798 000e 08BD     		pop	{r3, pc}
 799              	.L53:
 800              		.align	2
 801              	.L52:
 802 0010 00000000 		.word	vEventGroupClearBitsCallback
 803              		.cfi_endproc
 804              	.LFE9:
 806              		.section	.text.xEventGroupGetBitsFromISR,"ax",%progbits
 807              		.align	1
 808              		.global	xEventGroupGetBitsFromISR
 809              		.syntax unified
 810              		.thumb
 811              		.thumb_func
 813              	xEventGroupGetBitsFromISR:
 814              	.LVL62:
 815              	.LFB10:
 504:Middlewares/Third_Party/FreeRTOS/Source/event_groups.c **** UBaseType_t uxSavedInterruptStatus;
 816              		.loc 1 504 1 is_stmt 1 view -0
 817              		.cfi_startproc
 818              		@ args = 0, pretend = 0, frame = 0
 819              		@ frame_needed = 0, uses_anonymous_args = 0
 820              		@ link register save eliminated.
 505:Middlewares/Third_Party/FreeRTOS/Source/event_groups.c **** EventGroup_t const * const pxEventBits = xEventGroup;
 821              		.loc 1 505 1 view .LVU231
 506:Middlewares/Third_Party/FreeRTOS/Source/event_groups.c **** EventBits_t uxReturn;
 822              		.loc 1 506 1 view .LVU232
 507:Middlewares/Third_Party/FreeRTOS/Source/event_groups.c **** 
 823              		.loc 1 507 1 view .LVU233
 509:Middlewares/Third_Party/FreeRTOS/Source/event_groups.c **** 	{
 824              		.loc 1 509 2 view .LVU234
 825              	.LBB57:
 826              	.LBI57:
 196:Middlewares/Third_Party/FreeRTOS/Source/portable/GCC/ARM_CM4F/portmacro.h **** 	(
 197:Middlewares/Third_Party/FreeRTOS/Source/portable/GCC/ARM_CM4F/portmacro.h **** 		"	mov %0, %1												\n"	\
 198:Middlewares/Third_Party/FreeRTOS/Source/portable/GCC/ARM_CM4F/portmacro.h **** 		"	msr basepri, %0											\n" \
 199:Middlewares/Third_Party/FreeRTOS/Source/portable/GCC/ARM_CM4F/portmacro.h **** 		"	isb														\n" \
 200:Middlewares/Third_Party/FreeRTOS/Source/portable/GCC/ARM_CM4F/portmacro.h **** 		"	dsb														\n" \
 201:Middlewares/Third_Party/FreeRTOS/Source/portable/GCC/ARM_CM4F/portmacro.h **** 		:"=r" (ulNewBASEPRI) : "i" ( configMAX_SYSCALL_INTERRUPT_PRIORITY ) : "memory"
 202:Middlewares/Third_Party/FreeRTOS/Source/portable/GCC/ARM_CM4F/portmacro.h **** 	);
 203:Middlewares/Third_Party/FreeRTOS/Source/portable/GCC/ARM_CM4F/portmacro.h **** }
 204:Middlewares/Third_Party/FreeRTOS/Source/portable/GCC/ARM_CM4F/portmacro.h **** 
 205:Middlewares/Third_Party/FreeRTOS/Source/portable/GCC/ARM_CM4F/portmacro.h **** /*-----------------------------------------------------------*/
 206:Middlewares/Third_Party/FreeRTOS/Source/portable/GCC/ARM_CM4F/portmacro.h **** 
 207:Middlewares/Third_Party/FreeRTOS/Source/portable/GCC/ARM_CM4F/portmacro.h **** portFORCE_INLINE static uint32_t ulPortRaiseBASEPRI( void )
 827              		.loc 2 207 34 view .LVU235
 828              	.LBB58:
 208:Middlewares/Third_Party/FreeRTOS/Source/portable/GCC/ARM_CM4F/portmacro.h **** {
 209:Middlewares/Third_Party/FreeRTOS/Source/portable/GCC/ARM_CM4F/portmacro.h **** uint32_t ulOriginalBASEPRI, ulNewBASEPRI;
 829              		.loc 2 209 1 view .LVU236
 210:Middlewares/Third_Party/FreeRTOS/Source/portable/GCC/ARM_CM4F/portmacro.h **** 
 211:Middlewares/Third_Party/FreeRTOS/Source/portable/GCC/ARM_CM4F/portmacro.h **** 	__asm volatile
 830              		.loc 2 211 2 view .LVU237
ARM GAS  C:\Users\KETEN_~1\AppData\Local\Temp\ccIeQTbg.s 			page 35


 831              		.syntax unified
 832              	@ 211 "Middlewares/Third_Party/FreeRTOS/Source/portable/GCC/ARM_CM4F/portmacro.h" 1
 833 0000 EFF31183 			mrs r3, basepri											
 834 0004 4FF05002 		mov r2, #80												
 835 0008 82F31188 		msr basepri, r2											
 836 000c BFF36F8F 		isb														
 837 0010 BFF34F8F 		dsb														
 838              	
 839              	@ 0 "" 2
 840              	.LVL63:
 212:Middlewares/Third_Party/FreeRTOS/Source/portable/GCC/ARM_CM4F/portmacro.h **** 	(
 213:Middlewares/Third_Party/FreeRTOS/Source/portable/GCC/ARM_CM4F/portmacro.h **** 		"	mrs %0, basepri											\n" \
 214:Middlewares/Third_Party/FreeRTOS/Source/portable/GCC/ARM_CM4F/portmacro.h **** 		"	mov %1, %2												\n"	\
 215:Middlewares/Third_Party/FreeRTOS/Source/portable/GCC/ARM_CM4F/portmacro.h **** 		"	msr basepri, %1											\n" \
 216:Middlewares/Third_Party/FreeRTOS/Source/portable/GCC/ARM_CM4F/portmacro.h **** 		"	isb														\n" \
 217:Middlewares/Third_Party/FreeRTOS/Source/portable/GCC/ARM_CM4F/portmacro.h **** 		"	dsb														\n" \
 218:Middlewares/Third_Party/FreeRTOS/Source/portable/GCC/ARM_CM4F/portmacro.h **** 		:"=r" (ulOriginalBASEPRI), "=r" (ulNewBASEPRI) : "i" ( configMAX_SYSCALL_INTERRUPT_PRIORITY ) : "
 219:Middlewares/Third_Party/FreeRTOS/Source/portable/GCC/ARM_CM4F/portmacro.h **** 	);
 220:Middlewares/Third_Party/FreeRTOS/Source/portable/GCC/ARM_CM4F/portmacro.h **** 
 221:Middlewares/Third_Party/FreeRTOS/Source/portable/GCC/ARM_CM4F/portmacro.h **** 	/* This return will not be reached but is necessary to prevent compiler
 222:Middlewares/Third_Party/FreeRTOS/Source/portable/GCC/ARM_CM4F/portmacro.h **** 	warnings. */
 223:Middlewares/Third_Party/FreeRTOS/Source/portable/GCC/ARM_CM4F/portmacro.h **** 	return ulOriginalBASEPRI;
 841              		.loc 2 223 2 view .LVU238
 842              		.loc 2 223 2 is_stmt 0 view .LVU239
 843              		.thumb
 844              		.syntax unified
 845              	.LBE58:
 846              	.LBE57:
 511:Middlewares/Third_Party/FreeRTOS/Source/event_groups.c **** 	}
 847              		.loc 1 511 3 is_stmt 1 view .LVU240
 511:Middlewares/Third_Party/FreeRTOS/Source/event_groups.c **** 	}
 848              		.loc 1 511 12 is_stmt 0 view .LVU241
 849 0014 0068     		ldr	r0, [r0]
 850              	.LVL64:
 513:Middlewares/Third_Party/FreeRTOS/Source/event_groups.c **** 
 851              		.loc 1 513 2 is_stmt 1 view .LVU242
 852              	.LBB59:
 853              	.LBI59:
 224:Middlewares/Third_Party/FreeRTOS/Source/portable/GCC/ARM_CM4F/portmacro.h **** }
 225:Middlewares/Third_Party/FreeRTOS/Source/portable/GCC/ARM_CM4F/portmacro.h **** /*-----------------------------------------------------------*/
 226:Middlewares/Third_Party/FreeRTOS/Source/portable/GCC/ARM_CM4F/portmacro.h **** 
 227:Middlewares/Third_Party/FreeRTOS/Source/portable/GCC/ARM_CM4F/portmacro.h **** portFORCE_INLINE static void vPortSetBASEPRI( uint32_t ulNewMaskValue )
 854              		.loc 2 227 30 view .LVU243
 855              	.LBB60:
 228:Middlewares/Third_Party/FreeRTOS/Source/portable/GCC/ARM_CM4F/portmacro.h **** {
 229:Middlewares/Third_Party/FreeRTOS/Source/portable/GCC/ARM_CM4F/portmacro.h **** 	__asm volatile
 856              		.loc 2 229 2 view .LVU244
 857              		.syntax unified
 858              	@ 229 "Middlewares/Third_Party/FreeRTOS/Source/portable/GCC/ARM_CM4F/portmacro.h" 1
 859 0016 83F31188 			msr basepri, r3	
 860              	@ 0 "" 2
 861              	.LVL65:
 862              		.loc 2 229 2 is_stmt 0 view .LVU245
 863              		.thumb
 864              		.syntax unified
 865              	.LBE60:
 866              	.LBE59:
ARM GAS  C:\Users\KETEN_~1\AppData\Local\Temp\ccIeQTbg.s 			page 36


 515:Middlewares/Third_Party/FreeRTOS/Source/event_groups.c **** } /*lint !e818 EventGroupHandle_t is a typedef used in other functions to so can't be pointer to co
 867              		.loc 1 515 2 is_stmt 1 view .LVU246
 516:Middlewares/Third_Party/FreeRTOS/Source/event_groups.c **** /*-----------------------------------------------------------*/
 868              		.loc 1 516 1 is_stmt 0 view .LVU247
 869 001a 7047     		bx	lr
 870              		.cfi_endproc
 871              	.LFE10:
 873              		.section	.text.xEventGroupSetBits,"ax",%progbits
 874              		.align	1
 875              		.global	xEventGroupSetBits
 876              		.syntax unified
 877              		.thumb
 878              		.thumb_func
 880              	xEventGroupSetBits:
 881              	.LVL66:
 882              	.LFB11:
 520:Middlewares/Third_Party/FreeRTOS/Source/event_groups.c **** ListItem_t *pxListItem, *pxNext;
 883              		.loc 1 520 1 is_stmt 1 view -0
 884              		.cfi_startproc
 885              		@ args = 0, pretend = 0, frame = 0
 886              		@ frame_needed = 0, uses_anonymous_args = 0
 520:Middlewares/Third_Party/FreeRTOS/Source/event_groups.c **** ListItem_t *pxListItem, *pxNext;
 887              		.loc 1 520 1 is_stmt 0 view .LVU249
 888 0000 F8B5     		push	{r3, r4, r5, r6, r7, lr}
 889              	.LCFI14:
 890              		.cfi_def_cfa_offset 24
 891              		.cfi_offset 3, -24
 892              		.cfi_offset 4, -20
 893              		.cfi_offset 5, -16
 894              		.cfi_offset 6, -12
 895              		.cfi_offset 7, -8
 896              		.cfi_offset 14, -4
 521:Middlewares/Third_Party/FreeRTOS/Source/event_groups.c **** ListItem_t const *pxListEnd;
 897              		.loc 1 521 1 is_stmt 1 view .LVU250
 522:Middlewares/Third_Party/FreeRTOS/Source/event_groups.c **** List_t const * pxList;
 898              		.loc 1 522 1 view .LVU251
 523:Middlewares/Third_Party/FreeRTOS/Source/event_groups.c **** EventBits_t uxBitsToClear = 0, uxBitsWaitedFor, uxControlBits;
 899              		.loc 1 523 1 view .LVU252
 524:Middlewares/Third_Party/FreeRTOS/Source/event_groups.c **** EventGroup_t *pxEventBits = xEventGroup;
 900              		.loc 1 524 1 view .LVU253
 901              	.LVL67:
 525:Middlewares/Third_Party/FreeRTOS/Source/event_groups.c **** BaseType_t xMatchFound = pdFALSE;
 902              		.loc 1 525 1 view .LVU254
 526:Middlewares/Third_Party/FreeRTOS/Source/event_groups.c **** 
 903              		.loc 1 526 1 view .LVU255
 530:Middlewares/Third_Party/FreeRTOS/Source/event_groups.c **** 	configASSERT( ( uxBitsToSet & eventEVENT_BITS_CONTROL_BYTES ) == 0 );
 904              		.loc 1 530 2 view .LVU256
 905 0002 68B1     		cbz	r0, .L67
 906 0004 0D46     		mov	r5, r1
 907 0006 0446     		mov	r4, r0
 530:Middlewares/Third_Party/FreeRTOS/Source/event_groups.c **** 	configASSERT( ( uxBitsToSet & eventEVENT_BITS_CONTROL_BYTES ) == 0 );
 908              		.loc 1 530 29 discriminator 2 view .LVU257
 531:Middlewares/Third_Party/FreeRTOS/Source/event_groups.c **** 
 909              		.loc 1 531 2 view .LVU258
 910 0008 B1F1807F 		cmp	r1, #16777216
 911 000c 11D3     		bcc	.L58
 531:Middlewares/Third_Party/FreeRTOS/Source/event_groups.c **** 
ARM GAS  C:\Users\KETEN_~1\AppData\Local\Temp\ccIeQTbg.s 			page 37


 912              		.loc 1 531 2 discriminator 1 view .LVU259
 913              	.LBB61:
 914              	.LBI61:
 191:Middlewares/Third_Party/FreeRTOS/Source/portable/GCC/ARM_CM4F/portmacro.h **** {
 915              		.loc 2 191 30 view .LVU260
 916              	.LBB62:
 193:Middlewares/Third_Party/FreeRTOS/Source/portable/GCC/ARM_CM4F/portmacro.h **** 
 917              		.loc 2 193 1 view .LVU261
 195:Middlewares/Third_Party/FreeRTOS/Source/portable/GCC/ARM_CM4F/portmacro.h **** 	(
 918              		.loc 2 195 2 view .LVU262
 919              		.syntax unified
 920              	@ 195 "Middlewares/Third_Party/FreeRTOS/Source/portable/GCC/ARM_CM4F/portmacro.h" 1
 921 000e 4FF05003 			mov r3, #80												
 922 0012 83F31188 		msr basepri, r3											
 923 0016 BFF36F8F 		isb														
 924 001a BFF34F8F 		dsb														
 925              	
 926              	@ 0 "" 2
 927              		.thumb
 928              		.syntax unified
 929              	.L59:
 930              	.LBE62:
 931              	.LBE61:
 531:Middlewares/Third_Party/FreeRTOS/Source/event_groups.c **** 
 932              		.loc 1 531 2 discriminator 3 view .LVU263
 531:Middlewares/Third_Party/FreeRTOS/Source/event_groups.c **** 
 933              		.loc 1 531 2 discriminator 3 view .LVU264
 934 001e FEE7     		b	.L59
 935              	.L67:
 530:Middlewares/Third_Party/FreeRTOS/Source/event_groups.c **** 	configASSERT( ( uxBitsToSet & eventEVENT_BITS_CONTROL_BYTES ) == 0 );
 936              		.loc 1 530 2 discriminator 1 view .LVU265
 937              	.LBB63:
 938              	.LBI63:
 191:Middlewares/Third_Party/FreeRTOS/Source/portable/GCC/ARM_CM4F/portmacro.h **** {
 939              		.loc 2 191 30 view .LVU266
 940              	.LBB64:
 193:Middlewares/Third_Party/FreeRTOS/Source/portable/GCC/ARM_CM4F/portmacro.h **** 
 941              		.loc 2 193 1 view .LVU267
 195:Middlewares/Third_Party/FreeRTOS/Source/portable/GCC/ARM_CM4F/portmacro.h **** 	(
 942              		.loc 2 195 2 view .LVU268
 943              		.syntax unified
 944              	@ 195 "Middlewares/Third_Party/FreeRTOS/Source/portable/GCC/ARM_CM4F/portmacro.h" 1
 945 0020 4FF05003 			mov r3, #80												
 946 0024 83F31188 		msr basepri, r3											
 947 0028 BFF36F8F 		isb														
 948 002c BFF34F8F 		dsb														
 949              	
 950              	@ 0 "" 2
 951              		.thumb
 952              		.syntax unified
 953              	.L57:
 954              	.LBE64:
 955              	.LBE63:
 530:Middlewares/Third_Party/FreeRTOS/Source/event_groups.c **** 	configASSERT( ( uxBitsToSet & eventEVENT_BITS_CONTROL_BYTES ) == 0 );
 956              		.loc 1 530 2 discriminator 3 view .LVU269
 530:Middlewares/Third_Party/FreeRTOS/Source/event_groups.c **** 	configASSERT( ( uxBitsToSet & eventEVENT_BITS_CONTROL_BYTES ) == 0 );
 957              		.loc 1 530 2 discriminator 3 view .LVU270
ARM GAS  C:\Users\KETEN_~1\AppData\Local\Temp\ccIeQTbg.s 			page 38


 958 0030 FEE7     		b	.L57
 959              	.L58:
 531:Middlewares/Third_Party/FreeRTOS/Source/event_groups.c **** 
 960              		.loc 1 531 70 discriminator 2 view .LVU271
 533:Middlewares/Third_Party/FreeRTOS/Source/event_groups.c **** 	pxListEnd = listGET_END_MARKER( pxList ); /*lint !e826 !e740 !e9087 The mini list structure is use
 961              		.loc 1 533 2 view .LVU272
 962              	.LVL68:
 534:Middlewares/Third_Party/FreeRTOS/Source/event_groups.c **** 	vTaskSuspendAll();
 963              		.loc 1 534 2 view .LVU273
 534:Middlewares/Third_Party/FreeRTOS/Source/event_groups.c **** 	vTaskSuspendAll();
 964              		.loc 1 534 12 is_stmt 0 view .LVU274
 965 0032 00F10C06 		add	r6, r0, #12
 966              	.LVL69:
 535:Middlewares/Third_Party/FreeRTOS/Source/event_groups.c **** 	{
 967              		.loc 1 535 2 is_stmt 1 view .LVU275
 968 0036 FFF7FEFF 		bl	vTaskSuspendAll
 969              	.LVL70:
 537:Middlewares/Third_Party/FreeRTOS/Source/event_groups.c **** 
 970              		.loc 1 537 56 view .LVU276
 539:Middlewares/Third_Party/FreeRTOS/Source/event_groups.c **** 
 971              		.loc 1 539 3 view .LVU277
 539:Middlewares/Third_Party/FreeRTOS/Source/event_groups.c **** 
 972              		.loc 1 539 14 is_stmt 0 view .LVU278
 973 003a 2069     		ldr	r0, [r4, #16]
 974              	.LVL71:
 542:Middlewares/Third_Party/FreeRTOS/Source/event_groups.c **** 
 975              		.loc 1 542 3 is_stmt 1 view .LVU279
 542:Middlewares/Third_Party/FreeRTOS/Source/event_groups.c **** 
 976              		.loc 1 542 14 is_stmt 0 view .LVU280
 977 003c 2368     		ldr	r3, [r4]
 542:Middlewares/Third_Party/FreeRTOS/Source/event_groups.c **** 
 978              		.loc 1 542 28 view .LVU281
 979 003e 2B43     		orrs	r3, r3, r5
 980 0040 2360     		str	r3, [r4]
 545:Middlewares/Third_Party/FreeRTOS/Source/event_groups.c **** 		{
 981              		.loc 1 545 3 is_stmt 1 view .LVU282
 524:Middlewares/Third_Party/FreeRTOS/Source/event_groups.c **** EventGroup_t *pxEventBits = xEventGroup;
 982              		.loc 1 524 13 is_stmt 0 view .LVU283
 983 0042 0027     		movs	r7, #0
 545:Middlewares/Third_Party/FreeRTOS/Source/event_groups.c **** 		{
 984              		.loc 1 545 8 view .LVU284
 985 0044 0AE0     		b	.L60
 986              	.LVL72:
 987              	.L61:
 567:Middlewares/Third_Party/FreeRTOS/Source/event_groups.c **** 			{
 988              		.loc 1 567 9 is_stmt 1 view .LVU285
 567:Middlewares/Third_Party/FreeRTOS/Source/event_groups.c **** 			{
 989              		.loc 1 567 44 is_stmt 0 view .LVU286
 990 0046 2168     		ldr	r1, [r4]
 567:Middlewares/Third_Party/FreeRTOS/Source/event_groups.c **** 			{
 991              		.loc 1 567 11 view .LVU287
 992 0048 32EA0101 		bics	r1, r2, r1
 993 004c 05D1     		bne	.L63
 567:Middlewares/Third_Party/FreeRTOS/Source/event_groups.c **** 			{
 994              		.loc 1 567 11 view .LVU288
 995 004e 11E0     		b	.L62
 996              	.LVL73:
ARM GAS  C:\Users\KETEN_~1\AppData\Local\Temp\ccIeQTbg.s 			page 39


 997              	.L64:
 586:Middlewares/Third_Party/FreeRTOS/Source/event_groups.c **** 				}
 998              		.loc 1 586 30 is_stmt 1 view .LVU289
 594:Middlewares/Third_Party/FreeRTOS/Source/event_groups.c **** 			}
 999              		.loc 1 594 5 view .LVU290
 594:Middlewares/Third_Party/FreeRTOS/Source/event_groups.c **** 			}
 1000              		.loc 1 594 63 is_stmt 0 view .LVU291
 1001 0050 2168     		ldr	r1, [r4]
 594:Middlewares/Third_Party/FreeRTOS/Source/event_groups.c **** 			}
 1002              		.loc 1 594 5 view .LVU292
 1003 0052 41F00071 		orr	r1, r1, #33554432
 1004 0056 FFF7FEFF 		bl	vTaskRemoveFromUnorderedEventList
 1005              	.LVL74:
 1006              	.L63:
 520:Middlewares/Third_Party/FreeRTOS/Source/event_groups.c **** ListItem_t *pxListItem, *pxNext;
 1007              		.loc 1 520 1 view .LVU293
 1008 005a 2846     		mov	r0, r5
 1009              	.LVL75:
 1010              	.L60:
 545:Middlewares/Third_Party/FreeRTOS/Source/event_groups.c **** 		{
 1011              		.loc 1 545 21 is_stmt 1 view .LVU294
 1012 005c B042     		cmp	r0, r6
 1013 005e 0ED0     		beq	.L68
 547:Middlewares/Third_Party/FreeRTOS/Source/event_groups.c **** 			uxBitsWaitedFor = listGET_LIST_ITEM_VALUE( pxListItem );
 1014              		.loc 1 547 4 view .LVU295
 547:Middlewares/Third_Party/FreeRTOS/Source/event_groups.c **** 			uxBitsWaitedFor = listGET_LIST_ITEM_VALUE( pxListItem );
 1015              		.loc 1 547 11 is_stmt 0 view .LVU296
 1016 0060 4568     		ldr	r5, [r0, #4]
 1017              	.LVL76:
 548:Middlewares/Third_Party/FreeRTOS/Source/event_groups.c **** 			xMatchFound = pdFALSE;
 1018              		.loc 1 548 4 is_stmt 1 view .LVU297
 548:Middlewares/Third_Party/FreeRTOS/Source/event_groups.c **** 			xMatchFound = pdFALSE;
 1019              		.loc 1 548 20 is_stmt 0 view .LVU298
 1020 0062 0368     		ldr	r3, [r0]
 1021              	.LVL77:
 549:Middlewares/Third_Party/FreeRTOS/Source/event_groups.c **** 
 1022              		.loc 1 549 4 is_stmt 1 view .LVU299
 552:Middlewares/Third_Party/FreeRTOS/Source/event_groups.c **** 			uxBitsWaitedFor &= ~eventEVENT_BITS_CONTROL_BYTES;
 1023              		.loc 1 552 4 view .LVU300
 553:Middlewares/Third_Party/FreeRTOS/Source/event_groups.c **** 
 1024              		.loc 1 553 4 view .LVU301
 553:Middlewares/Third_Party/FreeRTOS/Source/event_groups.c **** 
 1025              		.loc 1 553 20 is_stmt 0 view .LVU302
 1026 0064 23F07F42 		bic	r2, r3, #-16777216
 1027              	.LVL78:
 555:Middlewares/Third_Party/FreeRTOS/Source/event_groups.c **** 			{
 1028              		.loc 1 555 4 is_stmt 1 view .LVU303
 555:Middlewares/Third_Party/FreeRTOS/Source/event_groups.c **** 			{
 1029              		.loc 1 555 6 is_stmt 0 view .LVU304
 1030 0068 13F0806F 		tst	r3, #67108864
 1031 006c EBD1     		bne	.L61
 558:Middlewares/Third_Party/FreeRTOS/Source/event_groups.c **** 				{
 1032              		.loc 1 558 5 is_stmt 1 view .LVU305
 558:Middlewares/Third_Party/FreeRTOS/Source/event_groups.c **** 				{
 1033              		.loc 1 558 40 is_stmt 0 view .LVU306
 1034 006e 2168     		ldr	r1, [r4]
 558:Middlewares/Third_Party/FreeRTOS/Source/event_groups.c **** 				{
ARM GAS  C:\Users\KETEN_~1\AppData\Local\Temp\ccIeQTbg.s 			page 40


 1035              		.loc 1 558 7 view .LVU307
 1036 0070 1142     		tst	r1, r2
 1037 0072 F2D0     		beq	.L63
 1038              	.L62:
 1039              	.LVL79:
 580:Middlewares/Third_Party/FreeRTOS/Source/event_groups.c **** 				{
 1040              		.loc 1 580 5 is_stmt 1 view .LVU308
 580:Middlewares/Third_Party/FreeRTOS/Source/event_groups.c **** 				{
 1041              		.loc 1 580 7 is_stmt 0 view .LVU309
 1042 0074 13F0807F 		tst	r3, #16777216
 1043 0078 EAD0     		beq	.L64
 582:Middlewares/Third_Party/FreeRTOS/Source/event_groups.c **** 				}
 1044              		.loc 1 582 6 is_stmt 1 view .LVU310
 582:Middlewares/Third_Party/FreeRTOS/Source/event_groups.c **** 				}
 1045              		.loc 1 582 20 is_stmt 0 view .LVU311
 1046 007a 1743     		orrs	r7, r7, r2
 1047              	.LVL80:
 582:Middlewares/Third_Party/FreeRTOS/Source/event_groups.c **** 				}
 1048              		.loc 1 582 20 view .LVU312
 1049 007c E8E7     		b	.L64
 1050              	.LVL81:
 1051              	.L68:
 605:Middlewares/Third_Party/FreeRTOS/Source/event_groups.c **** 	}
 1052              		.loc 1 605 3 is_stmt 1 view .LVU313
 605:Middlewares/Third_Party/FreeRTOS/Source/event_groups.c **** 	}
 1053              		.loc 1 605 14 is_stmt 0 view .LVU314
 1054 007e 2368     		ldr	r3, [r4]
 605:Middlewares/Third_Party/FreeRTOS/Source/event_groups.c **** 	}
 1055              		.loc 1 605 28 view .LVU315
 1056 0080 23EA0703 		bic	r3, r3, r7
 1057 0084 2360     		str	r3, [r4]
 607:Middlewares/Third_Party/FreeRTOS/Source/event_groups.c **** 
 1058              		.loc 1 607 2 is_stmt 1 view .LVU316
 607:Middlewares/Third_Party/FreeRTOS/Source/event_groups.c **** 
 1059              		.loc 1 607 11 is_stmt 0 view .LVU317
 1060 0086 FFF7FEFF 		bl	xTaskResumeAll
 1061              	.LVL82:
 609:Middlewares/Third_Party/FreeRTOS/Source/event_groups.c **** }
 1062              		.loc 1 609 2 is_stmt 1 view .LVU318
 610:Middlewares/Third_Party/FreeRTOS/Source/event_groups.c **** /*-----------------------------------------------------------*/
 1063              		.loc 1 610 1 is_stmt 0 view .LVU319
 1064 008a 2068     		ldr	r0, [r4]
 1065 008c F8BD     		pop	{r3, r4, r5, r6, r7, pc}
 610:Middlewares/Third_Party/FreeRTOS/Source/event_groups.c **** /*-----------------------------------------------------------*/
 1066              		.loc 1 610 1 view .LVU320
 1067              		.cfi_endproc
 1068              	.LFE11:
 1070              		.section	.text.xEventGroupSync,"ax",%progbits
 1071              		.align	1
 1072              		.global	xEventGroupSync
 1073              		.syntax unified
 1074              		.thumb
 1075              		.thumb_func
 1077              	xEventGroupSync:
 1078              	.LVL83:
 1079              	.LFB6:
 192:Middlewares/Third_Party/FreeRTOS/Source/event_groups.c **** EventBits_t uxOriginalBitValue, uxReturn;
ARM GAS  C:\Users\KETEN_~1\AppData\Local\Temp\ccIeQTbg.s 			page 41


 1080              		.loc 1 192 1 is_stmt 1 view -0
 1081              		.cfi_startproc
 1082              		@ args = 0, pretend = 0, frame = 0
 1083              		@ frame_needed = 0, uses_anonymous_args = 0
 193:Middlewares/Third_Party/FreeRTOS/Source/event_groups.c **** EventGroup_t *pxEventBits = xEventGroup;
 1084              		.loc 1 193 1 view .LVU322
 194:Middlewares/Third_Party/FreeRTOS/Source/event_groups.c **** BaseType_t xAlreadyYielded;
 1085              		.loc 1 194 1 view .LVU323
 195:Middlewares/Third_Party/FreeRTOS/Source/event_groups.c **** BaseType_t xTimeoutOccurred = pdFALSE;
 1086              		.loc 1 195 1 view .LVU324
 196:Middlewares/Third_Party/FreeRTOS/Source/event_groups.c **** 
 1087              		.loc 1 196 1 view .LVU325
 198:Middlewares/Third_Party/FreeRTOS/Source/event_groups.c **** 	configASSERT( uxBitsToWaitFor != 0 );
 1088              		.loc 1 198 2 view .LVU326
 1089 0000 B2F1807F 		cmp	r2, #16777216
 1090 0004 08D3     		bcc	.L70
 198:Middlewares/Third_Party/FreeRTOS/Source/event_groups.c **** 	configASSERT( uxBitsToWaitFor != 0 );
 1091              		.loc 1 198 2 discriminator 1 view .LVU327
 1092              	.LBB65:
 1093              	.LBI65:
 191:Middlewares/Third_Party/FreeRTOS/Source/portable/GCC/ARM_CM4F/portmacro.h **** {
 1094              		.loc 2 191 30 view .LVU328
 1095              	.LBB66:
 193:Middlewares/Third_Party/FreeRTOS/Source/portable/GCC/ARM_CM4F/portmacro.h **** 
 1096              		.loc 2 193 1 view .LVU329
 195:Middlewares/Third_Party/FreeRTOS/Source/portable/GCC/ARM_CM4F/portmacro.h **** 	(
 1097              		.loc 2 195 2 view .LVU330
 1098              		.syntax unified
 1099              	@ 195 "Middlewares/Third_Party/FreeRTOS/Source/portable/GCC/ARM_CM4F/portmacro.h" 1
 1100 0006 4FF05003 			mov r3, #80												
 1101 000a 83F31188 		msr basepri, r3											
 1102 000e BFF36F8F 		isb														
 1103 0012 BFF34F8F 		dsb														
 1104              	
 1105              	@ 0 "" 2
 1106              	.LVL84:
 1107              		.thumb
 1108              		.syntax unified
 1109              	.L71:
 195:Middlewares/Third_Party/FreeRTOS/Source/portable/GCC/ARM_CM4F/portmacro.h **** 	(
 1110              		.loc 2 195 2 is_stmt 0 view .LVU331
 1111              	.LBE66:
 1112              	.LBE65:
 198:Middlewares/Third_Party/FreeRTOS/Source/event_groups.c **** 	configASSERT( uxBitsToWaitFor != 0 );
 1113              		.loc 1 198 2 is_stmt 1 discriminator 3 view .LVU332
 198:Middlewares/Third_Party/FreeRTOS/Source/event_groups.c **** 	configASSERT( uxBitsToWaitFor != 0 );
 1114              		.loc 1 198 2 discriminator 3 view .LVU333
 1115 0016 FEE7     		b	.L71
 1116              	.LVL85:
 1117              	.L70:
 192:Middlewares/Third_Party/FreeRTOS/Source/event_groups.c **** EventBits_t uxOriginalBitValue, uxReturn;
 1118              		.loc 1 192 1 is_stmt 0 view .LVU334
 1119 0018 2DE9F041 		push	{r4, r5, r6, r7, r8, lr}
 1120              	.LCFI15:
 1121              		.cfi_def_cfa_offset 24
 1122              		.cfi_offset 4, -24
 1123              		.cfi_offset 5, -20
ARM GAS  C:\Users\KETEN_~1\AppData\Local\Temp\ccIeQTbg.s 			page 42


 1124              		.cfi_offset 6, -16
 1125              		.cfi_offset 7, -12
 1126              		.cfi_offset 8, -8
 1127              		.cfi_offset 14, -4
 1128 001c 0746     		mov	r7, r0
 1129 001e 0D46     		mov	r5, r1
 1130 0020 1446     		mov	r4, r2
 1131 0022 1E46     		mov	r6, r3
 198:Middlewares/Third_Party/FreeRTOS/Source/event_groups.c **** 	configASSERT( uxBitsToWaitFor != 0 );
 1132              		.loc 1 198 74 is_stmt 1 discriminator 2 view .LVU335
 199:Middlewares/Third_Party/FreeRTOS/Source/event_groups.c **** 	#if ( ( INCLUDE_xTaskGetSchedulerState == 1 ) || ( configUSE_TIMERS == 1 ) )
 1133              		.loc 1 199 2 view .LVU336
 1134 0024 42B9     		cbnz	r2, .L72
 199:Middlewares/Third_Party/FreeRTOS/Source/event_groups.c **** 	#if ( ( INCLUDE_xTaskGetSchedulerState == 1 ) || ( configUSE_TIMERS == 1 ) )
 1135              		.loc 1 199 2 discriminator 1 view .LVU337
 1136              	.LBB67:
 1137              	.LBI67:
 191:Middlewares/Third_Party/FreeRTOS/Source/portable/GCC/ARM_CM4F/portmacro.h **** {
 1138              		.loc 2 191 30 view .LVU338
 1139              	.LBB68:
 193:Middlewares/Third_Party/FreeRTOS/Source/portable/GCC/ARM_CM4F/portmacro.h **** 
 1140              		.loc 2 193 1 view .LVU339
 195:Middlewares/Third_Party/FreeRTOS/Source/portable/GCC/ARM_CM4F/portmacro.h **** 	(
 1141              		.loc 2 195 2 view .LVU340
 1142              		.syntax unified
 1143              	@ 195 "Middlewares/Third_Party/FreeRTOS/Source/portable/GCC/ARM_CM4F/portmacro.h" 1
 1144 0026 4FF05003 			mov r3, #80												
 1145 002a 83F31188 		msr basepri, r3											
 1146 002e BFF36F8F 		isb														
 1147 0032 BFF34F8F 		dsb														
 1148              	
 1149              	@ 0 "" 2
 1150              	.LVL86:
 1151              		.thumb
 1152              		.syntax unified
 1153              	.L73:
 195:Middlewares/Third_Party/FreeRTOS/Source/portable/GCC/ARM_CM4F/portmacro.h **** 	(
 1154              		.loc 2 195 2 is_stmt 0 view .LVU341
 1155              	.LBE68:
 1156              	.LBE67:
 199:Middlewares/Third_Party/FreeRTOS/Source/event_groups.c **** 	#if ( ( INCLUDE_xTaskGetSchedulerState == 1 ) || ( configUSE_TIMERS == 1 ) )
 1157              		.loc 1 199 2 is_stmt 1 discriminator 3 view .LVU342
 199:Middlewares/Third_Party/FreeRTOS/Source/event_groups.c **** 	#if ( ( INCLUDE_xTaskGetSchedulerState == 1 ) || ( configUSE_TIMERS == 1 ) )
 1158              		.loc 1 199 2 discriminator 3 view .LVU343
 1159 0036 FEE7     		b	.L73
 1160              	.LVL87:
 1161              	.L72:
 199:Middlewares/Third_Party/FreeRTOS/Source/event_groups.c **** 	#if ( ( INCLUDE_xTaskGetSchedulerState == 1 ) || ( configUSE_TIMERS == 1 ) )
 1162              		.loc 1 199 38 discriminator 2 view .LVU344
 202:Middlewares/Third_Party/FreeRTOS/Source/event_groups.c **** 	}
 1163              		.loc 1 202 3 view .LVU345
 1164 0038 FFF7FEFF 		bl	xTaskGetSchedulerState
 1165              	.LVL88:
 202:Middlewares/Third_Party/FreeRTOS/Source/event_groups.c **** 	}
 1166              		.loc 1 202 3 is_stmt 0 discriminator 1 view .LVU346
 1167 003c 48B9     		cbnz	r0, .L74
 202:Middlewares/Third_Party/FreeRTOS/Source/event_groups.c **** 	}
ARM GAS  C:\Users\KETEN_~1\AppData\Local\Temp\ccIeQTbg.s 			page 43


 1168              		.loc 1 202 3 discriminator 2 view .LVU347
 1169 003e 46B1     		cbz	r6, .L74
 202:Middlewares/Third_Party/FreeRTOS/Source/event_groups.c **** 	}
 1170              		.loc 1 202 3 is_stmt 1 discriminator 7 view .LVU348
 1171              	.LBB69:
 1172              	.LBI69:
 191:Middlewares/Third_Party/FreeRTOS/Source/portable/GCC/ARM_CM4F/portmacro.h **** {
 1173              		.loc 2 191 30 view .LVU349
 1174              	.LBB70:
 193:Middlewares/Third_Party/FreeRTOS/Source/portable/GCC/ARM_CM4F/portmacro.h **** 
 1175              		.loc 2 193 1 view .LVU350
 195:Middlewares/Third_Party/FreeRTOS/Source/portable/GCC/ARM_CM4F/portmacro.h **** 	(
 1176              		.loc 2 195 2 view .LVU351
 1177              		.syntax unified
 1178              	@ 195 "Middlewares/Third_Party/FreeRTOS/Source/portable/GCC/ARM_CM4F/portmacro.h" 1
 1179 0040 4FF05003 			mov r3, #80												
 1180 0044 83F31188 		msr basepri, r3											
 1181 0048 BFF36F8F 		isb														
 1182 004c BFF34F8F 		dsb														
 1183              	
 1184              	@ 0 "" 2
 1185              		.thumb
 1186              		.syntax unified
 1187              	.L75:
 1188              	.LBE70:
 1189              	.LBE69:
 202:Middlewares/Third_Party/FreeRTOS/Source/event_groups.c **** 	}
 1190              		.loc 1 202 3 discriminator 9 view .LVU352
 202:Middlewares/Third_Party/FreeRTOS/Source/event_groups.c **** 	}
 1191              		.loc 1 202 3 discriminator 9 view .LVU353
 1192 0050 FEE7     		b	.L75
 1193              	.L74:
 202:Middlewares/Third_Party/FreeRTOS/Source/event_groups.c **** 	}
 1194              		.loc 1 202 104 discriminator 8 view .LVU354
 206:Middlewares/Third_Party/FreeRTOS/Source/event_groups.c **** 	{
 1195              		.loc 1 206 2 view .LVU355
 1196 0052 FFF7FEFF 		bl	vTaskSuspendAll
 1197              	.LVL89:
 208:Middlewares/Third_Party/FreeRTOS/Source/event_groups.c **** 
 1198              		.loc 1 208 3 view .LVU356
 208:Middlewares/Third_Party/FreeRTOS/Source/event_groups.c **** 
 1199              		.loc 1 208 22 is_stmt 0 view .LVU357
 1200 0056 D7F80080 		ldr	r8, [r7]
 1201              	.LVL90:
 210:Middlewares/Third_Party/FreeRTOS/Source/event_groups.c **** 
 1202              		.loc 1 210 3 is_stmt 1 view .LVU358
 210:Middlewares/Third_Party/FreeRTOS/Source/event_groups.c **** 
 1203              		.loc 1 210 12 is_stmt 0 view .LVU359
 1204 005a 2946     		mov	r1, r5
 1205 005c 3846     		mov	r0, r7
 1206 005e FFF7FEFF 		bl	xEventGroupSetBits
 1207              	.LVL91:
 212:Middlewares/Third_Party/FreeRTOS/Source/event_groups.c **** 		{
 1208              		.loc 1 212 3 is_stmt 1 view .LVU360
 212:Middlewares/Third_Party/FreeRTOS/Source/event_groups.c **** 		{
 1209              		.loc 1 212 30 is_stmt 0 view .LVU361
 1210 0062 48EA0505 		orr	r5, r8, r5
ARM GAS  C:\Users\KETEN_~1\AppData\Local\Temp\ccIeQTbg.s 			page 44


 1211              	.LVL92:
 212:Middlewares/Third_Party/FreeRTOS/Source/event_groups.c **** 		{
 1212              		.loc 1 212 5 view .LVU362
 1213 0066 34EA0503 		bics	r3, r4, r5
 1214 006a 1AD0     		beq	.L85
 225:Middlewares/Third_Party/FreeRTOS/Source/event_groups.c **** 			{
 1215              		.loc 1 225 4 is_stmt 1 view .LVU363
 225:Middlewares/Third_Party/FreeRTOS/Source/event_groups.c **** 			{
 1216              		.loc 1 225 6 is_stmt 0 view .LVU364
 1217 006c FEB9     		cbnz	r6, .L86
 244:Middlewares/Third_Party/FreeRTOS/Source/event_groups.c **** 				xTimeoutOccurred = pdTRUE;
 1218              		.loc 1 244 5 is_stmt 1 view .LVU365
 244:Middlewares/Third_Party/FreeRTOS/Source/event_groups.c **** 				xTimeoutOccurred = pdTRUE;
 1219              		.loc 1 244 14 is_stmt 0 view .LVU366
 1220 006e 3D68     		ldr	r5, [r7]
 1221              	.LVL93:
 245:Middlewares/Third_Party/FreeRTOS/Source/event_groups.c **** 			}
 1222              		.loc 1 245 5 is_stmt 1 view .LVU367
 1223              	.L77:
 249:Middlewares/Third_Party/FreeRTOS/Source/event_groups.c **** 
 1224              		.loc 1 249 2 view .LVU368
 249:Middlewares/Third_Party/FreeRTOS/Source/event_groups.c **** 
 1225              		.loc 1 249 20 is_stmt 0 view .LVU369
 1226 0070 FFF7FEFF 		bl	xTaskResumeAll
 1227              	.LVL94:
 251:Middlewares/Third_Party/FreeRTOS/Source/event_groups.c **** 	{
 1228              		.loc 1 251 2 is_stmt 1 view .LVU370
 251:Middlewares/Third_Party/FreeRTOS/Source/event_groups.c **** 	{
 1229              		.loc 1 251 4 is_stmt 0 view .LVU371
 1230 0074 96B1     		cbz	r6, .L69
 253:Middlewares/Third_Party/FreeRTOS/Source/event_groups.c **** 		{
 1231              		.loc 1 253 3 is_stmt 1 view .LVU372
 253:Middlewares/Third_Party/FreeRTOS/Source/event_groups.c **** 		{
 1232              		.loc 1 253 5 is_stmt 0 view .LVU373
 1233 0076 48B9     		cbnz	r0, .L80
 255:Middlewares/Third_Party/FreeRTOS/Source/event_groups.c **** 		}
 1234              		.loc 1 255 4 is_stmt 1 view .LVU374
 1235 0078 4FF0E023 		mov	r3, #-536813568
 1236 007c 4FF08052 		mov	r2, #268435456
 1237 0080 C3F8042D 		str	r2, [r3, #3332]
 255:Middlewares/Third_Party/FreeRTOS/Source/event_groups.c **** 		}
 1238              		.loc 1 255 4 view .LVU375
 1239              		.syntax unified
 1240              	@ 255 "Middlewares/Third_Party/FreeRTOS/Source/event_groups.c" 1
 1241 0084 BFF34F8F 		dsb
 1242              	@ 0 "" 2
 255:Middlewares/Third_Party/FreeRTOS/Source/event_groups.c **** 		}
 1243              		.loc 1 255 4 view .LVU376
 1244              	@ 255 "Middlewares/Third_Party/FreeRTOS/Source/event_groups.c" 1
 1245 0088 BFF36F8F 		isb
 1246              	@ 0 "" 2
 255:Middlewares/Third_Party/FreeRTOS/Source/event_groups.c **** 		}
 1247              		.loc 1 255 26 view .LVU377
 1248              		.thumb
 1249              		.syntax unified
 1250              	.L80:
 259:Middlewares/Third_Party/FreeRTOS/Source/event_groups.c **** 		}
ARM GAS  C:\Users\KETEN_~1\AppData\Local\Temp\ccIeQTbg.s 			page 45


 1251              		.loc 1 259 28 view .LVU378
 266:Middlewares/Third_Party/FreeRTOS/Source/event_groups.c **** 
 1252              		.loc 1 266 3 view .LVU379
 266:Middlewares/Third_Party/FreeRTOS/Source/event_groups.c **** 
 1253              		.loc 1 266 14 is_stmt 0 view .LVU380
 1254 008c FFF7FEFF 		bl	uxTaskResetEventItemValue
 1255              	.LVL95:
 266:Middlewares/Third_Party/FreeRTOS/Source/event_groups.c **** 
 1256              		.loc 1 266 14 view .LVU381
 1257 0090 0546     		mov	r5, r0
 1258              	.LVL96:
 268:Middlewares/Third_Party/FreeRTOS/Source/event_groups.c **** 		{
 1259              		.loc 1 268 3 is_stmt 1 view .LVU382
 268:Middlewares/Third_Party/FreeRTOS/Source/event_groups.c **** 		{
 1260              		.loc 1 268 5 is_stmt 0 view .LVU383
 1261 0092 10F0007F 		tst	r0, #33554432
 1262 0096 12D0     		beq	.L87
 1263              	.LVL97:
 1264              	.L81:
 295:Middlewares/Third_Party/FreeRTOS/Source/event_groups.c **** 
 1265              		.loc 1 295 3 is_stmt 1 view .LVU384
 299:Middlewares/Third_Party/FreeRTOS/Source/event_groups.c **** 	}
 1266              		.loc 1 299 3 view .LVU385
 299:Middlewares/Third_Party/FreeRTOS/Source/event_groups.c **** 	}
 1267              		.loc 1 299 12 is_stmt 0 view .LVU386
 1268 0098 25F07F45 		bic	r5, r5, #-16777216
 1269              	.LVL98:
 302:Middlewares/Third_Party/FreeRTOS/Source/event_groups.c **** 
 1270              		.loc 1 302 2 is_stmt 1 view .LVU387
 305:Middlewares/Third_Party/FreeRTOS/Source/event_groups.c **** 
 1271              		.loc 1 305 2 view .LVU388
 307:Middlewares/Third_Party/FreeRTOS/Source/event_groups.c **** }
 1272              		.loc 1 307 2 view .LVU389
 1273              	.L69:
 308:Middlewares/Third_Party/FreeRTOS/Source/event_groups.c **** /*-----------------------------------------------------------*/
 1274              		.loc 1 308 1 is_stmt 0 view .LVU390
 1275 009c 2846     		mov	r0, r5
 1276 009e BDE8F081 		pop	{r4, r5, r6, r7, r8, pc}
 1277              	.LVL99:
 1278              	.L85:
 215:Middlewares/Third_Party/FreeRTOS/Source/event_groups.c **** 
 1279              		.loc 1 215 4 is_stmt 1 view .LVU391
 219:Middlewares/Third_Party/FreeRTOS/Source/event_groups.c **** 
 1280              		.loc 1 219 4 view .LVU392
 219:Middlewares/Third_Party/FreeRTOS/Source/event_groups.c **** 
 1281              		.loc 1 219 15 is_stmt 0 view .LVU393
 1282 00a2 3B68     		ldr	r3, [r7]
 219:Middlewares/Third_Party/FreeRTOS/Source/event_groups.c **** 
 1283              		.loc 1 219 29 view .LVU394
 1284 00a4 23EA0403 		bic	r3, r3, r4
 1285 00a8 3B60     		str	r3, [r7]
 221:Middlewares/Third_Party/FreeRTOS/Source/event_groups.c **** 		}
 1286              		.loc 1 221 4 is_stmt 1 view .LVU395
 1287              	.LVL100:
 221:Middlewares/Third_Party/FreeRTOS/Source/event_groups.c **** 		}
 1288              		.loc 1 221 17 is_stmt 0 view .LVU396
 1289 00aa 0026     		movs	r6, #0
ARM GAS  C:\Users\KETEN_~1\AppData\Local\Temp\ccIeQTbg.s 			page 46


 1290 00ac E0E7     		b	.L77
 1291              	.LVL101:
 1292              	.L86:
 227:Middlewares/Third_Party/FreeRTOS/Source/event_groups.c **** 
 1293              		.loc 1 227 77 is_stmt 1 view .LVU397
 232:Middlewares/Third_Party/FreeRTOS/Source/event_groups.c **** 
 1294              		.loc 1 232 5 view .LVU398
 1295 00ae 3246     		mov	r2, r6
 1296 00b0 44F0A061 		orr	r1, r4, #83886080
 1297 00b4 381D     		adds	r0, r7, #4
 1298 00b6 FFF7FEFF 		bl	vTaskPlaceOnUnorderedEventList
 1299              	.LVL102:
 238:Middlewares/Third_Party/FreeRTOS/Source/event_groups.c **** 			}
 1300              		.loc 1 238 5 view .LVU399
 238:Middlewares/Third_Party/FreeRTOS/Source/event_groups.c **** 			}
 1301              		.loc 1 238 14 is_stmt 0 view .LVU400
 1302 00ba 0025     		movs	r5, #0
 1303 00bc D8E7     		b	.L77
 1304              	.LVL103:
 1305              	.L87:
 271:Middlewares/Third_Party/FreeRTOS/Source/event_groups.c **** 			{
 1306              		.loc 1 271 4 is_stmt 1 view .LVU401
 1307 00be FFF7FEFF 		bl	vPortEnterCritical
 1308              	.LVL104:
 273:Middlewares/Third_Party/FreeRTOS/Source/event_groups.c **** 
 1309              		.loc 1 273 5 view .LVU402
 273:Middlewares/Third_Party/FreeRTOS/Source/event_groups.c **** 
 1310              		.loc 1 273 14 is_stmt 0 view .LVU403
 1311 00c2 3D68     		ldr	r5, [r7]
 1312              	.LVL105:
 279:Middlewares/Third_Party/FreeRTOS/Source/event_groups.c **** 				{
 1313              		.loc 1 279 5 is_stmt 1 view .LVU404
 279:Middlewares/Third_Party/FreeRTOS/Source/event_groups.c **** 				{
 1314              		.loc 1 279 7 is_stmt 0 view .LVU405
 1315 00c4 34EA0503 		bics	r3, r4, r5
 1316 00c8 02D0     		beq	.L88
 1317              	.LVL106:
 1318              	.L82:
 285:Middlewares/Third_Party/FreeRTOS/Source/event_groups.c **** 				}
 1319              		.loc 1 285 30 is_stmt 1 view .LVU406
 288:Middlewares/Third_Party/FreeRTOS/Source/event_groups.c **** 
 1320              		.loc 1 288 4 view .LVU407
 1321 00ca FFF7FEFF 		bl	vPortExitCritical
 1322              	.LVL107:
 290:Middlewares/Third_Party/FreeRTOS/Source/event_groups.c **** 		}
 1323              		.loc 1 290 4 view .LVU408
 290:Middlewares/Third_Party/FreeRTOS/Source/event_groups.c **** 		}
 1324              		.loc 1 290 4 is_stmt 0 view .LVU409
 1325 00ce E3E7     		b	.L81
 1326              	.LVL108:
 1327              	.L88:
 281:Middlewares/Third_Party/FreeRTOS/Source/event_groups.c **** 				}
 1328              		.loc 1 281 6 is_stmt 1 view .LVU410
 281:Middlewares/Third_Party/FreeRTOS/Source/event_groups.c **** 				}
 1329              		.loc 1 281 31 is_stmt 0 view .LVU411
 1330 00d0 25EA0404 		bic	r4, r5, r4
 1331              	.LVL109:
ARM GAS  C:\Users\KETEN_~1\AppData\Local\Temp\ccIeQTbg.s 			page 47


 281:Middlewares/Third_Party/FreeRTOS/Source/event_groups.c **** 				}
 1332              		.loc 1 281 31 view .LVU412
 1333 00d4 3C60     		str	r4, [r7]
 1334 00d6 F8E7     		b	.L82
 1335              		.cfi_endproc
 1336              	.LFE6:
 1338              		.section	.text.vEventGroupSetBitsCallback,"ax",%progbits
 1339              		.align	1
 1340              		.global	vEventGroupSetBitsCallback
 1341              		.syntax unified
 1342              		.thumb
 1343              		.thumb_func
 1345              	vEventGroupSetBitsCallback:
 1346              	.LVL110:
 1347              	.LFB13:
 658:Middlewares/Third_Party/FreeRTOS/Source/event_groups.c **** 	( void ) xEventGroupSetBits( pvEventGroup, ( EventBits_t ) ulBitsToSet ); /*lint !e9079 Can't avoi
 1348              		.loc 1 658 1 is_stmt 1 view -0
 1349              		.cfi_startproc
 1350              		@ args = 0, pretend = 0, frame = 0
 1351              		@ frame_needed = 0, uses_anonymous_args = 0
 658:Middlewares/Third_Party/FreeRTOS/Source/event_groups.c **** 	( void ) xEventGroupSetBits( pvEventGroup, ( EventBits_t ) ulBitsToSet ); /*lint !e9079 Can't avoi
 1352              		.loc 1 658 1 is_stmt 0 view .LVU414
 1353 0000 08B5     		push	{r3, lr}
 1354              	.LCFI16:
 1355              		.cfi_def_cfa_offset 8
 1356              		.cfi_offset 3, -8
 1357              		.cfi_offset 14, -4
 659:Middlewares/Third_Party/FreeRTOS/Source/event_groups.c **** }
 1358              		.loc 1 659 2 is_stmt 1 view .LVU415
 659:Middlewares/Third_Party/FreeRTOS/Source/event_groups.c **** }
 1359              		.loc 1 659 11 is_stmt 0 view .LVU416
 1360 0002 FFF7FEFF 		bl	xEventGroupSetBits
 1361              	.LVL111:
 660:Middlewares/Third_Party/FreeRTOS/Source/event_groups.c **** /*-----------------------------------------------------------*/
 1362              		.loc 1 660 1 view .LVU417
 1363 0006 08BD     		pop	{r3, pc}
 1364              		.cfi_endproc
 1365              	.LFE13:
 1367              		.section	.text.vEventGroupDelete,"ax",%progbits
 1368              		.align	1
 1369              		.global	vEventGroupDelete
 1370              		.syntax unified
 1371              		.thumb
 1372              		.thumb_func
 1374              	vEventGroupDelete:
 1375              	.LVL112:
 1376              	.LFB12:
 614:Middlewares/Third_Party/FreeRTOS/Source/event_groups.c **** EventGroup_t *pxEventBits = xEventGroup;
 1377              		.loc 1 614 1 is_stmt 1 view -0
 1378              		.cfi_startproc
 1379              		@ args = 0, pretend = 0, frame = 0
 1380              		@ frame_needed = 0, uses_anonymous_args = 0
 614:Middlewares/Third_Party/FreeRTOS/Source/event_groups.c **** EventGroup_t *pxEventBits = xEventGroup;
 1381              		.loc 1 614 1 is_stmt 0 view .LVU419
 1382 0000 10B5     		push	{r4, lr}
 1383              	.LCFI17:
 1384              		.cfi_def_cfa_offset 8
ARM GAS  C:\Users\KETEN_~1\AppData\Local\Temp\ccIeQTbg.s 			page 48


 1385              		.cfi_offset 4, -8
 1386              		.cfi_offset 14, -4
 1387 0002 0446     		mov	r4, r0
 615:Middlewares/Third_Party/FreeRTOS/Source/event_groups.c **** const List_t *pxTasksWaitingForBits = &( pxEventBits->xTasksWaitingForBits );
 1388              		.loc 1 615 1 is_stmt 1 view .LVU420
 1389              	.LVL113:
 616:Middlewares/Third_Party/FreeRTOS/Source/event_groups.c **** 
 1390              		.loc 1 616 1 view .LVU421
 618:Middlewares/Third_Party/FreeRTOS/Source/event_groups.c **** 	{
 1391              		.loc 1 618 2 view .LVU422
 1392 0004 FFF7FEFF 		bl	vTaskSuspendAll
 1393              	.LVL114:
 620:Middlewares/Third_Party/FreeRTOS/Source/event_groups.c **** 
 1394              		.loc 1 620 41 view .LVU423
 622:Middlewares/Third_Party/FreeRTOS/Source/event_groups.c **** 		{
 1395              		.loc 1 622 3 view .LVU424
 1396              	.L92:
 622:Middlewares/Third_Party/FreeRTOS/Source/event_groups.c **** 		{
 1397              		.loc 1 622 59 view .LVU425
 622:Middlewares/Third_Party/FreeRTOS/Source/event_groups.c **** 		{
 1398              		.loc 1 622 10 is_stmt 0 view .LVU426
 1399 0008 6368     		ldr	r3, [r4, #4]
 622:Middlewares/Third_Party/FreeRTOS/Source/event_groups.c **** 		{
 1400              		.loc 1 622 59 view .LVU427
 1401 000a 93B1     		cbz	r3, .L98
 626:Middlewares/Third_Party/FreeRTOS/Source/event_groups.c **** 			vTaskRemoveFromUnorderedEventList( pxTasksWaitingForBits->xListEnd.pxNext, eventUNBLOCKED_DUE_TO
 1402              		.loc 1 626 4 is_stmt 1 view .LVU428
 1403 000c 2069     		ldr	r0, [r4, #16]
 1404 000e 04F10C03 		add	r3, r4, #12
 1405 0012 9842     		cmp	r0, r3
 1406 0014 04D0     		beq	.L99
 626:Middlewares/Third_Party/FreeRTOS/Source/event_groups.c **** 			vTaskRemoveFromUnorderedEventList( pxTasksWaitingForBits->xListEnd.pxNext, eventUNBLOCKED_DUE_TO
 1407              		.loc 1 626 121 discriminator 2 view .LVU429
 627:Middlewares/Third_Party/FreeRTOS/Source/event_groups.c **** 		}
 1408              		.loc 1 627 4 view .LVU430
 1409 0016 4FF00071 		mov	r1, #33554432
 1410 001a FFF7FEFF 		bl	vTaskRemoveFromUnorderedEventList
 1411              	.LVL115:
 1412 001e F3E7     		b	.L92
 1413              	.L99:
 626:Middlewares/Third_Party/FreeRTOS/Source/event_groups.c **** 			vTaskRemoveFromUnorderedEventList( pxTasksWaitingForBits->xListEnd.pxNext, eventUNBLOCKED_DUE_TO
 1414              		.loc 1 626 4 discriminator 1 view .LVU431
 1415              	.LBB71:
 1416              	.LBI71:
 191:Middlewares/Third_Party/FreeRTOS/Source/portable/GCC/ARM_CM4F/portmacro.h **** {
 1417              		.loc 2 191 30 view .LVU432
 1418              	.LBB72:
 193:Middlewares/Third_Party/FreeRTOS/Source/portable/GCC/ARM_CM4F/portmacro.h **** 
 1419              		.loc 2 193 1 view .LVU433
 195:Middlewares/Third_Party/FreeRTOS/Source/portable/GCC/ARM_CM4F/portmacro.h **** 	(
 1420              		.loc 2 195 2 view .LVU434
 1421              		.syntax unified
 1422              	@ 195 "Middlewares/Third_Party/FreeRTOS/Source/portable/GCC/ARM_CM4F/portmacro.h" 1
 1423 0020 4FF05003 			mov r3, #80												
 1424 0024 83F31188 		msr basepri, r3											
 1425 0028 BFF36F8F 		isb														
 1426 002c BFF34F8F 		dsb														
ARM GAS  C:\Users\KETEN_~1\AppData\Local\Temp\ccIeQTbg.s 			page 49


 1427              	
 1428              	@ 0 "" 2
 1429              		.thumb
 1430              		.syntax unified
 1431              	.L94:
 1432              	.LBE72:
 1433              	.LBE71:
 626:Middlewares/Third_Party/FreeRTOS/Source/event_groups.c **** 			vTaskRemoveFromUnorderedEventList( pxTasksWaitingForBits->xListEnd.pxNext, eventUNBLOCKED_DUE_TO
 1434              		.loc 1 626 4 discriminator 3 view .LVU435
 626:Middlewares/Third_Party/FreeRTOS/Source/event_groups.c **** 			vTaskRemoveFromUnorderedEventList( pxTasksWaitingForBits->xListEnd.pxNext, eventUNBLOCKED_DUE_TO
 1435              		.loc 1 626 4 discriminator 3 view .LVU436
 1436 0030 FEE7     		b	.L94
 1437              	.L98:
 640:Middlewares/Third_Party/FreeRTOS/Source/event_groups.c **** 			{
 1438              		.loc 1 640 4 view .LVU437
 640:Middlewares/Third_Party/FreeRTOS/Source/event_groups.c **** 			{
 1439              		.loc 1 640 19 is_stmt 0 view .LVU438
 1440 0032 237F     		ldrb	r3, [r4, #28]	@ zero_extendqisi2
 640:Middlewares/Third_Party/FreeRTOS/Source/event_groups.c **** 			{
 1441              		.loc 1 640 6 view .LVU439
 1442 0034 13B1     		cbz	r3, .L100
 1443              	.L96:
 646:Middlewares/Third_Party/FreeRTOS/Source/event_groups.c **** 			}
 1444              		.loc 1 646 29 is_stmt 1 view .LVU440
 651:Middlewares/Third_Party/FreeRTOS/Source/event_groups.c **** }
 1445              		.loc 1 651 2 view .LVU441
 651:Middlewares/Third_Party/FreeRTOS/Source/event_groups.c **** }
 1446              		.loc 1 651 11 is_stmt 0 view .LVU442
 1447 0036 FFF7FEFF 		bl	xTaskResumeAll
 1448              	.LVL116:
 652:Middlewares/Third_Party/FreeRTOS/Source/event_groups.c **** /*-----------------------------------------------------------*/
 1449              		.loc 1 652 1 view .LVU443
 1450 003a 10BD     		pop	{r4, pc}
 1451              	.LVL117:
 1452              	.L100:
 642:Middlewares/Third_Party/FreeRTOS/Source/event_groups.c **** 			}
 1453              		.loc 1 642 5 is_stmt 1 view .LVU444
 1454 003c 2046     		mov	r0, r4
 1455 003e FFF7FEFF 		bl	vPortFree
 1456              	.LVL118:
 1457 0042 F8E7     		b	.L96
 1458              		.cfi_endproc
 1459              	.LFE12:
 1461              		.section	.text.xEventGroupSetBitsFromISR,"ax",%progbits
 1462              		.align	1
 1463              		.global	xEventGroupSetBitsFromISR
 1464              		.syntax unified
 1465              		.thumb
 1466              		.thumb_func
 1468              	xEventGroupSetBitsFromISR:
 1469              	.LVL119:
 1470              	.LFB16:
 704:Middlewares/Third_Party/FreeRTOS/Source/event_groups.c **** /*-----------------------------------------------------------*/
 705:Middlewares/Third_Party/FreeRTOS/Source/event_groups.c **** 
 706:Middlewares/Third_Party/FreeRTOS/Source/event_groups.c **** #if ( ( configUSE_TRACE_FACILITY == 1 ) && ( INCLUDE_xTimerPendFunctionCall == 1 ) && ( configUSE_T
 707:Middlewares/Third_Party/FreeRTOS/Source/event_groups.c **** 
 708:Middlewares/Third_Party/FreeRTOS/Source/event_groups.c **** 	BaseType_t xEventGroupSetBitsFromISR( EventGroupHandle_t xEventGroup, const EventBits_t uxBitsToSe
ARM GAS  C:\Users\KETEN_~1\AppData\Local\Temp\ccIeQTbg.s 			page 50


 709:Middlewares/Third_Party/FreeRTOS/Source/event_groups.c **** 	{
 1471              		.loc 1 709 2 view -0
 1472              		.cfi_startproc
 1473              		@ args = 0, pretend = 0, frame = 0
 1474              		@ frame_needed = 0, uses_anonymous_args = 0
 1475              		.loc 1 709 2 is_stmt 0 view .LVU446
 1476 0000 08B5     		push	{r3, lr}
 1477              	.LCFI18:
 1478              		.cfi_def_cfa_offset 8
 1479              		.cfi_offset 3, -8
 1480              		.cfi_offset 14, -4
 1481 0002 1346     		mov	r3, r2
 710:Middlewares/Third_Party/FreeRTOS/Source/event_groups.c **** 	BaseType_t xReturn;
 1482              		.loc 1 710 2 is_stmt 1 view .LVU447
 711:Middlewares/Third_Party/FreeRTOS/Source/event_groups.c **** 
 712:Middlewares/Third_Party/FreeRTOS/Source/event_groups.c **** 		traceEVENT_GROUP_SET_BITS_FROM_ISR( xEventGroup, uxBitsToSet );
 1483              		.loc 1 712 65 view .LVU448
 713:Middlewares/Third_Party/FreeRTOS/Source/event_groups.c **** 		xReturn = xTimerPendFunctionCallFromISR( vEventGroupSetBitsCallback, ( void * ) xEventGroup, ( ui
 1484              		.loc 1 713 3 view .LVU449
 1485              		.loc 1 713 13 is_stmt 0 view .LVU450
 1486 0004 0A46     		mov	r2, r1
 1487              	.LVL120:
 1488              		.loc 1 713 13 view .LVU451
 1489 0006 0146     		mov	r1, r0
 1490              	.LVL121:
 1491              		.loc 1 713 13 view .LVU452
 1492 0008 0148     		ldr	r0, .L103
 1493              	.LVL122:
 1494              		.loc 1 713 13 view .LVU453
 1495 000a FFF7FEFF 		bl	xTimerPendFunctionCallFromISR
 1496              	.LVL123:
 714:Middlewares/Third_Party/FreeRTOS/Source/event_groups.c **** 
 715:Middlewares/Third_Party/FreeRTOS/Source/event_groups.c **** 		return xReturn;
 1497              		.loc 1 715 3 is_stmt 1 view .LVU454
 716:Middlewares/Third_Party/FreeRTOS/Source/event_groups.c **** 	}
 1498              		.loc 1 716 2 is_stmt 0 view .LVU455
 1499 000e 08BD     		pop	{r3, pc}
 1500              	.L104:
 1501              		.align	2
 1502              	.L103:
 1503 0010 00000000 		.word	vEventGroupSetBitsCallback
 1504              		.cfi_endproc
 1505              	.LFE16:
 1507              		.section	.text.uxEventGroupGetNumber,"ax",%progbits
 1508              		.align	1
 1509              		.global	uxEventGroupGetNumber
 1510              		.syntax unified
 1511              		.thumb
 1512              		.thumb_func
 1514              	uxEventGroupGetNumber:
 1515              	.LVL124:
 1516              	.LFB17:
 717:Middlewares/Third_Party/FreeRTOS/Source/event_groups.c **** 
 718:Middlewares/Third_Party/FreeRTOS/Source/event_groups.c **** #endif
 719:Middlewares/Third_Party/FreeRTOS/Source/event_groups.c **** /*-----------------------------------------------------------*/
 720:Middlewares/Third_Party/FreeRTOS/Source/event_groups.c **** 
 721:Middlewares/Third_Party/FreeRTOS/Source/event_groups.c **** #if (configUSE_TRACE_FACILITY == 1)
ARM GAS  C:\Users\KETEN_~1\AppData\Local\Temp\ccIeQTbg.s 			page 51


 722:Middlewares/Third_Party/FreeRTOS/Source/event_groups.c **** 
 723:Middlewares/Third_Party/FreeRTOS/Source/event_groups.c **** 	UBaseType_t uxEventGroupGetNumber( void* xEventGroup )
 724:Middlewares/Third_Party/FreeRTOS/Source/event_groups.c **** 	{
 1517              		.loc 1 724 2 is_stmt 1 view -0
 1518              		.cfi_startproc
 1519              		@ args = 0, pretend = 0, frame = 0
 1520              		@ frame_needed = 0, uses_anonymous_args = 0
 1521              		@ link register save eliminated.
 725:Middlewares/Third_Party/FreeRTOS/Source/event_groups.c **** 	UBaseType_t xReturn;
 1522              		.loc 1 725 2 view .LVU457
 726:Middlewares/Third_Party/FreeRTOS/Source/event_groups.c **** 	EventGroup_t const *pxEventBits = ( EventGroup_t * ) xEventGroup; /*lint !e9087 !e9079 EventGroupH
 1523              		.loc 1 726 2 view .LVU458
 727:Middlewares/Third_Party/FreeRTOS/Source/event_groups.c **** 
 728:Middlewares/Third_Party/FreeRTOS/Source/event_groups.c **** 		if( xEventGroup == NULL )
 1524              		.loc 1 728 3 view .LVU459
 1525              		.loc 1 728 5 is_stmt 0 view .LVU460
 1526 0000 08B1     		cbz	r0, .L107
 729:Middlewares/Third_Party/FreeRTOS/Source/event_groups.c **** 		{
 730:Middlewares/Third_Party/FreeRTOS/Source/event_groups.c **** 			xReturn = 0;
 731:Middlewares/Third_Party/FreeRTOS/Source/event_groups.c **** 		}
 732:Middlewares/Third_Party/FreeRTOS/Source/event_groups.c **** 		else
 733:Middlewares/Third_Party/FreeRTOS/Source/event_groups.c **** 		{
 734:Middlewares/Third_Party/FreeRTOS/Source/event_groups.c **** 			xReturn = pxEventBits->uxEventGroupNumber;
 1527              		.loc 1 734 4 is_stmt 1 view .LVU461
 1528              		.loc 1 734 12 is_stmt 0 view .LVU462
 1529 0002 8069     		ldr	r0, [r0, #24]
 1530              	.LVL125:
 1531              		.loc 1 734 12 view .LVU463
 1532 0004 7047     		bx	lr
 1533              	.LVL126:
 1534              	.L107:
 730:Middlewares/Third_Party/FreeRTOS/Source/event_groups.c **** 		}
 1535              		.loc 1 730 12 view .LVU464
 1536 0006 0020     		movs	r0, #0
 1537              	.LVL127:
 735:Middlewares/Third_Party/FreeRTOS/Source/event_groups.c **** 		}
 736:Middlewares/Third_Party/FreeRTOS/Source/event_groups.c **** 
 737:Middlewares/Third_Party/FreeRTOS/Source/event_groups.c **** 		return xReturn;
 1538              		.loc 1 737 3 is_stmt 1 view .LVU465
 738:Middlewares/Third_Party/FreeRTOS/Source/event_groups.c **** 	}
 1539              		.loc 1 738 2 is_stmt 0 view .LVU466
 1540 0008 7047     		bx	lr
 1541              		.cfi_endproc
 1542              	.LFE17:
 1544              		.section	.text.vEventGroupSetNumber,"ax",%progbits
 1545              		.align	1
 1546              		.global	vEventGroupSetNumber
 1547              		.syntax unified
 1548              		.thumb
 1549              		.thumb_func
 1551              	vEventGroupSetNumber:
 1552              	.LVL128:
 1553              	.LFB18:
 739:Middlewares/Third_Party/FreeRTOS/Source/event_groups.c **** 
 740:Middlewares/Third_Party/FreeRTOS/Source/event_groups.c **** #endif /* configUSE_TRACE_FACILITY */
 741:Middlewares/Third_Party/FreeRTOS/Source/event_groups.c **** /*-----------------------------------------------------------*/
 742:Middlewares/Third_Party/FreeRTOS/Source/event_groups.c **** 
ARM GAS  C:\Users\KETEN_~1\AppData\Local\Temp\ccIeQTbg.s 			page 52


 743:Middlewares/Third_Party/FreeRTOS/Source/event_groups.c **** #if ( configUSE_TRACE_FACILITY == 1 )
 744:Middlewares/Third_Party/FreeRTOS/Source/event_groups.c **** 
 745:Middlewares/Third_Party/FreeRTOS/Source/event_groups.c **** 	void vEventGroupSetNumber( void * xEventGroup, UBaseType_t uxEventGroupNumber )
 746:Middlewares/Third_Party/FreeRTOS/Source/event_groups.c **** 	{
 1554              		.loc 1 746 2 is_stmt 1 view -0
 1555              		.cfi_startproc
 1556              		@ args = 0, pretend = 0, frame = 0
 1557              		@ frame_needed = 0, uses_anonymous_args = 0
 1558              		@ link register save eliminated.
 747:Middlewares/Third_Party/FreeRTOS/Source/event_groups.c **** 		( ( EventGroup_t * ) xEventGroup )->uxEventGroupNumber = uxEventGroupNumber; /*lint !e9087 !e9079
 1559              		.loc 1 747 3 view .LVU468
 1560              		.loc 1 747 58 is_stmt 0 view .LVU469
 1561 0000 8161     		str	r1, [r0, #24]
 748:Middlewares/Third_Party/FreeRTOS/Source/event_groups.c **** 	}
 1562              		.loc 1 748 2 view .LVU470
 1563 0002 7047     		bx	lr
 1564              		.cfi_endproc
 1565              	.LFE18:
 1567              		.text
 1568              	.Letext0:
 1569              		.file 3 "C:/msys64/mingw64/lib/gcc/arm-none-eabi/13.3.0/include/stddef.h"
 1570              		.file 4 "C:/msys64/mingw64/arm-none-eabi/include/machine/_default_types.h"
 1571              		.file 5 "C:/msys64/mingw64/arm-none-eabi/include/sys/_stdint.h"
 1572              		.file 6 "Middlewares/Third_Party/FreeRTOS/Source/include/FreeRTOS.h"
 1573              		.file 7 "Middlewares/Third_Party/FreeRTOS/Source/include/list.h"
 1574              		.file 8 "Middlewares/Third_Party/FreeRTOS/Source/include/timers.h"
 1575              		.file 9 "Middlewares/Third_Party/FreeRTOS/Source/include/event_groups.h"
 1576              		.file 10 "Middlewares/Third_Party/FreeRTOS/Source/include/portable.h"
 1577              		.file 11 "Middlewares/Third_Party/FreeRTOS/Source/include/task.h"
ARM GAS  C:\Users\KETEN_~1\AppData\Local\Temp\ccIeQTbg.s 			page 53


DEFINED SYMBOLS
                            *ABS*:00000000 event_groups.c
C:\Users\KETEN_~1\AppData\Local\Temp\ccIeQTbg.s:21     .text.prvTestWaitCondition:00000000 $t
C:\Users\KETEN_~1\AppData\Local\Temp\ccIeQTbg.s:26     .text.prvTestWaitCondition:00000000 prvTestWaitCondition
C:\Users\KETEN_~1\AppData\Local\Temp\ccIeQTbg.s:80     .text.xEventGroupCreateStatic:00000000 $t
C:\Users\KETEN_~1\AppData\Local\Temp\ccIeQTbg.s:86     .text.xEventGroupCreateStatic:00000000 xEventGroupCreateStatic
C:\Users\KETEN_~1\AppData\Local\Temp\ccIeQTbg.s:208    .text.xEventGroupCreate:00000000 $t
C:\Users\KETEN_~1\AppData\Local\Temp\ccIeQTbg.s:214    .text.xEventGroupCreate:00000000 xEventGroupCreate
C:\Users\KETEN_~1\AppData\Local\Temp\ccIeQTbg.s:260    .text.xEventGroupWaitBits:00000000 $t
C:\Users\KETEN_~1\AppData\Local\Temp\ccIeQTbg.s:266    .text.xEventGroupWaitBits:00000000 xEventGroupWaitBits
C:\Users\KETEN_~1\AppData\Local\Temp\ccIeQTbg.s:616    .text.xEventGroupClearBits:00000000 $t
C:\Users\KETEN_~1\AppData\Local\Temp\ccIeQTbg.s:622    .text.xEventGroupClearBits:00000000 xEventGroupClearBits
C:\Users\KETEN_~1\AppData\Local\Temp\ccIeQTbg.s:734    .text.vEventGroupClearBitsCallback:00000000 $t
C:\Users\KETEN_~1\AppData\Local\Temp\ccIeQTbg.s:740    .text.vEventGroupClearBitsCallback:00000000 vEventGroupClearBitsCallback
C:\Users\KETEN_~1\AppData\Local\Temp\ccIeQTbg.s:763    .text.xEventGroupClearBitsFromISR:00000000 $t
C:\Users\KETEN_~1\AppData\Local\Temp\ccIeQTbg.s:769    .text.xEventGroupClearBitsFromISR:00000000 xEventGroupClearBitsFromISR
C:\Users\KETEN_~1\AppData\Local\Temp\ccIeQTbg.s:802    .text.xEventGroupClearBitsFromISR:00000010 $d
C:\Users\KETEN_~1\AppData\Local\Temp\ccIeQTbg.s:807    .text.xEventGroupGetBitsFromISR:00000000 $t
C:\Users\KETEN_~1\AppData\Local\Temp\ccIeQTbg.s:813    .text.xEventGroupGetBitsFromISR:00000000 xEventGroupGetBitsFromISR
C:\Users\KETEN_~1\AppData\Local\Temp\ccIeQTbg.s:874    .text.xEventGroupSetBits:00000000 $t
C:\Users\KETEN_~1\AppData\Local\Temp\ccIeQTbg.s:880    .text.xEventGroupSetBits:00000000 xEventGroupSetBits
C:\Users\KETEN_~1\AppData\Local\Temp\ccIeQTbg.s:1071   .text.xEventGroupSync:00000000 $t
C:\Users\KETEN_~1\AppData\Local\Temp\ccIeQTbg.s:1077   .text.xEventGroupSync:00000000 xEventGroupSync
C:\Users\KETEN_~1\AppData\Local\Temp\ccIeQTbg.s:1339   .text.vEventGroupSetBitsCallback:00000000 $t
C:\Users\KETEN_~1\AppData\Local\Temp\ccIeQTbg.s:1345   .text.vEventGroupSetBitsCallback:00000000 vEventGroupSetBitsCallback
C:\Users\KETEN_~1\AppData\Local\Temp\ccIeQTbg.s:1368   .text.vEventGroupDelete:00000000 $t
C:\Users\KETEN_~1\AppData\Local\Temp\ccIeQTbg.s:1374   .text.vEventGroupDelete:00000000 vEventGroupDelete
C:\Users\KETEN_~1\AppData\Local\Temp\ccIeQTbg.s:1462   .text.xEventGroupSetBitsFromISR:00000000 $t
C:\Users\KETEN_~1\AppData\Local\Temp\ccIeQTbg.s:1468   .text.xEventGroupSetBitsFromISR:00000000 xEventGroupSetBitsFromISR
C:\Users\KETEN_~1\AppData\Local\Temp\ccIeQTbg.s:1503   .text.xEventGroupSetBitsFromISR:00000010 $d
C:\Users\KETEN_~1\AppData\Local\Temp\ccIeQTbg.s:1508   .text.uxEventGroupGetNumber:00000000 $t
C:\Users\KETEN_~1\AppData\Local\Temp\ccIeQTbg.s:1514   .text.uxEventGroupGetNumber:00000000 uxEventGroupGetNumber
C:\Users\KETEN_~1\AppData\Local\Temp\ccIeQTbg.s:1545   .text.vEventGroupSetNumber:00000000 $t
C:\Users\KETEN_~1\AppData\Local\Temp\ccIeQTbg.s:1551   .text.vEventGroupSetNumber:00000000 vEventGroupSetNumber

UNDEFINED SYMBOLS
vListInitialise
pvPortMalloc
xTaskGetSchedulerState
vTaskSuspendAll
xTaskResumeAll
uxTaskResetEventItemValue
vTaskPlaceOnUnorderedEventList
vPortEnterCritical
vPortExitCritical
xTimerPendFunctionCallFromISR
vTaskRemoveFromUnorderedEventList
vPortFree
