ARM GAS  C:\Users\KETEN_~1\AppData\Local\Temp\cc3kKNfU.s 			page 1


   1              		.cpu cortex-m4
   2              		.arch armv7e-m
   3              		.fpu fpv4-sp-d16
   4              		.eabi_attribute 27, 1
   5              		.eabi_attribute 28, 1
   6              		.eabi_attribute 20, 1
   7              		.eabi_attribute 21, 1
   8              		.eabi_attribute 23, 3
   9              		.eabi_attribute 24, 1
  10              		.eabi_attribute 25, 1
  11              		.eabi_attribute 26, 1
  12              		.eabi_attribute 30, 1
  13              		.eabi_attribute 34, 1
  14              		.eabi_attribute 18, 4
  15              		.file	"freertos.c"
  16              		.text
  17              	.Ltext0:
  18              		.cfi_sections	.debug_frame
  19              		.file 1 "Src/freertos.c"
  20              		.section	.text.StartDefaultTask,"ax",%progbits
  21              		.align	1
  22              		.global	StartDefaultTask
  23              		.syntax unified
  24              		.thumb
  25              		.thumb_func
  27              	StartDefaultTask:
  28              	.LFB139:
   1:Src/freertos.c **** /* USER CODE BEGIN Header */
   2:Src/freertos.c **** /**
   3:Src/freertos.c ****   ******************************************************************************
   4:Src/freertos.c ****   * File Name          : freertos.c
   5:Src/freertos.c ****   * Description        : Code for freertos applications
   6:Src/freertos.c ****   ******************************************************************************
   7:Src/freertos.c ****   * @attention
   8:Src/freertos.c ****   *
   9:Src/freertos.c ****   * Copyright (c) 2024 STMicroelectronics.
  10:Src/freertos.c ****   * All rights reserved.
  11:Src/freertos.c ****   *
  12:Src/freertos.c ****   * This software is licensed under terms that can be found in the LICENSE file
  13:Src/freertos.c ****   * in the root directory of this software component.
  14:Src/freertos.c ****   * If no LICENSE file comes with this software, it is provided AS-IS.
  15:Src/freertos.c ****   *
  16:Src/freertos.c ****   ******************************************************************************
  17:Src/freertos.c ****   */
  18:Src/freertos.c **** /* USER CODE END Header */
  19:Src/freertos.c **** 
  20:Src/freertos.c **** /* Includes ------------------------------------------------------------------*/
  21:Src/freertos.c **** #include "FreeRTOS.h"
  22:Src/freertos.c **** #include "task.h"
  23:Src/freertos.c **** #include "main.h"
  24:Src/freertos.c **** #include "cmsis_os.h"
  25:Src/freertos.c **** 
  26:Src/freertos.c **** /* Private includes ----------------------------------------------------------*/
  27:Src/freertos.c **** /* USER CODE BEGIN Includes */
  28:Src/freertos.c **** 
  29:Src/freertos.c **** /* USER CODE END Includes */
  30:Src/freertos.c **** 
ARM GAS  C:\Users\KETEN_~1\AppData\Local\Temp\cc3kKNfU.s 			page 2


  31:Src/freertos.c **** /* Private typedef -----------------------------------------------------------*/
  32:Src/freertos.c **** /* USER CODE BEGIN PTD */
  33:Src/freertos.c **** 
  34:Src/freertos.c **** /* USER CODE END PTD */
  35:Src/freertos.c **** 
  36:Src/freertos.c **** /* Private define ------------------------------------------------------------*/
  37:Src/freertos.c **** /* USER CODE BEGIN PD */
  38:Src/freertos.c **** 
  39:Src/freertos.c **** /* USER CODE END PD */
  40:Src/freertos.c **** 
  41:Src/freertos.c **** /* Private macro -------------------------------------------------------------*/
  42:Src/freertos.c **** /* USER CODE BEGIN PM */
  43:Src/freertos.c **** 
  44:Src/freertos.c **** /* USER CODE END PM */
  45:Src/freertos.c **** 
  46:Src/freertos.c **** /* Private variables ---------------------------------------------------------*/
  47:Src/freertos.c **** /* USER CODE BEGIN Variables */
  48:Src/freertos.c **** 
  49:Src/freertos.c **** /* USER CODE END Variables */
  50:Src/freertos.c **** /* Definitions for defaultTask */
  51:Src/freertos.c **** osThreadId_t defaultTaskHandle;
  52:Src/freertos.c **** const osThreadAttr_t defaultTask_attributes = {
  53:Src/freertos.c ****   .name = "defaultTask",
  54:Src/freertos.c ****   .stack_size = 128 * 4,
  55:Src/freertos.c ****   .priority = (osPriority_t) osPriorityNormal,
  56:Src/freertos.c **** };
  57:Src/freertos.c **** 
  58:Src/freertos.c **** /* Private function prototypes -----------------------------------------------*/
  59:Src/freertos.c **** /* USER CODE BEGIN FunctionPrototypes */
  60:Src/freertos.c **** 
  61:Src/freertos.c **** /* USER CODE END FunctionPrototypes */
  62:Src/freertos.c **** 
  63:Src/freertos.c **** void StartDefaultTask(void *argument);
  64:Src/freertos.c **** 
  65:Src/freertos.c **** 
  66:Src/freertos.c **** void MX_FREERTOS_Init(void); /* (MISRA C 2004 rule 8.1) */
  67:Src/freertos.c **** 
  68:Src/freertos.c **** /**
  69:Src/freertos.c ****   * @brief  FreeRTOS initialization
  70:Src/freertos.c ****   * @param  None
  71:Src/freertos.c ****   * @retval None
  72:Src/freertos.c ****   */
  73:Src/freertos.c **** void MX_FREERTOS_Init(void) {
  74:Src/freertos.c ****   /* USER CODE BEGIN Init */
  75:Src/freertos.c **** 
  76:Src/freertos.c ****   /* USER CODE END Init */
  77:Src/freertos.c **** 
  78:Src/freertos.c ****   /* USER CODE BEGIN RTOS_MUTEX */
  79:Src/freertos.c ****   /* add mutexes, ... */
  80:Src/freertos.c ****   /* USER CODE END RTOS_MUTEX */
  81:Src/freertos.c **** 
  82:Src/freertos.c ****   /* USER CODE BEGIN RTOS_SEMAPHORES */
  83:Src/freertos.c ****   /* add semaphores, ... */
  84:Src/freertos.c ****   /* USER CODE END RTOS_SEMAPHORES */
  85:Src/freertos.c **** 
  86:Src/freertos.c ****   /* USER CODE BEGIN RTOS_TIMERS */
  87:Src/freertos.c ****   /* start timers, add new ones, ... */
ARM GAS  C:\Users\KETEN_~1\AppData\Local\Temp\cc3kKNfU.s 			page 3


  88:Src/freertos.c ****   /* USER CODE END RTOS_TIMERS */
  89:Src/freertos.c **** 
  90:Src/freertos.c ****   /* USER CODE BEGIN RTOS_QUEUES */
  91:Src/freertos.c ****   /* add queues, ... */
  92:Src/freertos.c ****   /* USER CODE END RTOS_QUEUES */
  93:Src/freertos.c **** 
  94:Src/freertos.c ****   /* Create the thread(s) */
  95:Src/freertos.c ****   /* creation of defaultTask */
  96:Src/freertos.c ****   defaultTaskHandle = osThreadNew(StartDefaultTask, NULL, &defaultTask_attributes);
  97:Src/freertos.c **** 
  98:Src/freertos.c ****   /* USER CODE BEGIN RTOS_THREADS */
  99:Src/freertos.c ****   /* add threads, ... */
 100:Src/freertos.c ****   /* USER CODE END RTOS_THREADS */
 101:Src/freertos.c **** 
 102:Src/freertos.c ****   /* USER CODE BEGIN RTOS_EVENTS */
 103:Src/freertos.c ****   /* add events, ... */
 104:Src/freertos.c ****   /* USER CODE END RTOS_EVENTS */
 105:Src/freertos.c **** 
 106:Src/freertos.c **** }
 107:Src/freertos.c **** 
 108:Src/freertos.c **** /* USER CODE BEGIN Header_StartDefaultTask */
 109:Src/freertos.c **** /**
 110:Src/freertos.c ****   * @brief  Function implementing the defaultTask thread.
 111:Src/freertos.c ****   * @param  argument: Not used
 112:Src/freertos.c ****   * @retval None
 113:Src/freertos.c ****   */
 114:Src/freertos.c **** /* USER CODE END Header_StartDefaultTask */
 115:Src/freertos.c **** void StartDefaultTask(void *argument)
 116:Src/freertos.c **** {
  29              		.loc 1 116 1 view -0
  30              		.cfi_startproc
  31              		@ Volatile: function does not return.
  32              		@ args = 0, pretend = 0, frame = 0
  33              		@ frame_needed = 0, uses_anonymous_args = 0
  34              	.LVL0:
  35              		.loc 1 116 1 is_stmt 0 view .LVU1
  36 0000 08B5     		push	{r3, lr}
  37              	.LCFI0:
  38              		.cfi_def_cfa_offset 8
  39              		.cfi_offset 3, -8
  40              		.cfi_offset 14, -4
  41              	.LVL1:
  42              	.L2:
 117:Src/freertos.c ****   /* USER CODE BEGIN StartDefaultTask */
 118:Src/freertos.c ****   /* Infinite loop */
 119:Src/freertos.c ****   for(;;)
  43              		.loc 1 119 3 is_stmt 1 view .LVU2
 120:Src/freertos.c ****   {
 121:Src/freertos.c ****     // ‰∏ÄËà¨ÂèØ‰ª•Âú®Ëøô‰∏™‰ªªÂä°Á∫øÁ®ãÂÆåÊàê‰∏Ä‰∫õÊØîËæÉÈ¢ùÂ§ñÁöÑÂàùÂßãÂåñÂ∑•‰Ωú(‰ΩÜËøòÊòØÂª∫ËÆÆÂ
 122:Src/freertos.c **** 
 123:Src/freertos.c ****     osThreadTerminate(defaultTaskHandle); // ÈÅøÂÖçÁ©∫ÁΩÆÂíåÂàáÊç¢Âç†Áî®cpu
  44              		.loc 1 123 5 discriminator 1 view .LVU3
  45 0002 024B     		ldr	r3, .L4
  46 0004 1868     		ldr	r0, [r3]
  47 0006 FFF7FEFF 		bl	osThreadTerminate
  48              	.LVL2:
 119:Src/freertos.c ****   {
ARM GAS  C:\Users\KETEN_~1\AppData\Local\Temp\cc3kKNfU.s 			page 4


  49              		.loc 1 119 3 view .LVU4
  50 000a FAE7     		b	.L2
  51              	.L5:
  52              		.align	2
  53              	.L4:
  54 000c 00000000 		.word	defaultTaskHandle
  55              		.cfi_endproc
  56              	.LFE139:
  58              		.section	.text.MX_FREERTOS_Init,"ax",%progbits
  59              		.align	1
  60              		.global	MX_FREERTOS_Init
  61              		.syntax unified
  62              		.thumb
  63              		.thumb_func
  65              	MX_FREERTOS_Init:
  66              	.LFB138:
  73:Src/freertos.c ****   /* USER CODE BEGIN Init */
  67              		.loc 1 73 29 view -0
  68              		.cfi_startproc
  69              		@ args = 0, pretend = 0, frame = 0
  70              		@ frame_needed = 0, uses_anonymous_args = 0
  71 0000 08B5     		push	{r3, lr}
  72              	.LCFI1:
  73              		.cfi_def_cfa_offset 8
  74              		.cfi_offset 3, -8
  75              		.cfi_offset 14, -4
  96:Src/freertos.c **** 
  76              		.loc 1 96 3 view .LVU6
  96:Src/freertos.c **** 
  77              		.loc 1 96 23 is_stmt 0 view .LVU7
  78 0002 044A     		ldr	r2, .L8
  79 0004 0021     		movs	r1, #0
  80 0006 0448     		ldr	r0, .L8+4
  81 0008 FFF7FEFF 		bl	osThreadNew
  82              	.LVL3:
  96:Src/freertos.c **** 
  83              		.loc 1 96 21 discriminator 1 view .LVU8
  84 000c 034B     		ldr	r3, .L8+8
  85 000e 1860     		str	r0, [r3]
 106:Src/freertos.c **** 
  86              		.loc 1 106 1 view .LVU9
  87 0010 08BD     		pop	{r3, pc}
  88              	.L9:
  89 0012 00BF     		.align	2
  90              	.L8:
  91 0014 00000000 		.word	defaultTask_attributes
  92 0018 00000000 		.word	StartDefaultTask
  93 001c 00000000 		.word	defaultTaskHandle
  94              		.cfi_endproc
  95              	.LFE138:
  97              		.global	defaultTask_attributes
  98              		.section	.rodata.str1.4,"aMS",%progbits,1
  99              		.align	2
 100              	.LC0:
 101 0000 64656661 		.ascii	"defaultTask\000"
 101      756C7454 
 101      61736B00 
ARM GAS  C:\Users\KETEN_~1\AppData\Local\Temp\cc3kKNfU.s 			page 5


 102              		.section	.rodata.defaultTask_attributes,"a"
 103              		.align	2
 106              	defaultTask_attributes:
 107 0000 00000000 		.word	.LC0
 108 0004 00000000 		.space	16
 108      00000000 
 108      00000000 
 108      00000000 
 109 0014 00020000 		.word	512
 110 0018 18000000 		.word	24
 111 001c 00000000 		.space	8
 111      00000000 
 112              		.global	defaultTaskHandle
 113              		.section	.bss.defaultTaskHandle,"aw",%nobits
 114              		.align	2
 117              	defaultTaskHandle:
 118 0000 00000000 		.space	4
 119              		.text
 120              	.Letext0:
 121              		.file 2 "C:/msys64/mingw64/arm-none-eabi/include/machine/_default_types.h"
 122              		.file 3 "C:/msys64/mingw64/arm-none-eabi/include/sys/_stdint.h"
 123              		.file 4 "Middlewares/Third_Party/FreeRTOS/Source/CMSIS_RTOS_V2/cmsis_os2.h"
ARM GAS  C:\Users\KETEN_~1\AppData\Local\Temp\cc3kKNfU.s 			page 6

