ARM GAS  C:\Users\KETEN_~1\AppData\Local\Temp\cck9qv27.s 			page 1


   1              		.cpu cortex-m4
   2              		.arch armv7e-m
   3              		.fpu fpv4-sp-d16
   4              		.eabi_attribute 27, 1
   5              		.eabi_attribute 28, 1
   6              		.eabi_attribute 20, 1
   7              		.eabi_attribute 21, 1
   8              		.eabi_attribute 23, 3
   9              		.eabi_attribute 24, 1
  10              		.eabi_attribute 25, 1
  11              		.eabi_attribute 26, 1
  12              		.eabi_attribute 30, 1
  13              		.eabi_attribute 34, 1
  14              		.eabi_attribute 18, 4
  15              		.file	"SEGGER_SYSVIEW.c"
  16              		.text
  17              	.Ltext0:
  18              		.cfi_sections	.debug_frame
  19              		.file 1 "Middlewares/Third_Party/SystemView/SEGGER/SEGGER_SYSVIEW.c"
  20              		.section	.text._EncodeData,"ax",%progbits
  21              		.align	1
  22              		.syntax unified
  23              		.thumb
  24              		.thumb_func
  26              	_EncodeData:
  27              	.LVL0:
  28              	.LFB0:
   1:Middlewares/Third_Party/SystemView/SEGGER/SEGGER_SYSVIEW.c **** /*********************************************************************
   2:Middlewares/Third_Party/SystemView/SEGGER/SEGGER_SYSVIEW.c **** *                    SEGGER Microcontroller GmbH                     *
   3:Middlewares/Third_Party/SystemView/SEGGER/SEGGER_SYSVIEW.c **** *                        The Embedded Experts                        *
   4:Middlewares/Third_Party/SystemView/SEGGER/SEGGER_SYSVIEW.c **** **********************************************************************
   5:Middlewares/Third_Party/SystemView/SEGGER/SEGGER_SYSVIEW.c **** *                                                                    *
   6:Middlewares/Third_Party/SystemView/SEGGER/SEGGER_SYSVIEW.c **** *            (c) 1995 - 2021 SEGGER Microcontroller GmbH             *
   7:Middlewares/Third_Party/SystemView/SEGGER/SEGGER_SYSVIEW.c **** *                                                                    *
   8:Middlewares/Third_Party/SystemView/SEGGER/SEGGER_SYSVIEW.c **** *       www.segger.com     Support: support@segger.com               *
   9:Middlewares/Third_Party/SystemView/SEGGER/SEGGER_SYSVIEW.c **** *                                                                    *
  10:Middlewares/Third_Party/SystemView/SEGGER/SEGGER_SYSVIEW.c **** **********************************************************************
  11:Middlewares/Third_Party/SystemView/SEGGER/SEGGER_SYSVIEW.c **** *                                                                    *
  12:Middlewares/Third_Party/SystemView/SEGGER/SEGGER_SYSVIEW.c **** *       SEGGER SystemView * Real-time application analysis           *
  13:Middlewares/Third_Party/SystemView/SEGGER/SEGGER_SYSVIEW.c **** *                                                                    *
  14:Middlewares/Third_Party/SystemView/SEGGER/SEGGER_SYSVIEW.c **** **********************************************************************
  15:Middlewares/Third_Party/SystemView/SEGGER/SEGGER_SYSVIEW.c **** *                                                                    *
  16:Middlewares/Third_Party/SystemView/SEGGER/SEGGER_SYSVIEW.c **** * All rights reserved.                                               *
  17:Middlewares/Third_Party/SystemView/SEGGER/SEGGER_SYSVIEW.c **** *                                                                    *
  18:Middlewares/Third_Party/SystemView/SEGGER/SEGGER_SYSVIEW.c **** * SEGGER strongly recommends to not make any changes                 *
  19:Middlewares/Third_Party/SystemView/SEGGER/SEGGER_SYSVIEW.c **** * to or modify the source code of this software in order to stay     *
  20:Middlewares/Third_Party/SystemView/SEGGER/SEGGER_SYSVIEW.c **** * compatible with the SystemView and RTT protocol, and J-Link.       *
  21:Middlewares/Third_Party/SystemView/SEGGER/SEGGER_SYSVIEW.c **** *                                                                    *
  22:Middlewares/Third_Party/SystemView/SEGGER/SEGGER_SYSVIEW.c **** * Redistribution and use in source and binary forms, with or         *
  23:Middlewares/Third_Party/SystemView/SEGGER/SEGGER_SYSVIEW.c **** * without modification, are permitted provided that the following    *
  24:Middlewares/Third_Party/SystemView/SEGGER/SEGGER_SYSVIEW.c **** * condition is met:                                                  *
  25:Middlewares/Third_Party/SystemView/SEGGER/SEGGER_SYSVIEW.c **** *                                                                    *
  26:Middlewares/Third_Party/SystemView/SEGGER/SEGGER_SYSVIEW.c **** * o Redistributions of source code must retain the above copyright   *
  27:Middlewares/Third_Party/SystemView/SEGGER/SEGGER_SYSVIEW.c **** *   notice, this condition and the following disclaimer.             *
  28:Middlewares/Third_Party/SystemView/SEGGER/SEGGER_SYSVIEW.c **** *                                                                    *
  29:Middlewares/Third_Party/SystemView/SEGGER/SEGGER_SYSVIEW.c **** * THIS SOFTWARE IS PROVIDED BY THE COPYRIGHT HOLDERS AND             *
  30:Middlewares/Third_Party/SystemView/SEGGER/SEGGER_SYSVIEW.c **** * CONTRIBUTORS "AS IS" AND ANY EXPRESS OR IMPLIED WARRANTIES,        *
ARM GAS  C:\Users\KETEN_~1\AppData\Local\Temp\cck9qv27.s 			page 2


  31:Middlewares/Third_Party/SystemView/SEGGER/SEGGER_SYSVIEW.c **** * INCLUDING, BUT NOT LIMITED TO, THE IMPLIED WARRANTIES OF           *
  32:Middlewares/Third_Party/SystemView/SEGGER/SEGGER_SYSVIEW.c **** * MERCHANTABILITY AND FITNESS FOR A PARTICULAR PURPOSE ARE           *
  33:Middlewares/Third_Party/SystemView/SEGGER/SEGGER_SYSVIEW.c **** * DISCLAIMED. IN NO EVENT SHALL SEGGER Microcontroller BE LIABLE FOR *
  34:Middlewares/Third_Party/SystemView/SEGGER/SEGGER_SYSVIEW.c **** * ANY DIRECT, INDIRECT, INCIDENTAL, SPECIAL, EXEMPLARY, OR           *
  35:Middlewares/Third_Party/SystemView/SEGGER/SEGGER_SYSVIEW.c **** * CONSEQUENTIAL DAMAGES (INCLUDING, BUT NOT LIMITED TO, PROCUREMENT  *
  36:Middlewares/Third_Party/SystemView/SEGGER/SEGGER_SYSVIEW.c **** * OF SUBSTITUTE GOODS OR SERVICES; LOSS OF USE, DATA, OR PROFITS;    *
  37:Middlewares/Third_Party/SystemView/SEGGER/SEGGER_SYSVIEW.c **** * OR BUSINESS INTERRUPTION) HOWEVER CAUSED AND ON ANY THEORY OF      *
  38:Middlewares/Third_Party/SystemView/SEGGER/SEGGER_SYSVIEW.c **** * LIABILITY, WHETHER IN CONTRACT, STRICT LIABILITY, OR TORT          *
  39:Middlewares/Third_Party/SystemView/SEGGER/SEGGER_SYSVIEW.c **** * (INCLUDING NEGLIGENCE OR OTHERWISE) ARISING IN ANY WAY OUT OF THE  *
  40:Middlewares/Third_Party/SystemView/SEGGER/SEGGER_SYSVIEW.c **** * USE OF THIS SOFTWARE, EVEN IF ADVISED OF THE POSSIBILITY OF SUCH   *
  41:Middlewares/Third_Party/SystemView/SEGGER/SEGGER_SYSVIEW.c **** * DAMAGE.                                                            *
  42:Middlewares/Third_Party/SystemView/SEGGER/SEGGER_SYSVIEW.c **** *                                                                    *
  43:Middlewares/Third_Party/SystemView/SEGGER/SEGGER_SYSVIEW.c **** **********************************************************************
  44:Middlewares/Third_Party/SystemView/SEGGER/SEGGER_SYSVIEW.c **** *                                                                    *
  45:Middlewares/Third_Party/SystemView/SEGGER/SEGGER_SYSVIEW.c **** *       SystemView version: 3.30                                    *
  46:Middlewares/Third_Party/SystemView/SEGGER/SEGGER_SYSVIEW.c **** *                                                                    *
  47:Middlewares/Third_Party/SystemView/SEGGER/SEGGER_SYSVIEW.c **** **********************************************************************
  48:Middlewares/Third_Party/SystemView/SEGGER/SEGGER_SYSVIEW.c **** -------------------------- END-OF-HEADER -----------------------------
  49:Middlewares/Third_Party/SystemView/SEGGER/SEGGER_SYSVIEW.c **** 
  50:Middlewares/Third_Party/SystemView/SEGGER/SEGGER_SYSVIEW.c **** File    : SEGGER_SYSVIEW.c
  51:Middlewares/Third_Party/SystemView/SEGGER/SEGGER_SYSVIEW.c **** Purpose : System visualization API implementation.
  52:Middlewares/Third_Party/SystemView/SEGGER/SEGGER_SYSVIEW.c **** Revision: $Rev: 22278 $
  53:Middlewares/Third_Party/SystemView/SEGGER/SEGGER_SYSVIEW.c **** 
  54:Middlewares/Third_Party/SystemView/SEGGER/SEGGER_SYSVIEW.c **** Additional information:
  55:Middlewares/Third_Party/SystemView/SEGGER/SEGGER_SYSVIEW.c ****   Packet format:
  56:Middlewares/Third_Party/SystemView/SEGGER/SEGGER_SYSVIEW.c ****     Packets with IDs 0..23 are standard packets with known structure.
  57:Middlewares/Third_Party/SystemView/SEGGER/SEGGER_SYSVIEW.c ****     For efficiency, they do *NOT* contain a length field.
  58:Middlewares/Third_Party/SystemView/SEGGER/SEGGER_SYSVIEW.c ****     <ID><Data><TimeStampDelta>
  59:Middlewares/Third_Party/SystemView/SEGGER/SEGGER_SYSVIEW.c **** 
  60:Middlewares/Third_Party/SystemView/SEGGER/SEGGER_SYSVIEW.c ****     Packets with IDs 24..31 are standard packets with extendible
  61:Middlewares/Third_Party/SystemView/SEGGER/SEGGER_SYSVIEW.c ****     structure and contain a length field.
  62:Middlewares/Third_Party/SystemView/SEGGER/SEGGER_SYSVIEW.c ****     <ID><Lenght><Data><TimeStampDelta>
  63:Middlewares/Third_Party/SystemView/SEGGER/SEGGER_SYSVIEW.c ****     
  64:Middlewares/Third_Party/SystemView/SEGGER/SEGGER_SYSVIEW.c ****     Packet ID 31 is used for SystemView extended events.
  65:Middlewares/Third_Party/SystemView/SEGGER/SEGGER_SYSVIEW.c ****     <ID><Lenght><ID_EX><Data><TimeStampDelta>
  66:Middlewares/Third_Party/SystemView/SEGGER/SEGGER_SYSVIEW.c **** 
  67:Middlewares/Third_Party/SystemView/SEGGER/SEGGER_SYSVIEW.c ****     Packets with IDs >= 32 always contain a length field.
  68:Middlewares/Third_Party/SystemView/SEGGER/SEGGER_SYSVIEW.c ****     <ID><Length><Data><TimeStampDelta>
  69:Middlewares/Third_Party/SystemView/SEGGER/SEGGER_SYSVIEW.c **** 
  70:Middlewares/Third_Party/SystemView/SEGGER/SEGGER_SYSVIEW.c ****   Packet IDs:
  71:Middlewares/Third_Party/SystemView/SEGGER/SEGGER_SYSVIEW.c ****        0..  31 : Standard packets, known by SystemView.
  72:Middlewares/Third_Party/SystemView/SEGGER/SEGGER_SYSVIEW.c ****       32..1023 : OS-definable packets, described in a SystemView description file.
  73:Middlewares/Third_Party/SystemView/SEGGER/SEGGER_SYSVIEW.c ****     1024..2047 : User-definable packets, described in a SystemView description file.
  74:Middlewares/Third_Party/SystemView/SEGGER/SEGGER_SYSVIEW.c ****     2048..32767: Undefined.
  75:Middlewares/Third_Party/SystemView/SEGGER/SEGGER_SYSVIEW.c **** 
  76:Middlewares/Third_Party/SystemView/SEGGER/SEGGER_SYSVIEW.c ****   Data encoding:
  77:Middlewares/Third_Party/SystemView/SEGGER/SEGGER_SYSVIEW.c ****     Basic types (int, short, char, ...):
  78:Middlewares/Third_Party/SystemView/SEGGER/SEGGER_SYSVIEW.c ****       Basic types are encoded little endian with most-significant bit variant
  79:Middlewares/Third_Party/SystemView/SEGGER/SEGGER_SYSVIEW.c ****       encoding.
  80:Middlewares/Third_Party/SystemView/SEGGER/SEGGER_SYSVIEW.c ****       Each encoded byte contains 7 data bits [6:0] and the MSB continuation bit.
  81:Middlewares/Third_Party/SystemView/SEGGER/SEGGER_SYSVIEW.c ****       The continuation bit indicates whether the next byte belongs to the data
  82:Middlewares/Third_Party/SystemView/SEGGER/SEGGER_SYSVIEW.c ****       (bit set) or this is the last byte (bit clear).
  83:Middlewares/Third_Party/SystemView/SEGGER/SEGGER_SYSVIEW.c ****       The most significant bits of data are encoded first, proceeding to the
  84:Middlewares/Third_Party/SystemView/SEGGER/SEGGER_SYSVIEW.c ****       least significant bits in the final byte (little endian).
  85:Middlewares/Third_Party/SystemView/SEGGER/SEGGER_SYSVIEW.c **** 
  86:Middlewares/Third_Party/SystemView/SEGGER/SEGGER_SYSVIEW.c ****       Example encoding:
  87:Middlewares/Third_Party/SystemView/SEGGER/SEGGER_SYSVIEW.c ****         Data: 0x1F4 (500)
ARM GAS  C:\Users\KETEN_~1\AppData\Local\Temp\cck9qv27.s 			page 3


  88:Middlewares/Third_Party/SystemView/SEGGER/SEGGER_SYSVIEW.c ****         Encoded: 0xF4 (First 7 data bits 74 | Continuation bit)
  89:Middlewares/Third_Party/SystemView/SEGGER/SEGGER_SYSVIEW.c ****                  0x03 (Second 7 data bits 03, no continuation)
  90:Middlewares/Third_Party/SystemView/SEGGER/SEGGER_SYSVIEW.c **** 
  91:Middlewares/Third_Party/SystemView/SEGGER/SEGGER_SYSVIEW.c ****         Data: 0xFFFFFFFF
  92:Middlewares/Third_Party/SystemView/SEGGER/SEGGER_SYSVIEW.c ****         Encoded: 0xFF 0xFF 0xFF 0xFF 0x0F
  93:Middlewares/Third_Party/SystemView/SEGGER/SEGGER_SYSVIEW.c **** 
  94:Middlewares/Third_Party/SystemView/SEGGER/SEGGER_SYSVIEW.c ****         Data: 0xA2 (162),   0x03 (3), 0x7000
  95:Middlewares/Third_Party/SystemView/SEGGER/SEGGER_SYSVIEW.c ****         Encoded: 0xA2 0x01  0x03      0x80 0xE0 0x01
  96:Middlewares/Third_Party/SystemView/SEGGER/SEGGER_SYSVIEW.c **** 
  97:Middlewares/Third_Party/SystemView/SEGGER/SEGGER_SYSVIEW.c ****     Byte arrays and strings:
  98:Middlewares/Third_Party/SystemView/SEGGER/SEGGER_SYSVIEW.c ****       Byte arrays and strings are encoded as <NumBytes> followed by the raw data.
  99:Middlewares/Third_Party/SystemView/SEGGER/SEGGER_SYSVIEW.c ****       NumBytes is encoded as a basic type with a theoretical maximum of 4G.
 100:Middlewares/Third_Party/SystemView/SEGGER/SEGGER_SYSVIEW.c **** 
 101:Middlewares/Third_Party/SystemView/SEGGER/SEGGER_SYSVIEW.c ****       Example encoding:
 102:Middlewares/Third_Party/SystemView/SEGGER/SEGGER_SYSVIEW.c ****         Data: "Hello World\0" (0x48 0x65 0x6C 0x6C 0x6F 0x20 0x57 0x6F 0x72 0x6C 0x64 0x00)
 103:Middlewares/Third_Party/SystemView/SEGGER/SEGGER_SYSVIEW.c ****         Encoded: 0x0B 0x48 0x65 0x6C 0x6C 0x6F 0x20 0x57 0x6F 0x72 0x6C 0x64
 104:Middlewares/Third_Party/SystemView/SEGGER/SEGGER_SYSVIEW.c **** 
 105:Middlewares/Third_Party/SystemView/SEGGER/SEGGER_SYSVIEW.c ****   Examples packets:
 106:Middlewares/Third_Party/SystemView/SEGGER/SEGGER_SYSVIEW.c ****   01 F4 03 80 80 10 // Overflow packet. Data is a single U32.
 107:Middlewares/Third_Party/SystemView/SEGGER/SEGGER_SYSVIEW.c ****                        This packet means: 500 packets lost, Timestamp is 0x40000
 108:Middlewares/Third_Party/SystemView/SEGGER/SEGGER_SYSVIEW.c **** 
 109:Middlewares/Third_Party/SystemView/SEGGER/SEGGER_SYSVIEW.c ****   02 0F 50          // ISR(15) Enter. Timestamp 80 (0x50)
 110:Middlewares/Third_Party/SystemView/SEGGER/SEGGER_SYSVIEW.c **** 
 111:Middlewares/Third_Party/SystemView/SEGGER/SEGGER_SYSVIEW.c ****   03 20             // ISR Exit. Timestamp 32 (0x20) (Shortest possible packet.)
 112:Middlewares/Third_Party/SystemView/SEGGER/SEGGER_SYSVIEW.c **** 
 113:Middlewares/Third_Party/SystemView/SEGGER/SEGGER_SYSVIEW.c ****   Sample code for user defined Packets:
 114:Middlewares/Third_Party/SystemView/SEGGER/SEGGER_SYSVIEW.c ****     #define MY_ID   0x400                // Any value between 0x400 and 0x7FF
 115:Middlewares/Third_Party/SystemView/SEGGER/SEGGER_SYSVIEW.c ****     void SendMyPacket(unsigned Para0, unsigned Para1, const char* s) {
 116:Middlewares/Third_Party/SystemView/SEGGER/SEGGER_SYSVIEW.c ****       U8  aPacket[SEGGER_SYSVIEW_INFO_SIZE + 2 * SEGGER_SYSVIEW_QUANTA_U32 + MAX_STR_LEN + 1];
 117:Middlewares/Third_Party/SystemView/SEGGER/SEGGER_SYSVIEW.c ****       U8* pPayload;
 118:Middlewares/Third_Party/SystemView/SEGGER/SEGGER_SYSVIEW.c ****       //
 119:Middlewares/Third_Party/SystemView/SEGGER/SEGGER_SYSVIEW.c ****       pPayload = SEGGER_SYSVIEW_PPREPARE_PACKET(aPacket);               // Prepare the packet for S
 120:Middlewares/Third_Party/SystemView/SEGGER/SEGGER_SYSVIEW.c ****       pPayload = SEGGER_SYSVIEW_EncodeU32(pPayload, Para0);             // Add the first parameter 
 121:Middlewares/Third_Party/SystemView/SEGGER/SEGGER_SYSVIEW.c ****       pPayload = SEGGER_SYSVIEW_EncodeU32(pPayload, Para1);             // Add the second parameter
 122:Middlewares/Third_Party/SystemView/SEGGER/SEGGER_SYSVIEW.c ****       pPayload = SEGGER_SYSVIEW_EncodeString(pPayload, s, MAX_STR_LEN); // Add the string to the pa
 123:Middlewares/Third_Party/SystemView/SEGGER/SEGGER_SYSVIEW.c ****       //
 124:Middlewares/Third_Party/SystemView/SEGGER/SEGGER_SYSVIEW.c ****       SEGGER_SYSVIEW_SendPacket(&aPacket[0], pPayload, MY_ID);          // Send the packet with Eve
 125:Middlewares/Third_Party/SystemView/SEGGER/SEGGER_SYSVIEW.c ****     }
 126:Middlewares/Third_Party/SystemView/SEGGER/SEGGER_SYSVIEW.c **** 
 127:Middlewares/Third_Party/SystemView/SEGGER/SEGGER_SYSVIEW.c ****     #define MY_ID_1 0x401
 128:Middlewares/Third_Party/SystemView/SEGGER/SEGGER_SYSVIEW.c ****     void SendOnePara(unsigned Para0) {
 129:Middlewares/Third_Party/SystemView/SEGGER/SEGGER_SYSVIEW.c ****       SEGGER_SYSVIEW_RecordU32(MY_ID_1, Para0);
 130:Middlewares/Third_Party/SystemView/SEGGER/SEGGER_SYSVIEW.c ****     }
 131:Middlewares/Third_Party/SystemView/SEGGER/SEGGER_SYSVIEW.c **** 
 132:Middlewares/Third_Party/SystemView/SEGGER/SEGGER_SYSVIEW.c **** */
 133:Middlewares/Third_Party/SystemView/SEGGER/SEGGER_SYSVIEW.c **** 
 134:Middlewares/Third_Party/SystemView/SEGGER/SEGGER_SYSVIEW.c **** /*********************************************************************
 135:Middlewares/Third_Party/SystemView/SEGGER/SEGGER_SYSVIEW.c **** *
 136:Middlewares/Third_Party/SystemView/SEGGER/SEGGER_SYSVIEW.c **** *       #include section
 137:Middlewares/Third_Party/SystemView/SEGGER/SEGGER_SYSVIEW.c **** *
 138:Middlewares/Third_Party/SystemView/SEGGER/SEGGER_SYSVIEW.c **** **********************************************************************
 139:Middlewares/Third_Party/SystemView/SEGGER/SEGGER_SYSVIEW.c **** */
 140:Middlewares/Third_Party/SystemView/SEGGER/SEGGER_SYSVIEW.c **** 
 141:Middlewares/Third_Party/SystemView/SEGGER/SEGGER_SYSVIEW.c **** #define SEGGER_SYSVIEW_C  // For EXTERN statements in SEGGER_SYSVIEW.h
 142:Middlewares/Third_Party/SystemView/SEGGER/SEGGER_SYSVIEW.c **** 
 143:Middlewares/Third_Party/SystemView/SEGGER/SEGGER_SYSVIEW.c **** #include <string.h>
 144:Middlewares/Third_Party/SystemView/SEGGER/SEGGER_SYSVIEW.c **** #include <stdlib.h>
ARM GAS  C:\Users\KETEN_~1\AppData\Local\Temp\cck9qv27.s 			page 4


 145:Middlewares/Third_Party/SystemView/SEGGER/SEGGER_SYSVIEW.c **** #include <stdarg.h>
 146:Middlewares/Third_Party/SystemView/SEGGER/SEGGER_SYSVIEW.c **** #include "SEGGER_SYSVIEW_Int.h"
 147:Middlewares/Third_Party/SystemView/SEGGER/SEGGER_SYSVIEW.c **** #include "SEGGER_RTT.h"
 148:Middlewares/Third_Party/SystemView/SEGGER/SEGGER_SYSVIEW.c **** 
 149:Middlewares/Third_Party/SystemView/SEGGER/SEGGER_SYSVIEW.c **** /*********************************************************************
 150:Middlewares/Third_Party/SystemView/SEGGER/SEGGER_SYSVIEW.c **** *
 151:Middlewares/Third_Party/SystemView/SEGGER/SEGGER_SYSVIEW.c **** *       Defines, fixed
 152:Middlewares/Third_Party/SystemView/SEGGER/SEGGER_SYSVIEW.c **** *
 153:Middlewares/Third_Party/SystemView/SEGGER/SEGGER_SYSVIEW.c **** **********************************************************************
 154:Middlewares/Third_Party/SystemView/SEGGER/SEGGER_SYSVIEW.c **** */
 155:Middlewares/Third_Party/SystemView/SEGGER/SEGGER_SYSVIEW.c **** #if SEGGER_SYSVIEW_ID_SHIFT
 156:Middlewares/Third_Party/SystemView/SEGGER/SEGGER_SYSVIEW.c ****   #define SHRINK_ID(Id)   (((Id) - _SYSVIEW_Globals.RAMBaseAddress) >> SEGGER_SYSVIEW_ID_SHIFT)
 157:Middlewares/Third_Party/SystemView/SEGGER/SEGGER_SYSVIEW.c **** #else
 158:Middlewares/Third_Party/SystemView/SEGGER/SEGGER_SYSVIEW.c ****   #define SHRINK_ID(Id)   ((Id) - _SYSVIEW_Globals.RAMBaseAddress)
 159:Middlewares/Third_Party/SystemView/SEGGER/SEGGER_SYSVIEW.c **** #endif
 160:Middlewares/Third_Party/SystemView/SEGGER/SEGGER_SYSVIEW.c **** 
 161:Middlewares/Third_Party/SystemView/SEGGER/SEGGER_SYSVIEW.c **** #if SEGGER_SYSVIEW_RTT_CHANNEL > 0
 162:Middlewares/Third_Party/SystemView/SEGGER/SEGGER_SYSVIEW.c ****   #define CHANNEL_ID_UP   SEGGER_SYSVIEW_RTT_CHANNEL
 163:Middlewares/Third_Party/SystemView/SEGGER/SEGGER_SYSVIEW.c ****   #define CHANNEL_ID_DOWN SEGGER_SYSVIEW_RTT_CHANNEL
 164:Middlewares/Third_Party/SystemView/SEGGER/SEGGER_SYSVIEW.c **** #else
 165:Middlewares/Third_Party/SystemView/SEGGER/SEGGER_SYSVIEW.c ****   #define CHANNEL_ID_UP   _SYSVIEW_Globals.UpChannel
 166:Middlewares/Third_Party/SystemView/SEGGER/SEGGER_SYSVIEW.c ****   #define CHANNEL_ID_DOWN _SYSVIEW_Globals.DownChannel
 167:Middlewares/Third_Party/SystemView/SEGGER/SEGGER_SYSVIEW.c **** #endif
 168:Middlewares/Third_Party/SystemView/SEGGER/SEGGER_SYSVIEW.c **** 
 169:Middlewares/Third_Party/SystemView/SEGGER/SEGGER_SYSVIEW.c **** #if SEGGER_SYSVIEW_CPU_CACHE_LINE_SIZE
 170:Middlewares/Third_Party/SystemView/SEGGER/SEGGER_SYSVIEW.c ****   #if (SEGGER_SYSVIEW_RTT_BUFFER_SIZE % SEGGER_SYSVIEW_CPU_CACHE_LINE_SIZE)
 171:Middlewares/Third_Party/SystemView/SEGGER/SEGGER_SYSVIEW.c ****     #error "SEGGER_SYSVIEW_RTT_BUFFER_SIZE must be a multiple of SEGGER_SYSVIEW_CPU_CACHE_LINE_SIZE
 172:Middlewares/Third_Party/SystemView/SEGGER/SEGGER_SYSVIEW.c ****   #endif
 173:Middlewares/Third_Party/SystemView/SEGGER/SEGGER_SYSVIEW.c **** #endif
 174:Middlewares/Third_Party/SystemView/SEGGER/SEGGER_SYSVIEW.c **** 
 175:Middlewares/Third_Party/SystemView/SEGGER/SEGGER_SYSVIEW.c **** /*********************************************************************
 176:Middlewares/Third_Party/SystemView/SEGGER/SEGGER_SYSVIEW.c **** *
 177:Middlewares/Third_Party/SystemView/SEGGER/SEGGER_SYSVIEW.c **** *       Defines, configurable
 178:Middlewares/Third_Party/SystemView/SEGGER/SEGGER_SYSVIEW.c **** *
 179:Middlewares/Third_Party/SystemView/SEGGER/SEGGER_SYSVIEW.c **** **********************************************************************
 180:Middlewares/Third_Party/SystemView/SEGGER/SEGGER_SYSVIEW.c **** */
 181:Middlewares/Third_Party/SystemView/SEGGER/SEGGER_SYSVIEW.c **** // Timestamps may be less than full 32-bits, in which case we need to zero
 182:Middlewares/Third_Party/SystemView/SEGGER/SEGGER_SYSVIEW.c **** // the unused bits to properly handle overflows.
 183:Middlewares/Third_Party/SystemView/SEGGER/SEGGER_SYSVIEW.c **** // Note that this is a quite common scenario, as a 32-bit time such as
 184:Middlewares/Third_Party/SystemView/SEGGER/SEGGER_SYSVIEW.c **** // SysTick might be scaled down to reduce bandwith
 185:Middlewares/Third_Party/SystemView/SEGGER/SEGGER_SYSVIEW.c **** // or a 16-bit hardware time might be used.
 186:Middlewares/Third_Party/SystemView/SEGGER/SEGGER_SYSVIEW.c **** #if SEGGER_SYSVIEW_TIMESTAMP_BITS < 32  // Eliminate unused bits in case hardware timestamps are le
 187:Middlewares/Third_Party/SystemView/SEGGER/SEGGER_SYSVIEW.c ****   #define MAKE_DELTA_32BIT(Delta) Delta <<= 32 - SEGGER_SYSVIEW_TIMESTAMP_BITS; \
 188:Middlewares/Third_Party/SystemView/SEGGER/SEGGER_SYSVIEW.c ****                                   Delta >>= 32 - SEGGER_SYSVIEW_TIMESTAMP_BITS;
 189:Middlewares/Third_Party/SystemView/SEGGER/SEGGER_SYSVIEW.c **** #else
 190:Middlewares/Third_Party/SystemView/SEGGER/SEGGER_SYSVIEW.c ****   #define MAKE_DELTA_32BIT(Delta)
 191:Middlewares/Third_Party/SystemView/SEGGER/SEGGER_SYSVIEW.c **** #endif
 192:Middlewares/Third_Party/SystemView/SEGGER/SEGGER_SYSVIEW.c **** 
 193:Middlewares/Third_Party/SystemView/SEGGER/SEGGER_SYSVIEW.c **** 
 194:Middlewares/Third_Party/SystemView/SEGGER/SEGGER_SYSVIEW.c **** /*********************************************************************
 195:Middlewares/Third_Party/SystemView/SEGGER/SEGGER_SYSVIEW.c **** *
 196:Middlewares/Third_Party/SystemView/SEGGER/SEGGER_SYSVIEW.c **** *       Defines, fixed
 197:Middlewares/Third_Party/SystemView/SEGGER/SEGGER_SYSVIEW.c **** *
 198:Middlewares/Third_Party/SystemView/SEGGER/SEGGER_SYSVIEW.c **** **********************************************************************
 199:Middlewares/Third_Party/SystemView/SEGGER/SEGGER_SYSVIEW.c **** */
 200:Middlewares/Third_Party/SystemView/SEGGER/SEGGER_SYSVIEW.c **** #define ENABLE_STATE_OFF        0
 201:Middlewares/Third_Party/SystemView/SEGGER/SEGGER_SYSVIEW.c **** #define ENABLE_STATE_ON         1
ARM GAS  C:\Users\KETEN_~1\AppData\Local\Temp\cck9qv27.s 			page 5


 202:Middlewares/Third_Party/SystemView/SEGGER/SEGGER_SYSVIEW.c **** #define ENABLE_STATE_DROPPING   2
 203:Middlewares/Third_Party/SystemView/SEGGER/SEGGER_SYSVIEW.c **** 
 204:Middlewares/Third_Party/SystemView/SEGGER/SEGGER_SYSVIEW.c **** #define FORMAT_FLAG_LEFT_JUSTIFY   (1u << 0)
 205:Middlewares/Third_Party/SystemView/SEGGER/SEGGER_SYSVIEW.c **** #define FORMAT_FLAG_PAD_ZERO       (1u << 1)
 206:Middlewares/Third_Party/SystemView/SEGGER/SEGGER_SYSVIEW.c **** #define FORMAT_FLAG_PRINT_SIGN     (1u << 2)
 207:Middlewares/Third_Party/SystemView/SEGGER/SEGGER_SYSVIEW.c **** #define FORMAT_FLAG_ALTERNATE      (1u << 3)
 208:Middlewares/Third_Party/SystemView/SEGGER/SEGGER_SYSVIEW.c **** 
 209:Middlewares/Third_Party/SystemView/SEGGER/SEGGER_SYSVIEW.c **** #define MODULE_EVENT_OFFSET        (512)
 210:Middlewares/Third_Party/SystemView/SEGGER/SEGGER_SYSVIEW.c **** 
 211:Middlewares/Third_Party/SystemView/SEGGER/SEGGER_SYSVIEW.c **** /*********************************************************************
 212:Middlewares/Third_Party/SystemView/SEGGER/SEGGER_SYSVIEW.c **** *
 213:Middlewares/Third_Party/SystemView/SEGGER/SEGGER_SYSVIEW.c **** *       Types, local
 214:Middlewares/Third_Party/SystemView/SEGGER/SEGGER_SYSVIEW.c **** *
 215:Middlewares/Third_Party/SystemView/SEGGER/SEGGER_SYSVIEW.c **** **********************************************************************
 216:Middlewares/Third_Party/SystemView/SEGGER/SEGGER_SYSVIEW.c **** */
 217:Middlewares/Third_Party/SystemView/SEGGER/SEGGER_SYSVIEW.c **** typedef struct {
 218:Middlewares/Third_Party/SystemView/SEGGER/SEGGER_SYSVIEW.c ****   U8*       pBuffer;
 219:Middlewares/Third_Party/SystemView/SEGGER/SEGGER_SYSVIEW.c ****   U8*       pPayload;
 220:Middlewares/Third_Party/SystemView/SEGGER/SEGGER_SYSVIEW.c ****   U8*       pPayloadStart;
 221:Middlewares/Third_Party/SystemView/SEGGER/SEGGER_SYSVIEW.c ****   U32       Options;
 222:Middlewares/Third_Party/SystemView/SEGGER/SEGGER_SYSVIEW.c ****   unsigned  Cnt;
 223:Middlewares/Third_Party/SystemView/SEGGER/SEGGER_SYSVIEW.c **** } SEGGER_SYSVIEW_PRINTF_DESC;
 224:Middlewares/Third_Party/SystemView/SEGGER/SEGGER_SYSVIEW.c **** 
 225:Middlewares/Third_Party/SystemView/SEGGER/SEGGER_SYSVIEW.c **** typedef struct {
 226:Middlewares/Third_Party/SystemView/SEGGER/SEGGER_SYSVIEW.c ****         U8                      EnableState;   // 0: Disabled, 1: Enabled, (2: Dropping)
 227:Middlewares/Third_Party/SystemView/SEGGER/SEGGER_SYSVIEW.c ****         U8                      UpChannel;
 228:Middlewares/Third_Party/SystemView/SEGGER/SEGGER_SYSVIEW.c ****         U8                      RecursionCnt;
 229:Middlewares/Third_Party/SystemView/SEGGER/SEGGER_SYSVIEW.c ****         U32                     SysFreq;
 230:Middlewares/Third_Party/SystemView/SEGGER/SEGGER_SYSVIEW.c ****         U32                     CPUFreq;
 231:Middlewares/Third_Party/SystemView/SEGGER/SEGGER_SYSVIEW.c ****         U32                     LastTxTimeStamp;
 232:Middlewares/Third_Party/SystemView/SEGGER/SEGGER_SYSVIEW.c ****         U32                     RAMBaseAddress;
 233:Middlewares/Third_Party/SystemView/SEGGER/SEGGER_SYSVIEW.c **** #if (SEGGER_SYSVIEW_POST_MORTEM_MODE == 1)
 234:Middlewares/Third_Party/SystemView/SEGGER/SEGGER_SYSVIEW.c ****         U32                     PacketCount;
 235:Middlewares/Third_Party/SystemView/SEGGER/SEGGER_SYSVIEW.c **** #else
 236:Middlewares/Third_Party/SystemView/SEGGER/SEGGER_SYSVIEW.c ****         U32                     DropCount;
 237:Middlewares/Third_Party/SystemView/SEGGER/SEGGER_SYSVIEW.c ****         U8                      DownChannel;
 238:Middlewares/Third_Party/SystemView/SEGGER/SEGGER_SYSVIEW.c **** #endif
 239:Middlewares/Third_Party/SystemView/SEGGER/SEGGER_SYSVIEW.c ****         U32                     DisabledEvents;
 240:Middlewares/Third_Party/SystemView/SEGGER/SEGGER_SYSVIEW.c ****   const SEGGER_SYSVIEW_OS_API*  pOSAPI;
 241:Middlewares/Third_Party/SystemView/SEGGER/SEGGER_SYSVIEW.c ****         SEGGER_SYSVIEW_SEND_SYS_DESC_FUNC*   pfSendSysDesc;
 242:Middlewares/Third_Party/SystemView/SEGGER/SEGGER_SYSVIEW.c **** } SEGGER_SYSVIEW_GLOBALS;
 243:Middlewares/Third_Party/SystemView/SEGGER/SEGGER_SYSVIEW.c **** 
 244:Middlewares/Third_Party/SystemView/SEGGER/SEGGER_SYSVIEW.c **** /*********************************************************************
 245:Middlewares/Third_Party/SystemView/SEGGER/SEGGER_SYSVIEW.c **** *
 246:Middlewares/Third_Party/SystemView/SEGGER/SEGGER_SYSVIEW.c **** *       Function prototypes, required
 247:Middlewares/Third_Party/SystemView/SEGGER/SEGGER_SYSVIEW.c **** *
 248:Middlewares/Third_Party/SystemView/SEGGER/SEGGER_SYSVIEW.c **** **********************************************************************
 249:Middlewares/Third_Party/SystemView/SEGGER/SEGGER_SYSVIEW.c **** */
 250:Middlewares/Third_Party/SystemView/SEGGER/SEGGER_SYSVIEW.c **** static void _SendPacket(U8* pStartPacket, U8* pEndPacket, unsigned int EventId);
 251:Middlewares/Third_Party/SystemView/SEGGER/SEGGER_SYSVIEW.c **** 
 252:Middlewares/Third_Party/SystemView/SEGGER/SEGGER_SYSVIEW.c **** /*********************************************************************
 253:Middlewares/Third_Party/SystemView/SEGGER/SEGGER_SYSVIEW.c **** *
 254:Middlewares/Third_Party/SystemView/SEGGER/SEGGER_SYSVIEW.c **** *       Static data
 255:Middlewares/Third_Party/SystemView/SEGGER/SEGGER_SYSVIEW.c **** *
 256:Middlewares/Third_Party/SystemView/SEGGER/SEGGER_SYSVIEW.c **** **********************************************************************
 257:Middlewares/Third_Party/SystemView/SEGGER/SEGGER_SYSVIEW.c **** */
 258:Middlewares/Third_Party/SystemView/SEGGER/SEGGER_SYSVIEW.c **** static const U8 _abSync[10] = { 0x00, 0x00, 0x00, 0x00, 0x00, 0x00, 0x00, 0x00, 0x00, 0x00};
ARM GAS  C:\Users\KETEN_~1\AppData\Local\Temp\cck9qv27.s 			page 6


 259:Middlewares/Third_Party/SystemView/SEGGER/SEGGER_SYSVIEW.c **** 
 260:Middlewares/Third_Party/SystemView/SEGGER/SEGGER_SYSVIEW.c **** #if SEGGER_SYSVIEW_CPU_CACHE_LINE_SIZE
 261:Middlewares/Third_Party/SystemView/SEGGER/SEGGER_SYSVIEW.c ****   #ifdef SEGGER_SYSVIEW_SECTION
 262:Middlewares/Third_Party/SystemView/SEGGER/SEGGER_SYSVIEW.c ****     //
 263:Middlewares/Third_Party/SystemView/SEGGER/SEGGER_SYSVIEW.c ****     // Alignment + special section required
 264:Middlewares/Third_Party/SystemView/SEGGER/SEGGER_SYSVIEW.c ****     //
 265:Middlewares/Third_Party/SystemView/SEGGER/SEGGER_SYSVIEW.c ****     #if (defined __GNUC__)
 266:Middlewares/Third_Party/SystemView/SEGGER/SEGGER_SYSVIEW.c ****       __attribute__ ((section (SEGGER_SYSVIEW_SECTION), aligned (SEGGER_SYSVIEW_CPU_CACHE_LINE_SIZE
 267:Middlewares/Third_Party/SystemView/SEGGER/SEGGER_SYSVIEW.c ****       #if (SEGGER_SYSVIEW_POST_MORTEM_MODE != 1)
 268:Middlewares/Third_Party/SystemView/SEGGER/SEGGER_SYSVIEW.c ****         __attribute__ ((section (SEGGER_SYSVIEW_SECTION), aligned (SEGGER_SYSVIEW_CPU_CACHE_LINE_SI
 269:Middlewares/Third_Party/SystemView/SEGGER/SEGGER_SYSVIEW.c ****       #endif
 270:Middlewares/Third_Party/SystemView/SEGGER/SEGGER_SYSVIEW.c ****     #elif (defined __ICCARM__) || (defined __ICCRX__)
 271:Middlewares/Third_Party/SystemView/SEGGER/SEGGER_SYSVIEW.c ****       #pragma location=SEGGER_SYSVIEW_SECTION
 272:Middlewares/Third_Party/SystemView/SEGGER/SEGGER_SYSVIEW.c ****       #pragma data_alignment=SEGGER_RTT_CPU_CACHE_LINE_SIZE
 273:Middlewares/Third_Party/SystemView/SEGGER/SEGGER_SYSVIEW.c ****       static char _UpBuffer  [SEGGER_SYSVIEW_RTT_BUFFER_SIZE];
 274:Middlewares/Third_Party/SystemView/SEGGER/SEGGER_SYSVIEW.c ****       #if (SEGGER_SYSVIEW_POST_MORTEM_MODE != 1)
 275:Middlewares/Third_Party/SystemView/SEGGER/SEGGER_SYSVIEW.c ****         #pragma location=SEGGER_SYSVIEW_SECTION
 276:Middlewares/Third_Party/SystemView/SEGGER/SEGGER_SYSVIEW.c ****         #pragma data_alignment=SEGGER_RTT_CPU_CACHE_LINE_SIZE
 277:Middlewares/Third_Party/SystemView/SEGGER/SEGGER_SYSVIEW.c ****         static char _DownBuffer[8];  // Small, fixed-size buffer, for back-channel comms
 278:Middlewares/Third_Party/SystemView/SEGGER/SEGGER_SYSVIEW.c ****       #endif
 279:Middlewares/Third_Party/SystemView/SEGGER/SEGGER_SYSVIEW.c ****     #elif (defined __CC_ARM)
 280:Middlewares/Third_Party/SystemView/SEGGER/SEGGER_SYSVIEW.c ****       __attribute__ ((section (SEGGER_SYSVIEW_SECTION), aligned (SEGGER_SYSVIEW_CPU_CACHE_LINE_SIZE
 281:Middlewares/Third_Party/SystemView/SEGGER/SEGGER_SYSVIEW.c ****       #if (SEGGER_SYSVIEW_POST_MORTEM_MODE != 1)
 282:Middlewares/Third_Party/SystemView/SEGGER/SEGGER_SYSVIEW.c ****         __attribute__ ((section (SEGGER_SYSVIEW_SECTION), aligned (SEGGER_SYSVIEW_CPU_CACHE_LINE_SI
 283:Middlewares/Third_Party/SystemView/SEGGER/SEGGER_SYSVIEW.c ****       #endif
 284:Middlewares/Third_Party/SystemView/SEGGER/SEGGER_SYSVIEW.c ****     #else
 285:Middlewares/Third_Party/SystemView/SEGGER/SEGGER_SYSVIEW.c ****       #error "Do not know how to place SystemView buffers in specific section"
 286:Middlewares/Third_Party/SystemView/SEGGER/SEGGER_SYSVIEW.c ****     #endif
 287:Middlewares/Third_Party/SystemView/SEGGER/SEGGER_SYSVIEW.c ****   #else
 288:Middlewares/Third_Party/SystemView/SEGGER/SEGGER_SYSVIEW.c ****     //
 289:Middlewares/Third_Party/SystemView/SEGGER/SEGGER_SYSVIEW.c ****     // Only alignment required
 290:Middlewares/Third_Party/SystemView/SEGGER/SEGGER_SYSVIEW.c ****     //
 291:Middlewares/Third_Party/SystemView/SEGGER/SEGGER_SYSVIEW.c ****     #if (defined __GNUC__)
 292:Middlewares/Third_Party/SystemView/SEGGER/SEGGER_SYSVIEW.c ****       __attribute__ ((aligned (SEGGER_SYSVIEW_CPU_CACHE_LINE_SIZE))) static char _UpBuffer  [SEGGER
 293:Middlewares/Third_Party/SystemView/SEGGER/SEGGER_SYSVIEW.c ****       #if (SEGGER_SYSVIEW_POST_MORTEM_MODE != 1)
 294:Middlewares/Third_Party/SystemView/SEGGER/SEGGER_SYSVIEW.c ****         __attribute__ ((aligned (SEGGER_SYSVIEW_CPU_CACHE_LINE_SIZE))) static char _DownBuffer[8]; 
 295:Middlewares/Third_Party/SystemView/SEGGER/SEGGER_SYSVIEW.c ****       #endif
 296:Middlewares/Third_Party/SystemView/SEGGER/SEGGER_SYSVIEW.c ****     #elif (defined __ICCARM__) || (defined __ICCRX__)
 297:Middlewares/Third_Party/SystemView/SEGGER/SEGGER_SYSVIEW.c ****       #pragma data_alignment=SEGGER_RTT_CPU_CACHE_LINE_SIZE
 298:Middlewares/Third_Party/SystemView/SEGGER/SEGGER_SYSVIEW.c ****       static char _UpBuffer  [SEGGER_SYSVIEW_RTT_BUFFER_SIZE];
 299:Middlewares/Third_Party/SystemView/SEGGER/SEGGER_SYSVIEW.c ****       #if (SEGGER_SYSVIEW_POST_MORTEM_MODE != 1)
 300:Middlewares/Third_Party/SystemView/SEGGER/SEGGER_SYSVIEW.c ****         #pragma data_alignment=SEGGER_RTT_CPU_CACHE_LINE_SIZE
 301:Middlewares/Third_Party/SystemView/SEGGER/SEGGER_SYSVIEW.c ****         static char _DownBuffer[8];  // Small, fixed-size buffer, for back-channel comms
 302:Middlewares/Third_Party/SystemView/SEGGER/SEGGER_SYSVIEW.c ****       #endif
 303:Middlewares/Third_Party/SystemView/SEGGER/SEGGER_SYSVIEW.c ****     #elif (defined __CC_ARM)
 304:Middlewares/Third_Party/SystemView/SEGGER/SEGGER_SYSVIEW.c ****       __attribute__ ((aligned (SEGGER_SYSVIEW_CPU_CACHE_LINE_SIZE), zero_init)) static char _UpBuff
 305:Middlewares/Third_Party/SystemView/SEGGER/SEGGER_SYSVIEW.c ****       #if (SEGGER_SYSVIEW_POST_MORTEM_MODE != 1)
 306:Middlewares/Third_Party/SystemView/SEGGER/SEGGER_SYSVIEW.c ****         __attribute__ ((aligned (SEGGER_SYSVIEW_CPU_CACHE_LINE_SIZE), zero_init)) static char _Down
 307:Middlewares/Third_Party/SystemView/SEGGER/SEGGER_SYSVIEW.c ****       #endif
 308:Middlewares/Third_Party/SystemView/SEGGER/SEGGER_SYSVIEW.c ****     #else
 309:Middlewares/Third_Party/SystemView/SEGGER/SEGGER_SYSVIEW.c ****       #error "Do not know how to align SystemView buffers to cache line size"
 310:Middlewares/Third_Party/SystemView/SEGGER/SEGGER_SYSVIEW.c ****     #endif
 311:Middlewares/Third_Party/SystemView/SEGGER/SEGGER_SYSVIEW.c ****   #endif
 312:Middlewares/Third_Party/SystemView/SEGGER/SEGGER_SYSVIEW.c **** #else
 313:Middlewares/Third_Party/SystemView/SEGGER/SEGGER_SYSVIEW.c ****   #ifdef SEGGER_SYSVIEW_SECTION
 314:Middlewares/Third_Party/SystemView/SEGGER/SEGGER_SYSVIEW.c ****     //
 315:Middlewares/Third_Party/SystemView/SEGGER/SEGGER_SYSVIEW.c ****     // Only special section required
ARM GAS  C:\Users\KETEN_~1\AppData\Local\Temp\cck9qv27.s 			page 7


 316:Middlewares/Third_Party/SystemView/SEGGER/SEGGER_SYSVIEW.c ****     //
 317:Middlewares/Third_Party/SystemView/SEGGER/SEGGER_SYSVIEW.c ****     #if (defined __GNUC__)
 318:Middlewares/Third_Party/SystemView/SEGGER/SEGGER_SYSVIEW.c ****       __attribute__ ((section (SEGGER_SYSVIEW_SECTION))) static char _UpBuffer  [SEGGER_SYSVIEW_RTT
 319:Middlewares/Third_Party/SystemView/SEGGER/SEGGER_SYSVIEW.c ****       #if (SEGGER_SYSVIEW_POST_MORTEM_MODE != 1)
 320:Middlewares/Third_Party/SystemView/SEGGER/SEGGER_SYSVIEW.c ****         __attribute__ ((section (SEGGER_SYSVIEW_SECTION))) static char _DownBuffer[8];  // Small, f
 321:Middlewares/Third_Party/SystemView/SEGGER/SEGGER_SYSVIEW.c ****       #endif
 322:Middlewares/Third_Party/SystemView/SEGGER/SEGGER_SYSVIEW.c ****     #elif (defined __ICCARM__) || (defined __ICCRX__)
 323:Middlewares/Third_Party/SystemView/SEGGER/SEGGER_SYSVIEW.c ****       #pragma location=SEGGER_SYSVIEW_SECTION
 324:Middlewares/Third_Party/SystemView/SEGGER/SEGGER_SYSVIEW.c ****       static char _UpBuffer  [SEGGER_SYSVIEW_RTT_BUFFER_SIZE];
 325:Middlewares/Third_Party/SystemView/SEGGER/SEGGER_SYSVIEW.c ****       #if (SEGGER_SYSVIEW_POST_MORTEM_MODE != 1)
 326:Middlewares/Third_Party/SystemView/SEGGER/SEGGER_SYSVIEW.c ****         #pragma location=SEGGER_SYSVIEW_SECTION
 327:Middlewares/Third_Party/SystemView/SEGGER/SEGGER_SYSVIEW.c ****         static char _DownBuffer[8];  // Small, fixed-size buffer, for back-channel comms
 328:Middlewares/Third_Party/SystemView/SEGGER/SEGGER_SYSVIEW.c ****       #endif
 329:Middlewares/Third_Party/SystemView/SEGGER/SEGGER_SYSVIEW.c ****     #elif (defined __CC_ARM)
 330:Middlewares/Third_Party/SystemView/SEGGER/SEGGER_SYSVIEW.c ****       __attribute__ ((section (SEGGER_SYSVIEW_SECTION), zero_init)) static char _UpBuffer  [SEGGER_
 331:Middlewares/Third_Party/SystemView/SEGGER/SEGGER_SYSVIEW.c ****       #if (SEGGER_SYSVIEW_POST_MORTEM_MODE != 1)
 332:Middlewares/Third_Party/SystemView/SEGGER/SEGGER_SYSVIEW.c ****         __attribute__ ((section (SEGGER_SYSVIEW_SECTION), zero_init)) static char _DownBuffer[8];  
 333:Middlewares/Third_Party/SystemView/SEGGER/SEGGER_SYSVIEW.c ****       #endif
 334:Middlewares/Third_Party/SystemView/SEGGER/SEGGER_SYSVIEW.c ****     #else
 335:Middlewares/Third_Party/SystemView/SEGGER/SEGGER_SYSVIEW.c ****       #error "Do not know how to place SystemView buffers in specific section"
 336:Middlewares/Third_Party/SystemView/SEGGER/SEGGER_SYSVIEW.c ****     #endif
 337:Middlewares/Third_Party/SystemView/SEGGER/SEGGER_SYSVIEW.c ****   #else
 338:Middlewares/Third_Party/SystemView/SEGGER/SEGGER_SYSVIEW.c ****     //
 339:Middlewares/Third_Party/SystemView/SEGGER/SEGGER_SYSVIEW.c ****     // Neither special section nor alignment required
 340:Middlewares/Third_Party/SystemView/SEGGER/SEGGER_SYSVIEW.c ****     //
 341:Middlewares/Third_Party/SystemView/SEGGER/SEGGER_SYSVIEW.c ****     static char _UpBuffer  [SEGGER_SYSVIEW_RTT_BUFFER_SIZE];
 342:Middlewares/Third_Party/SystemView/SEGGER/SEGGER_SYSVIEW.c ****     #if (SEGGER_SYSVIEW_POST_MORTEM_MODE != 1)
 343:Middlewares/Third_Party/SystemView/SEGGER/SEGGER_SYSVIEW.c ****       static char _DownBuffer[8];  // Small, fixed-size buffer, for back-channel comms
 344:Middlewares/Third_Party/SystemView/SEGGER/SEGGER_SYSVIEW.c ****     #endif
 345:Middlewares/Third_Party/SystemView/SEGGER/SEGGER_SYSVIEW.c ****   #endif
 346:Middlewares/Third_Party/SystemView/SEGGER/SEGGER_SYSVIEW.c **** #endif
 347:Middlewares/Third_Party/SystemView/SEGGER/SEGGER_SYSVIEW.c **** 
 348:Middlewares/Third_Party/SystemView/SEGGER/SEGGER_SYSVIEW.c **** #ifdef SEGGER_SYSVIEW_SECTION
 349:Middlewares/Third_Party/SystemView/SEGGER/SEGGER_SYSVIEW.c ****   #if (defined __GNUC__)
 350:Middlewares/Third_Party/SystemView/SEGGER/SEGGER_SYSVIEW.c ****     __attribute__ ((section (SEGGER_SYSVIEW_SECTION))) static char _UpBuffer  [SEGGER_SYSVIEW_RTT_B
 351:Middlewares/Third_Party/SystemView/SEGGER/SEGGER_SYSVIEW.c ****     #if (SEGGER_SYSVIEW_POST_MORTEM_MODE != 1)
 352:Middlewares/Third_Party/SystemView/SEGGER/SEGGER_SYSVIEW.c ****     __attribute__ ((section (SEGGER_SYSVIEW_SECTION))) static char _DownBuffer[8];  // Small, fixed
 353:Middlewares/Third_Party/SystemView/SEGGER/SEGGER_SYSVIEW.c ****     #endif
 354:Middlewares/Third_Party/SystemView/SEGGER/SEGGER_SYSVIEW.c ****   #elif (defined __ICCARM__) || (defined __ICCRX__)
 355:Middlewares/Third_Party/SystemView/SEGGER/SEGGER_SYSVIEW.c ****     #pragma location=SEGGER_SYSVIEW_SECTION
 356:Middlewares/Third_Party/SystemView/SEGGER/SEGGER_SYSVIEW.c ****     static char _UpBuffer  [SEGGER_SYSVIEW_RTT_BUFFER_SIZE];
 357:Middlewares/Third_Party/SystemView/SEGGER/SEGGER_SYSVIEW.c ****     #pragma location=SEGGER_SYSVIEW_SECTION
 358:Middlewares/Third_Party/SystemView/SEGGER/SEGGER_SYSVIEW.c ****     static char _DownBuffer[8];  // Small, fixed-size buffer, for back-channel comms
 359:Middlewares/Third_Party/SystemView/SEGGER/SEGGER_SYSVIEW.c ****   #elif (defined __CC_ARM)
 360:Middlewares/Third_Party/SystemView/SEGGER/SEGGER_SYSVIEW.c ****     __attribute__ ((section (SEGGER_SYSVIEW_SECTION), zero_init)) static char _UpBuffer  [SEGGER_SY
 361:Middlewares/Third_Party/SystemView/SEGGER/SEGGER_SYSVIEW.c ****     #if (SEGGER_SYSVIEW_POST_MORTEM_MODE != 1)
 362:Middlewares/Third_Party/SystemView/SEGGER/SEGGER_SYSVIEW.c ****     __attribute__ ((section (SEGGER_SYSVIEW_SECTION), zero_init)) static char _DownBuffer[8];  // S
 363:Middlewares/Third_Party/SystemView/SEGGER/SEGGER_SYSVIEW.c ****     #endif
 364:Middlewares/Third_Party/SystemView/SEGGER/SEGGER_SYSVIEW.c ****   #else
 365:Middlewares/Third_Party/SystemView/SEGGER/SEGGER_SYSVIEW.c ****     static char _UpBuffer  [SEGGER_SYSVIEW_RTT_BUFFER_SIZE];
 366:Middlewares/Third_Party/SystemView/SEGGER/SEGGER_SYSVIEW.c ****     #if (SEGGER_SYSVIEW_POST_MORTEM_MODE != 1)
 367:Middlewares/Third_Party/SystemView/SEGGER/SEGGER_SYSVIEW.c ****     static char _DownBuffer[8];  // Small, fixed-size buffer, for back-channel comms
 368:Middlewares/Third_Party/SystemView/SEGGER/SEGGER_SYSVIEW.c ****     #endif
 369:Middlewares/Third_Party/SystemView/SEGGER/SEGGER_SYSVIEW.c ****   #endif
 370:Middlewares/Third_Party/SystemView/SEGGER/SEGGER_SYSVIEW.c **** #else
 371:Middlewares/Third_Party/SystemView/SEGGER/SEGGER_SYSVIEW.c ****   #if SEGGER_SYSVIEW_CPU_CACHE_LINE_SIZE
 372:Middlewares/Third_Party/SystemView/SEGGER/SEGGER_SYSVIEW.c ****     #if (defined __GNUC__)
ARM GAS  C:\Users\KETEN_~1\AppData\Local\Temp\cck9qv27.s 			page 8


 373:Middlewares/Third_Party/SystemView/SEGGER/SEGGER_SYSVIEW.c ****       static char _UpBuffer  [SEGGER_SYSVIEW_RTT_BUFFER_SIZE] __attribute__ ((aligned (SEGGER_SYSVI
 374:Middlewares/Third_Party/SystemView/SEGGER/SEGGER_SYSVIEW.c ****       #if (SEGGER_SYSVIEW_POST_MORTEM_MODE != 1)
 375:Middlewares/Third_Party/SystemView/SEGGER/SEGGER_SYSVIEW.c ****         static char _DownBuffer[8] __attribute__ ((aligned (SEGGER_SYSVIEW_CPU_CACHE_LINE_SIZE))); 
 376:Middlewares/Third_Party/SystemView/SEGGER/SEGGER_SYSVIEW.c ****       #endif
 377:Middlewares/Third_Party/SystemView/SEGGER/SEGGER_SYSVIEW.c ****     #elif (defined(__ICCARM__))
 378:Middlewares/Third_Party/SystemView/SEGGER/SEGGER_SYSVIEW.c ****       #pragma data_alignment=SEGGER_RTT_CPU_CACHE_LINE_SIZE
 379:Middlewares/Third_Party/SystemView/SEGGER/SEGGER_SYSVIEW.c ****       static char _UpBuffer  [SEGGER_SYSVIEW_RTT_BUFFER_SIZE];
 380:Middlewares/Third_Party/SystemView/SEGGER/SEGGER_SYSVIEW.c ****       #if (SEGGER_SYSVIEW_POST_MORTEM_MODE != 1)
 381:Middlewares/Third_Party/SystemView/SEGGER/SEGGER_SYSVIEW.c ****         #pragma data_alignment=SEGGER_RTT_CPU_CACHE_LINE_SIZE
 382:Middlewares/Third_Party/SystemView/SEGGER/SEGGER_SYSVIEW.c ****         static char _DownBuffer[8];  // Small, fixed-size buffer, for back-channel comms
 383:Middlewares/Third_Party/SystemView/SEGGER/SEGGER_SYSVIEW.c ****       #endif
 384:Middlewares/Third_Party/SystemView/SEGGER/SEGGER_SYSVIEW.c ****     #else
 385:Middlewares/Third_Party/SystemView/SEGGER/SEGGER_SYSVIEW.c ****       #error "Don't know how to place _SEGGER_RTT, _acUpBuffer, _acDownBuffer cache-line aligned"
 386:Middlewares/Third_Party/SystemView/SEGGER/SEGGER_SYSVIEW.c ****     #endif
 387:Middlewares/Third_Party/SystemView/SEGGER/SEGGER_SYSVIEW.c ****   #else
 388:Middlewares/Third_Party/SystemView/SEGGER/SEGGER_SYSVIEW.c ****     static char _UpBuffer  [SEGGER_SYSVIEW_RTT_BUFFER_SIZE];
 389:Middlewares/Third_Party/SystemView/SEGGER/SEGGER_SYSVIEW.c ****     #if (SEGGER_SYSVIEW_POST_MORTEM_MODE != 1)
 390:Middlewares/Third_Party/SystemView/SEGGER/SEGGER_SYSVIEW.c ****       static char _DownBuffer[8];  // Small, fixed-size buffer, for back-channel comms
 391:Middlewares/Third_Party/SystemView/SEGGER/SEGGER_SYSVIEW.c ****     #endif
 392:Middlewares/Third_Party/SystemView/SEGGER/SEGGER_SYSVIEW.c ****   #endif
 393:Middlewares/Third_Party/SystemView/SEGGER/SEGGER_SYSVIEW.c **** #endif
 394:Middlewares/Third_Party/SystemView/SEGGER/SEGGER_SYSVIEW.c **** 
 395:Middlewares/Third_Party/SystemView/SEGGER/SEGGER_SYSVIEW.c **** static SEGGER_SYSVIEW_GLOBALS _SYSVIEW_Globals;
 396:Middlewares/Third_Party/SystemView/SEGGER/SEGGER_SYSVIEW.c **** 
 397:Middlewares/Third_Party/SystemView/SEGGER/SEGGER_SYSVIEW.c **** static SEGGER_SYSVIEW_MODULE* _pFirstModule;
 398:Middlewares/Third_Party/SystemView/SEGGER/SEGGER_SYSVIEW.c **** static U8                     _NumModules;
 399:Middlewares/Third_Party/SystemView/SEGGER/SEGGER_SYSVIEW.c **** 
 400:Middlewares/Third_Party/SystemView/SEGGER/SEGGER_SYSVIEW.c **** /*********************************************************************
 401:Middlewares/Third_Party/SystemView/SEGGER/SEGGER_SYSVIEW.c **** *
 402:Middlewares/Third_Party/SystemView/SEGGER/SEGGER_SYSVIEW.c **** *       Static code
 403:Middlewares/Third_Party/SystemView/SEGGER/SEGGER_SYSVIEW.c **** *
 404:Middlewares/Third_Party/SystemView/SEGGER/SEGGER_SYSVIEW.c **** **********************************************************************
 405:Middlewares/Third_Party/SystemView/SEGGER/SEGGER_SYSVIEW.c **** */
 406:Middlewares/Third_Party/SystemView/SEGGER/SEGGER_SYSVIEW.c **** 
 407:Middlewares/Third_Party/SystemView/SEGGER/SEGGER_SYSVIEW.c **** #define ENCODE_U32(pDest, Value) {                                                  \
 408:Middlewares/Third_Party/SystemView/SEGGER/SEGGER_SYSVIEW.c ****                                    U8* pSysviewPointer;                             \
 409:Middlewares/Third_Party/SystemView/SEGGER/SEGGER_SYSVIEW.c ****                                    U32 SysViewData;                                 \
 410:Middlewares/Third_Party/SystemView/SEGGER/SEGGER_SYSVIEW.c ****                                    pSysviewPointer = pDest;                         \
 411:Middlewares/Third_Party/SystemView/SEGGER/SEGGER_SYSVIEW.c ****                                    SysViewData = Value;                             \
 412:Middlewares/Third_Party/SystemView/SEGGER/SEGGER_SYSVIEW.c ****                                    while(SysViewData > 0x7F) {                      \
 413:Middlewares/Third_Party/SystemView/SEGGER/SEGGER_SYSVIEW.c ****                                      *pSysviewPointer++ = (U8)(SysViewData | 0x80); \
 414:Middlewares/Third_Party/SystemView/SEGGER/SEGGER_SYSVIEW.c ****                                      SysViewData >>= 7;                             \
 415:Middlewares/Third_Party/SystemView/SEGGER/SEGGER_SYSVIEW.c ****                                    };                                               \
 416:Middlewares/Third_Party/SystemView/SEGGER/SEGGER_SYSVIEW.c ****                                    *pSysviewPointer++ = (U8)SysViewData;            \
 417:Middlewares/Third_Party/SystemView/SEGGER/SEGGER_SYSVIEW.c ****                                    pDest = pSysviewPointer;                         \
 418:Middlewares/Third_Party/SystemView/SEGGER/SEGGER_SYSVIEW.c ****                                  };
 419:Middlewares/Third_Party/SystemView/SEGGER/SEGGER_SYSVIEW.c **** 
 420:Middlewares/Third_Party/SystemView/SEGGER/SEGGER_SYSVIEW.c **** 
 421:Middlewares/Third_Party/SystemView/SEGGER/SEGGER_SYSVIEW.c **** 
 422:Middlewares/Third_Party/SystemView/SEGGER/SEGGER_SYSVIEW.c **** #if (SEGGER_SYSVIEW_USE_STATIC_BUFFER == 1)
 423:Middlewares/Third_Party/SystemView/SEGGER/SEGGER_SYSVIEW.c **** static U8 _aPacket[SEGGER_SYSVIEW_MAX_PACKET_SIZE];
 424:Middlewares/Third_Party/SystemView/SEGGER/SEGGER_SYSVIEW.c **** 
 425:Middlewares/Third_Party/SystemView/SEGGER/SEGGER_SYSVIEW.c **** #define RECORD_START(PacketSize)  SEGGER_SYSVIEW_LOCK();                            \
 426:Middlewares/Third_Party/SystemView/SEGGER/SEGGER_SYSVIEW.c ****                                   pPayloadStart = _PreparePacket(_aPacket);
 427:Middlewares/Third_Party/SystemView/SEGGER/SEGGER_SYSVIEW.c **** 
 428:Middlewares/Third_Party/SystemView/SEGGER/SEGGER_SYSVIEW.c **** #define RECORD_END()              SEGGER_SYSVIEW_UNLOCK()
 429:Middlewares/Third_Party/SystemView/SEGGER/SEGGER_SYSVIEW.c **** 
ARM GAS  C:\Users\KETEN_~1\AppData\Local\Temp\cck9qv27.s 			page 9


 430:Middlewares/Third_Party/SystemView/SEGGER/SEGGER_SYSVIEW.c **** #else
 431:Middlewares/Third_Party/SystemView/SEGGER/SEGGER_SYSVIEW.c **** 
 432:Middlewares/Third_Party/SystemView/SEGGER/SEGGER_SYSVIEW.c **** #define RECORD_START(PacketSize)  U8 aPacket[(PacketSize)];                         \
 433:Middlewares/Third_Party/SystemView/SEGGER/SEGGER_SYSVIEW.c ****                                   pPayloadStart = _PreparePacket(aPacket);          \
 434:Middlewares/Third_Party/SystemView/SEGGER/SEGGER_SYSVIEW.c **** 
 435:Middlewares/Third_Party/SystemView/SEGGER/SEGGER_SYSVIEW.c **** #define RECORD_END()
 436:Middlewares/Third_Party/SystemView/SEGGER/SEGGER_SYSVIEW.c **** 
 437:Middlewares/Third_Party/SystemView/SEGGER/SEGGER_SYSVIEW.c **** #endif
 438:Middlewares/Third_Party/SystemView/SEGGER/SEGGER_SYSVIEW.c **** 
 439:Middlewares/Third_Party/SystemView/SEGGER/SEGGER_SYSVIEW.c **** /*********************************************************************
 440:Middlewares/Third_Party/SystemView/SEGGER/SEGGER_SYSVIEW.c **** *
 441:Middlewares/Third_Party/SystemView/SEGGER/SEGGER_SYSVIEW.c **** *       _EncodeData()
 442:Middlewares/Third_Party/SystemView/SEGGER/SEGGER_SYSVIEW.c **** *
 443:Middlewares/Third_Party/SystemView/SEGGER/SEGGER_SYSVIEW.c **** *  Function description
 444:Middlewares/Third_Party/SystemView/SEGGER/SEGGER_SYSVIEW.c **** *    Encode a byte buffer in variable-length format.
 445:Middlewares/Third_Party/SystemView/SEGGER/SEGGER_SYSVIEW.c **** *
 446:Middlewares/Third_Party/SystemView/SEGGER/SEGGER_SYSVIEW.c **** *  Parameters
 447:Middlewares/Third_Party/SystemView/SEGGER/SEGGER_SYSVIEW.c **** *    pPayload - Pointer to where string will be encoded.
 448:Middlewares/Third_Party/SystemView/SEGGER/SEGGER_SYSVIEW.c **** *    pSrc     - Pointer to data buffer to be encoded.
 449:Middlewares/Third_Party/SystemView/SEGGER/SEGGER_SYSVIEW.c **** *    NumBytes - Number of bytes in the buffer to be encoded.
 450:Middlewares/Third_Party/SystemView/SEGGER/SEGGER_SYSVIEW.c **** *
 451:Middlewares/Third_Party/SystemView/SEGGER/SEGGER_SYSVIEW.c **** *  Return value
 452:Middlewares/Third_Party/SystemView/SEGGER/SEGGER_SYSVIEW.c **** *    Pointer to the byte following the value, i.e. the first free
 453:Middlewares/Third_Party/SystemView/SEGGER/SEGGER_SYSVIEW.c **** *    byte in the payload and the next position to store payload
 454:Middlewares/Third_Party/SystemView/SEGGER/SEGGER_SYSVIEW.c **** *    content.
 455:Middlewares/Third_Party/SystemView/SEGGER/SEGGER_SYSVIEW.c **** *
 456:Middlewares/Third_Party/SystemView/SEGGER/SEGGER_SYSVIEW.c **** *  Additional information
 457:Middlewares/Third_Party/SystemView/SEGGER/SEGGER_SYSVIEW.c **** *    The data is encoded as a count byte followed by the contents
 458:Middlewares/Third_Party/SystemView/SEGGER/SEGGER_SYSVIEW.c **** *    of the data buffer.
 459:Middlewares/Third_Party/SystemView/SEGGER/SEGGER_SYSVIEW.c **** *    Make sure NumBytes + 1 bytes are free for the payload.
 460:Middlewares/Third_Party/SystemView/SEGGER/SEGGER_SYSVIEW.c **** */
 461:Middlewares/Third_Party/SystemView/SEGGER/SEGGER_SYSVIEW.c **** static U8* _EncodeData(U8* pPayload, const char* pSrc, unsigned int NumBytes) {
  29              		.loc 1 461 79 view -0
  30              		.cfi_startproc
  31              		@ args = 0, pretend = 0, frame = 0
  32              		@ frame_needed = 0, uses_anonymous_args = 0
  33              		@ link register save eliminated.
 462:Middlewares/Third_Party/SystemView/SEGGER/SEGGER_SYSVIEW.c ****   unsigned int n;
  34              		.loc 1 462 3 view .LVU1
 463:Middlewares/Third_Party/SystemView/SEGGER/SEGGER_SYSVIEW.c ****   //
 464:Middlewares/Third_Party/SystemView/SEGGER/SEGGER_SYSVIEW.c ****   n = 0;
  35              		.loc 1 464 3 view .LVU2
 465:Middlewares/Third_Party/SystemView/SEGGER/SEGGER_SYSVIEW.c ****   *pPayload++ = NumBytes;
  36              		.loc 1 465 3 view .LVU3
  37              		.loc 1 465 15 is_stmt 0 view .LVU4
  38 0000 00F8012B 		strb	r2, [r0], #1
  39              	.LVL1:
 466:Middlewares/Third_Party/SystemView/SEGGER/SEGGER_SYSVIEW.c ****   while (n < NumBytes) {
  40              		.loc 1 466 3 is_stmt 1 view .LVU5
 464:Middlewares/Third_Party/SystemView/SEGGER/SEGGER_SYSVIEW.c ****   *pPayload++ = NumBytes;
  41              		.loc 1 464 5 is_stmt 0 view .LVU6
  42 0004 0023     		movs	r3, #0
  43              		.loc 1 466 9 view .LVU7
  44 0006 04E0     		b	.L2
  45              	.LVL2:
  46              	.L3:
 467:Middlewares/Third_Party/SystemView/SEGGER/SEGGER_SYSVIEW.c ****     *pPayload++ = *pSrc++;
ARM GAS  C:\Users\KETEN_~1\AppData\Local\Temp\cck9qv27.s 			page 10


  47              		.loc 1 467 5 is_stmt 1 view .LVU8
  48              		.loc 1 467 19 is_stmt 0 view .LVU9
  49 0008 11F801CB 		ldrb	ip, [r1], #1	@ zero_extendqisi2
  50              	.LVL3:
  51              		.loc 1 467 17 view .LVU10
  52 000c 00F801CB 		strb	ip, [r0], #1
  53              	.LVL4:
 468:Middlewares/Third_Party/SystemView/SEGGER/SEGGER_SYSVIEW.c ****     n++;
  54              		.loc 1 468 5 is_stmt 1 view .LVU11
  55              		.loc 1 468 6 is_stmt 0 view .LVU12
  56 0010 0133     		adds	r3, r3, #1
  57              	.LVL5:
  58              	.L2:
 466:Middlewares/Third_Party/SystemView/SEGGER/SEGGER_SYSVIEW.c ****     *pPayload++ = *pSrc++;
  59              		.loc 1 466 12 is_stmt 1 view .LVU13
  60 0012 9342     		cmp	r3, r2
  61 0014 F8D3     		bcc	.L3
 469:Middlewares/Third_Party/SystemView/SEGGER/SEGGER_SYSVIEW.c ****   }
 470:Middlewares/Third_Party/SystemView/SEGGER/SEGGER_SYSVIEW.c ****   return pPayload;
  62              		.loc 1 470 3 view .LVU14
 471:Middlewares/Third_Party/SystemView/SEGGER/SEGGER_SYSVIEW.c **** }
  63              		.loc 1 471 1 is_stmt 0 view .LVU15
  64 0016 7047     		bx	lr
  65              		.cfi_endproc
  66              	.LFE0:
  68              		.section	.text._EncodeStr,"ax",%progbits
  69              		.align	1
  70              		.syntax unified
  71              		.thumb
  72              		.thumb_func
  74              	_EncodeStr:
  75              	.LVL6:
  76              	.LFB1:
 472:Middlewares/Third_Party/SystemView/SEGGER/SEGGER_SYSVIEW.c **** 
 473:Middlewares/Third_Party/SystemView/SEGGER/SEGGER_SYSVIEW.c **** /*********************************************************************
 474:Middlewares/Third_Party/SystemView/SEGGER/SEGGER_SYSVIEW.c **** *
 475:Middlewares/Third_Party/SystemView/SEGGER/SEGGER_SYSVIEW.c **** *       _EncodeStr()
 476:Middlewares/Third_Party/SystemView/SEGGER/SEGGER_SYSVIEW.c **** *
 477:Middlewares/Third_Party/SystemView/SEGGER/SEGGER_SYSVIEW.c **** *  Function description
 478:Middlewares/Third_Party/SystemView/SEGGER/SEGGER_SYSVIEW.c **** *    Encode a string in variable-length format.
 479:Middlewares/Third_Party/SystemView/SEGGER/SEGGER_SYSVIEW.c **** *
 480:Middlewares/Third_Party/SystemView/SEGGER/SEGGER_SYSVIEW.c **** *  Parameters
 481:Middlewares/Third_Party/SystemView/SEGGER/SEGGER_SYSVIEW.c **** *    pPayload - Pointer to where string will be encoded.
 482:Middlewares/Third_Party/SystemView/SEGGER/SEGGER_SYSVIEW.c **** *    pText    - String to encode.
 483:Middlewares/Third_Party/SystemView/SEGGER/SEGGER_SYSVIEW.c **** *    Limit    - Maximum number of characters to encode from string.
 484:Middlewares/Third_Party/SystemView/SEGGER/SEGGER_SYSVIEW.c **** *
 485:Middlewares/Third_Party/SystemView/SEGGER/SEGGER_SYSVIEW.c **** *  Return value
 486:Middlewares/Third_Party/SystemView/SEGGER/SEGGER_SYSVIEW.c **** *    Pointer to the byte following the value, i.e. the first free
 487:Middlewares/Third_Party/SystemView/SEGGER/SEGGER_SYSVIEW.c **** *    byte in the payload and the next position to store payload
 488:Middlewares/Third_Party/SystemView/SEGGER/SEGGER_SYSVIEW.c **** *    content.
 489:Middlewares/Third_Party/SystemView/SEGGER/SEGGER_SYSVIEW.c **** *
 490:Middlewares/Third_Party/SystemView/SEGGER/SEGGER_SYSVIEW.c **** *  Additional information
 491:Middlewares/Third_Party/SystemView/SEGGER/SEGGER_SYSVIEW.c **** *    The string is encoded as a count byte followed by the contents
 492:Middlewares/Third_Party/SystemView/SEGGER/SEGGER_SYSVIEW.c **** *    of the string.
 493:Middlewares/Third_Party/SystemView/SEGGER/SEGGER_SYSVIEW.c **** *    No more than 1 + Limit bytes will be encoded to the payload.
 494:Middlewares/Third_Party/SystemView/SEGGER/SEGGER_SYSVIEW.c **** */
 495:Middlewares/Third_Party/SystemView/SEGGER/SEGGER_SYSVIEW.c **** static U8 *_EncodeStr(U8 *pPayload, const char *pText, unsigned int Limit) {
ARM GAS  C:\Users\KETEN_~1\AppData\Local\Temp\cck9qv27.s 			page 11


  77              		.loc 1 495 76 is_stmt 1 view -0
  78              		.cfi_startproc
  79              		@ args = 0, pretend = 0, frame = 0
  80              		@ frame_needed = 0, uses_anonymous_args = 0
  81              		@ link register save eliminated.
  82              		.loc 1 495 76 is_stmt 0 view .LVU17
  83 0000 8446     		mov	ip, r0
 496:Middlewares/Third_Party/SystemView/SEGGER/SEGGER_SYSVIEW.c ****   unsigned int n;
  84              		.loc 1 496 3 is_stmt 1 view .LVU18
 497:Middlewares/Third_Party/SystemView/SEGGER/SEGGER_SYSVIEW.c ****   unsigned int Len;
  85              		.loc 1 497 3 view .LVU19
 498:Middlewares/Third_Party/SystemView/SEGGER/SEGGER_SYSVIEW.c ****   //
 499:Middlewares/Third_Party/SystemView/SEGGER/SEGGER_SYSVIEW.c ****   // Compute string len
 500:Middlewares/Third_Party/SystemView/SEGGER/SEGGER_SYSVIEW.c ****   //
 501:Middlewares/Third_Party/SystemView/SEGGER/SEGGER_SYSVIEW.c ****   Len = 0;
  86              		.loc 1 501 3 view .LVU20
  87              	.LVL7:
 502:Middlewares/Third_Party/SystemView/SEGGER/SEGGER_SYSVIEW.c ****   if (pText != NULL) {
  88              		.loc 1 502 3 view .LVU21
  89              		.loc 1 502 6 is_stmt 0 view .LVU22
  90 0002 0B46     		mov	r3, r1
  91 0004 29B3     		cbz	r1, .L21
 495:Middlewares/Third_Party/SystemView/SEGGER/SEGGER_SYSVIEW.c ****   unsigned int n;
  92              		.loc 1 495 76 view .LVU23
  93 0006 10B4     		push	{r4}
  94              	.LCFI0:
  95              		.cfi_def_cfa_offset 4
  96              		.cfi_offset 4, -4
 501:Middlewares/Third_Party/SystemView/SEGGER/SEGGER_SYSVIEW.c ****   if (pText != NULL) {
  97              		.loc 1 501 7 view .LVU24
  98 0008 0021     		movs	r1, #0
  99              	.LVL8:
 501:Middlewares/Third_Party/SystemView/SEGGER/SEGGER_SYSVIEW.c ****   if (pText != NULL) {
 100              		.loc 1 501 7 view .LVU25
 101 000a 00E0     		b	.L5
 102              	.LVL9:
 103              	.L7:
 503:Middlewares/Third_Party/SystemView/SEGGER/SEGGER_SYSVIEW.c ****     while(*(pText + Len) != 0) {
 504:Middlewares/Third_Party/SystemView/SEGGER/SEGGER_SYSVIEW.c ****       Len++;
 104              		.loc 1 504 7 is_stmt 1 view .LVU26
 105              		.loc 1 504 10 is_stmt 0 view .LVU27
 106 000c 0131     		adds	r1, r1, #1
 107              	.LVL10:
 108              	.L5:
 503:Middlewares/Third_Party/SystemView/SEGGER/SEGGER_SYSVIEW.c ****     while(*(pText + Len) != 0) {
 109              		.loc 1 503 26 is_stmt 1 view .LVU28
 503:Middlewares/Third_Party/SystemView/SEGGER/SEGGER_SYSVIEW.c ****     while(*(pText + Len) != 0) {
 110              		.loc 1 503 11 is_stmt 0 view .LVU29
 111 000e 5C5C     		ldrb	r4, [r3, r1]	@ zero_extendqisi2
 503:Middlewares/Third_Party/SystemView/SEGGER/SEGGER_SYSVIEW.c ****     while(*(pText + Len) != 0) {
 112              		.loc 1 503 26 view .LVU30
 113 0010 002C     		cmp	r4, #0
 114 0012 FBD1     		bne	.L7
 505:Middlewares/Third_Party/SystemView/SEGGER/SEGGER_SYSVIEW.c ****     }
 506:Middlewares/Third_Party/SystemView/SEGGER/SEGGER_SYSVIEW.c ****     if (Len > Limit) {
 115              		.loc 1 506 5 is_stmt 1 view .LVU31
 116              		.loc 1 506 8 is_stmt 0 view .LVU32
ARM GAS  C:\Users\KETEN_~1\AppData\Local\Temp\cck9qv27.s 			page 12


 117 0014 9142     		cmp	r1, r2
 118 0016 00D8     		bhi	.L8
 119 0018 0A46     		mov	r2, r1
 120              	.LVL11:
 121              	.L8:
 507:Middlewares/Third_Party/SystemView/SEGGER/SEGGER_SYSVIEW.c ****       Len = Limit;
 508:Middlewares/Third_Party/SystemView/SEGGER/SEGGER_SYSVIEW.c ****     }
 509:Middlewares/Third_Party/SystemView/SEGGER/SEGGER_SYSVIEW.c ****   }
 510:Middlewares/Third_Party/SystemView/SEGGER/SEGGER_SYSVIEW.c ****   //
 511:Middlewares/Third_Party/SystemView/SEGGER/SEGGER_SYSVIEW.c ****   // Write Len
 512:Middlewares/Third_Party/SystemView/SEGGER/SEGGER_SYSVIEW.c ****   //
 513:Middlewares/Third_Party/SystemView/SEGGER/SEGGER_SYSVIEW.c ****   if (Len < 255)  {
 122              		.loc 1 513 3 is_stmt 1 view .LVU33
 123              		.loc 1 513 6 is_stmt 0 view .LVU34
 124 001a FE2A     		cmp	r2, #254
 125 001c 04D8     		bhi	.L9
 126              	.LVL12:
 514:Middlewares/Third_Party/SystemView/SEGGER/SEGGER_SYSVIEW.c ****     *pPayload++ = Len; 
 127              		.loc 1 514 5 is_stmt 1 view .LVU35
 128              		.loc 1 514 14 is_stmt 0 view .LVU36
 129 001e 6046     		mov	r0, ip
 130              	.LVL13:
 131              		.loc 1 514 17 view .LVU37
 132 0020 00F8012B 		strb	r2, [r0], #1
 133              	.LVL14:
 134              	.L10:
 515:Middlewares/Third_Party/SystemView/SEGGER/SEGGER_SYSVIEW.c ****   } else {
 516:Middlewares/Third_Party/SystemView/SEGGER/SEGGER_SYSVIEW.c ****     *pPayload++ = 255;
 517:Middlewares/Third_Party/SystemView/SEGGER/SEGGER_SYSVIEW.c ****     *pPayload++ = (Len & 255);
 518:Middlewares/Third_Party/SystemView/SEGGER/SEGGER_SYSVIEW.c ****     *pPayload++ = ((Len >> 8) & 255);
 519:Middlewares/Third_Party/SystemView/SEGGER/SEGGER_SYSVIEW.c ****   }
 520:Middlewares/Third_Party/SystemView/SEGGER/SEGGER_SYSVIEW.c ****   //
 521:Middlewares/Third_Party/SystemView/SEGGER/SEGGER_SYSVIEW.c ****   // copy string
 522:Middlewares/Third_Party/SystemView/SEGGER/SEGGER_SYSVIEW.c ****   //
 523:Middlewares/Third_Party/SystemView/SEGGER/SEGGER_SYSVIEW.c ****   n = 0;
 135              		.loc 1 523 3 is_stmt 1 view .LVU38
 524:Middlewares/Third_Party/SystemView/SEGGER/SEGGER_SYSVIEW.c ****   while (n < Len) {
 136              		.loc 1 524 3 view .LVU39
 523:Middlewares/Third_Party/SystemView/SEGGER/SEGGER_SYSVIEW.c ****   while (n < Len) {
 137              		.loc 1 523 5 is_stmt 0 view .LVU40
 138 0024 0021     		movs	r1, #0
 139              		.loc 1 524 9 view .LVU41
 140 0026 0FE0     		b	.L11
 141              	.LVL15:
 142              	.L9:
 516:Middlewares/Third_Party/SystemView/SEGGER/SEGGER_SYSVIEW.c ****     *pPayload++ = (Len & 255);
 143              		.loc 1 516 5 is_stmt 1 view .LVU42
 516:Middlewares/Third_Party/SystemView/SEGGER/SEGGER_SYSVIEW.c ****     *pPayload++ = (Len & 255);
 144              		.loc 1 516 17 is_stmt 0 view .LVU43
 145 0028 FF21     		movs	r1, #255
 146 002a 8CF80010 		strb	r1, [ip]
 517:Middlewares/Third_Party/SystemView/SEGGER/SEGGER_SYSVIEW.c ****     *pPayload++ = ((Len >> 8) & 255);
 147              		.loc 1 517 5 is_stmt 1 view .LVU44
 148              	.LVL16:
 517:Middlewares/Third_Party/SystemView/SEGGER/SEGGER_SYSVIEW.c ****     *pPayload++ = ((Len >> 8) & 255);
 149              		.loc 1 517 17 is_stmt 0 view .LVU45
 150 002e 8CF80120 		strb	r2, [ip, #1]
ARM GAS  C:\Users\KETEN_~1\AppData\Local\Temp\cck9qv27.s 			page 13


 518:Middlewares/Third_Party/SystemView/SEGGER/SEGGER_SYSVIEW.c ****   }
 151              		.loc 1 518 5 is_stmt 1 view .LVU46
 518:Middlewares/Third_Party/SystemView/SEGGER/SEGGER_SYSVIEW.c ****   }
 152              		.loc 1 518 25 is_stmt 0 view .LVU47
 153 0032 110A     		lsrs	r1, r2, #8
 518:Middlewares/Third_Party/SystemView/SEGGER/SEGGER_SYSVIEW.c ****   }
 154              		.loc 1 518 14 view .LVU48
 155 0034 0CF10300 		add	r0, ip, #3
 156              	.LVL17:
 518:Middlewares/Third_Party/SystemView/SEGGER/SEGGER_SYSVIEW.c ****   }
 157              		.loc 1 518 17 view .LVU49
 158 0038 8CF80210 		strb	r1, [ip, #2]
 159 003c F2E7     		b	.L10
 160              	.LVL18:
 161              	.L12:
 525:Middlewares/Third_Party/SystemView/SEGGER/SEGGER_SYSVIEW.c ****     *pPayload++ = *pText++;
 162              		.loc 1 525 5 is_stmt 1 view .LVU50
 163              		.loc 1 525 19 is_stmt 0 view .LVU51
 164 003e 13F801CB 		ldrb	ip, [r3], #1	@ zero_extendqisi2
 165              	.LVL19:
 166              		.loc 1 525 17 view .LVU52
 167 0042 00F801CB 		strb	ip, [r0], #1
 168              	.LVL20:
 526:Middlewares/Third_Party/SystemView/SEGGER/SEGGER_SYSVIEW.c ****     n++;
 169              		.loc 1 526 5 is_stmt 1 view .LVU53
 170              		.loc 1 526 6 is_stmt 0 view .LVU54
 171 0046 0131     		adds	r1, r1, #1
 172              	.LVL21:
 173              	.L11:
 524:Middlewares/Third_Party/SystemView/SEGGER/SEGGER_SYSVIEW.c ****     *pPayload++ = *pText++;
 174              		.loc 1 524 12 is_stmt 1 view .LVU55
 175 0048 9142     		cmp	r1, r2
 176 004a F8D3     		bcc	.L12
 527:Middlewares/Third_Party/SystemView/SEGGER/SEGGER_SYSVIEW.c ****   }
 528:Middlewares/Third_Party/SystemView/SEGGER/SEGGER_SYSVIEW.c ****   return pPayload;
 177              		.loc 1 528 3 view .LVU56
 529:Middlewares/Third_Party/SystemView/SEGGER/SEGGER_SYSVIEW.c **** }
 178              		.loc 1 529 1 is_stmt 0 view .LVU57
 179 004c 5DF8044B 		ldr	r4, [sp], #4
 180              	.LCFI1:
 181              		.cfi_restore 4
 182              		.cfi_def_cfa_offset 0
 183 0050 7047     		bx	lr
 184              	.LVL22:
 185              	.L21:
 501:Middlewares/Third_Party/SystemView/SEGGER/SEGGER_SYSVIEW.c ****   if (pText != NULL) {
 186              		.loc 1 501 7 view .LVU58
 187 0052 0022     		movs	r2, #0
 188              	.LVL23:
 514:Middlewares/Third_Party/SystemView/SEGGER/SEGGER_SYSVIEW.c ****   } else {
 189              		.loc 1 514 5 is_stmt 1 view .LVU59
 514:Middlewares/Third_Party/SystemView/SEGGER/SEGGER_SYSVIEW.c ****   } else {
 190              		.loc 1 514 17 is_stmt 0 view .LVU60
 191 0054 00F8012B 		strb	r2, [r0], #1
 192              	.LVL24:
 523:Middlewares/Third_Party/SystemView/SEGGER/SEGGER_SYSVIEW.c ****   while (n < Len) {
 193              		.loc 1 523 3 is_stmt 1 view .LVU61
ARM GAS  C:\Users\KETEN_~1\AppData\Local\Temp\cck9qv27.s 			page 14


 524:Middlewares/Third_Party/SystemView/SEGGER/SEGGER_SYSVIEW.c ****     *pPayload++ = *pText++;
 194              		.loc 1 524 3 view .LVU62
 523:Middlewares/Third_Party/SystemView/SEGGER/SEGGER_SYSVIEW.c ****   while (n < Len) {
 195              		.loc 1 523 5 is_stmt 0 view .LVU63
 196 0058 0021     		movs	r1, #0
 197              	.LVL25:
 523:Middlewares/Third_Party/SystemView/SEGGER/SEGGER_SYSVIEW.c ****   while (n < Len) {
 198              		.loc 1 523 5 view .LVU64
 199 005a 04E0     		b	.L16
 200              	.LVL26:
 201              	.L17:
 525:Middlewares/Third_Party/SystemView/SEGGER/SEGGER_SYSVIEW.c ****     n++;
 202              		.loc 1 525 5 is_stmt 1 view .LVU65
 525:Middlewares/Third_Party/SystemView/SEGGER/SEGGER_SYSVIEW.c ****     n++;
 203              		.loc 1 525 19 is_stmt 0 view .LVU66
 204 005c 13F801CB 		ldrb	ip, [r3], #1	@ zero_extendqisi2
 205              	.LVL27:
 525:Middlewares/Third_Party/SystemView/SEGGER/SEGGER_SYSVIEW.c ****     n++;
 206              		.loc 1 525 17 view .LVU67
 207 0060 00F801CB 		strb	ip, [r0], #1
 208              	.LVL28:
 526:Middlewares/Third_Party/SystemView/SEGGER/SEGGER_SYSVIEW.c ****   }
 209              		.loc 1 526 5 is_stmt 1 view .LVU68
 526:Middlewares/Third_Party/SystemView/SEGGER/SEGGER_SYSVIEW.c ****   }
 210              		.loc 1 526 6 is_stmt 0 view .LVU69
 211 0064 0131     		adds	r1, r1, #1
 212              	.LVL29:
 213              	.L16:
 524:Middlewares/Third_Party/SystemView/SEGGER/SEGGER_SYSVIEW.c ****     *pPayload++ = *pText++;
 214              		.loc 1 524 12 is_stmt 1 view .LVU70
 215 0066 9142     		cmp	r1, r2
 216 0068 F8D3     		bcc	.L17
 524:Middlewares/Third_Party/SystemView/SEGGER/SEGGER_SYSVIEW.c ****     *pPayload++ = *pText++;
 217              		.loc 1 524 12 is_stmt 0 view .LVU71
 218 006a 7047     		bx	lr
 219              		.cfi_endproc
 220              	.LFE1:
 222              		.section	.text._PreparePacket,"ax",%progbits
 223              		.align	1
 224              		.syntax unified
 225              		.thumb
 226              		.thumb_func
 228              	_PreparePacket:
 229              	.LVL30:
 230              	.LFB2:
 530:Middlewares/Third_Party/SystemView/SEGGER/SEGGER_SYSVIEW.c **** 
 531:Middlewares/Third_Party/SystemView/SEGGER/SEGGER_SYSVIEW.c **** /*********************************************************************
 532:Middlewares/Third_Party/SystemView/SEGGER/SEGGER_SYSVIEW.c **** *
 533:Middlewares/Third_Party/SystemView/SEGGER/SEGGER_SYSVIEW.c **** *       _PreparePacket()
 534:Middlewares/Third_Party/SystemView/SEGGER/SEGGER_SYSVIEW.c **** *
 535:Middlewares/Third_Party/SystemView/SEGGER/SEGGER_SYSVIEW.c **** *  Function description
 536:Middlewares/Third_Party/SystemView/SEGGER/SEGGER_SYSVIEW.c **** *    Prepare a SystemView event packet header.
 537:Middlewares/Third_Party/SystemView/SEGGER/SEGGER_SYSVIEW.c **** *
 538:Middlewares/Third_Party/SystemView/SEGGER/SEGGER_SYSVIEW.c **** *  Parameters
 539:Middlewares/Third_Party/SystemView/SEGGER/SEGGER_SYSVIEW.c **** *    pPacket - Pointer to start of packet to initialize.
 540:Middlewares/Third_Party/SystemView/SEGGER/SEGGER_SYSVIEW.c **** *
 541:Middlewares/Third_Party/SystemView/SEGGER/SEGGER_SYSVIEW.c **** *  Return value
ARM GAS  C:\Users\KETEN_~1\AppData\Local\Temp\cck9qv27.s 			page 15


 542:Middlewares/Third_Party/SystemView/SEGGER/SEGGER_SYSVIEW.c **** *    Pointer to first byte of packet payload.
 543:Middlewares/Third_Party/SystemView/SEGGER/SEGGER_SYSVIEW.c **** *
 544:Middlewares/Third_Party/SystemView/SEGGER/SEGGER_SYSVIEW.c **** *  Additional information
 545:Middlewares/Third_Party/SystemView/SEGGER/SEGGER_SYSVIEW.c **** *    The payload length and evnetId are not initialized.
 546:Middlewares/Third_Party/SystemView/SEGGER/SEGGER_SYSVIEW.c **** *    PreparePacket only reserves space for them and they are
 547:Middlewares/Third_Party/SystemView/SEGGER/SEGGER_SYSVIEW.c **** *    computed and filled in by the sending function.
 548:Middlewares/Third_Party/SystemView/SEGGER/SEGGER_SYSVIEW.c **** */
 549:Middlewares/Third_Party/SystemView/SEGGER/SEGGER_SYSVIEW.c **** static U8* _PreparePacket(U8* pPacket) {
 231              		.loc 1 549 40 is_stmt 1 view -0
 232              		.cfi_startproc
 233              		@ args = 0, pretend = 0, frame = 0
 234              		@ frame_needed = 0, uses_anonymous_args = 0
 235              		@ link register save eliminated.
 550:Middlewares/Third_Party/SystemView/SEGGER/SEGGER_SYSVIEW.c ****   return pPacket + 4;
 236              		.loc 1 550 3 view .LVU73
 551:Middlewares/Third_Party/SystemView/SEGGER/SEGGER_SYSVIEW.c **** }
 237              		.loc 1 551 1 is_stmt 0 view .LVU74
 238 0000 0430     		adds	r0, r0, #4
 239              	.LVL31:
 240              		.loc 1 551 1 view .LVU75
 241 0002 7047     		bx	lr
 242              		.cfi_endproc
 243              	.LFE2:
 245              		.section	.text._TrySendOverflowPacket,"ax",%progbits
 246              		.align	1
 247              		.syntax unified
 248              		.thumb
 249              		.thumb_func
 251              	_TrySendOverflowPacket:
 252              	.LFB4:
 552:Middlewares/Third_Party/SystemView/SEGGER/SEGGER_SYSVIEW.c **** 
 553:Middlewares/Third_Party/SystemView/SEGGER/SEGGER_SYSVIEW.c **** /*********************************************************************
 554:Middlewares/Third_Party/SystemView/SEGGER/SEGGER_SYSVIEW.c **** *
 555:Middlewares/Third_Party/SystemView/SEGGER/SEGGER_SYSVIEW.c **** *       _HandleIncomingPacket()
 556:Middlewares/Third_Party/SystemView/SEGGER/SEGGER_SYSVIEW.c **** *
 557:Middlewares/Third_Party/SystemView/SEGGER/SEGGER_SYSVIEW.c **** *  Function description
 558:Middlewares/Third_Party/SystemView/SEGGER/SEGGER_SYSVIEW.c **** *    Read an incoming command from the down channel and process it.
 559:Middlewares/Third_Party/SystemView/SEGGER/SEGGER_SYSVIEW.c **** *
 560:Middlewares/Third_Party/SystemView/SEGGER/SEGGER_SYSVIEW.c **** *  Additional information
 561:Middlewares/Third_Party/SystemView/SEGGER/SEGGER_SYSVIEW.c **** *    This function is called each time after sending a packet.
 562:Middlewares/Third_Party/SystemView/SEGGER/SEGGER_SYSVIEW.c **** *    Processing incoming packets is done asynchronous. SystemView might
 563:Middlewares/Third_Party/SystemView/SEGGER/SEGGER_SYSVIEW.c **** *    already have sent event packets after the host has sent a command.
 564:Middlewares/Third_Party/SystemView/SEGGER/SEGGER_SYSVIEW.c **** */
 565:Middlewares/Third_Party/SystemView/SEGGER/SEGGER_SYSVIEW.c **** #if (SEGGER_SYSVIEW_POST_MORTEM_MODE != 1)
 566:Middlewares/Third_Party/SystemView/SEGGER/SEGGER_SYSVIEW.c **** static void _HandleIncomingPacket(void) {
 567:Middlewares/Third_Party/SystemView/SEGGER/SEGGER_SYSVIEW.c ****   U8  Cmd;
 568:Middlewares/Third_Party/SystemView/SEGGER/SEGGER_SYSVIEW.c ****   int Status;
 569:Middlewares/Third_Party/SystemView/SEGGER/SEGGER_SYSVIEW.c ****   //
 570:Middlewares/Third_Party/SystemView/SEGGER/SEGGER_SYSVIEW.c ****   Status = SEGGER_RTT_ReadNoLock(CHANNEL_ID_DOWN, &Cmd, 1);
 571:Middlewares/Third_Party/SystemView/SEGGER/SEGGER_SYSVIEW.c ****   if (Status > 0) {
 572:Middlewares/Third_Party/SystemView/SEGGER/SEGGER_SYSVIEW.c ****     switch (Cmd) {
 573:Middlewares/Third_Party/SystemView/SEGGER/SEGGER_SYSVIEW.c ****     case SEGGER_SYSVIEW_COMMAND_ID_START:
 574:Middlewares/Third_Party/SystemView/SEGGER/SEGGER_SYSVIEW.c ****       SEGGER_SYSVIEW_Start();
 575:Middlewares/Third_Party/SystemView/SEGGER/SEGGER_SYSVIEW.c ****       break;
 576:Middlewares/Third_Party/SystemView/SEGGER/SEGGER_SYSVIEW.c ****     case SEGGER_SYSVIEW_COMMAND_ID_STOP:
 577:Middlewares/Third_Party/SystemView/SEGGER/SEGGER_SYSVIEW.c ****       SEGGER_SYSVIEW_Stop();
 578:Middlewares/Third_Party/SystemView/SEGGER/SEGGER_SYSVIEW.c ****       break;
ARM GAS  C:\Users\KETEN_~1\AppData\Local\Temp\cck9qv27.s 			page 16


 579:Middlewares/Third_Party/SystemView/SEGGER/SEGGER_SYSVIEW.c ****     case SEGGER_SYSVIEW_COMMAND_ID_GET_SYSTIME:
 580:Middlewares/Third_Party/SystemView/SEGGER/SEGGER_SYSVIEW.c ****       SEGGER_SYSVIEW_RecordSystime();
 581:Middlewares/Third_Party/SystemView/SEGGER/SEGGER_SYSVIEW.c ****       break;
 582:Middlewares/Third_Party/SystemView/SEGGER/SEGGER_SYSVIEW.c ****     case SEGGER_SYSVIEW_COMMAND_ID_GET_TASKLIST:
 583:Middlewares/Third_Party/SystemView/SEGGER/SEGGER_SYSVIEW.c ****       SEGGER_SYSVIEW_SendTaskList();
 584:Middlewares/Third_Party/SystemView/SEGGER/SEGGER_SYSVIEW.c ****       break;
 585:Middlewares/Third_Party/SystemView/SEGGER/SEGGER_SYSVIEW.c ****     case SEGGER_SYSVIEW_COMMAND_ID_GET_SYSDESC:
 586:Middlewares/Third_Party/SystemView/SEGGER/SEGGER_SYSVIEW.c ****       SEGGER_SYSVIEW_GetSysDesc();
 587:Middlewares/Third_Party/SystemView/SEGGER/SEGGER_SYSVIEW.c ****       break;
 588:Middlewares/Third_Party/SystemView/SEGGER/SEGGER_SYSVIEW.c ****     case SEGGER_SYSVIEW_COMMAND_ID_GET_NUMMODULES:
 589:Middlewares/Third_Party/SystemView/SEGGER/SEGGER_SYSVIEW.c ****       SEGGER_SYSVIEW_SendNumModules();
 590:Middlewares/Third_Party/SystemView/SEGGER/SEGGER_SYSVIEW.c ****       break;
 591:Middlewares/Third_Party/SystemView/SEGGER/SEGGER_SYSVIEW.c ****     case SEGGER_SYSVIEW_COMMAND_ID_GET_MODULEDESC:
 592:Middlewares/Third_Party/SystemView/SEGGER/SEGGER_SYSVIEW.c ****       SEGGER_SYSVIEW_SendModuleDescription();
 593:Middlewares/Third_Party/SystemView/SEGGER/SEGGER_SYSVIEW.c ****       break;
 594:Middlewares/Third_Party/SystemView/SEGGER/SEGGER_SYSVIEW.c ****     case SEGGER_SYSVIEW_COMMAND_ID_GET_MODULE:
 595:Middlewares/Third_Party/SystemView/SEGGER/SEGGER_SYSVIEW.c ****       Status = SEGGER_RTT_ReadNoLock(CHANNEL_ID_DOWN, &Cmd, 1);
 596:Middlewares/Third_Party/SystemView/SEGGER/SEGGER_SYSVIEW.c ****       if (Status > 0) {
 597:Middlewares/Third_Party/SystemView/SEGGER/SEGGER_SYSVIEW.c ****         SEGGER_SYSVIEW_SendModule(Cmd);
 598:Middlewares/Third_Party/SystemView/SEGGER/SEGGER_SYSVIEW.c ****       }
 599:Middlewares/Third_Party/SystemView/SEGGER/SEGGER_SYSVIEW.c ****       break;
 600:Middlewares/Third_Party/SystemView/SEGGER/SEGGER_SYSVIEW.c ****     case SEGGER_SYSVIEW_COMMAND_ID_HEARTBEAT:
 601:Middlewares/Third_Party/SystemView/SEGGER/SEGGER_SYSVIEW.c ****       break;
 602:Middlewares/Third_Party/SystemView/SEGGER/SEGGER_SYSVIEW.c ****     default:
 603:Middlewares/Third_Party/SystemView/SEGGER/SEGGER_SYSVIEW.c ****       if (Cmd >= 128) { // Unknown extended command. Dummy read its parameter.
 604:Middlewares/Third_Party/SystemView/SEGGER/SEGGER_SYSVIEW.c ****         SEGGER_RTT_ReadNoLock(CHANNEL_ID_DOWN, &Cmd, 1);
 605:Middlewares/Third_Party/SystemView/SEGGER/SEGGER_SYSVIEW.c ****       }
 606:Middlewares/Third_Party/SystemView/SEGGER/SEGGER_SYSVIEW.c ****       break;
 607:Middlewares/Third_Party/SystemView/SEGGER/SEGGER_SYSVIEW.c ****     }
 608:Middlewares/Third_Party/SystemView/SEGGER/SEGGER_SYSVIEW.c ****   }
 609:Middlewares/Third_Party/SystemView/SEGGER/SEGGER_SYSVIEW.c **** }
 610:Middlewares/Third_Party/SystemView/SEGGER/SEGGER_SYSVIEW.c **** #endif // (SEGGER_SYSVIEW_POST_MORTEM_MODE != 1)
 611:Middlewares/Third_Party/SystemView/SEGGER/SEGGER_SYSVIEW.c **** 
 612:Middlewares/Third_Party/SystemView/SEGGER/SEGGER_SYSVIEW.c **** /*********************************************************************
 613:Middlewares/Third_Party/SystemView/SEGGER/SEGGER_SYSVIEW.c **** *
 614:Middlewares/Third_Party/SystemView/SEGGER/SEGGER_SYSVIEW.c **** *       _TrySendOverflowPacket()
 615:Middlewares/Third_Party/SystemView/SEGGER/SEGGER_SYSVIEW.c **** *
 616:Middlewares/Third_Party/SystemView/SEGGER/SEGGER_SYSVIEW.c **** *  Function description
 617:Middlewares/Third_Party/SystemView/SEGGER/SEGGER_SYSVIEW.c **** *    Try to transmit an SystemView Overflow packet containing the
 618:Middlewares/Third_Party/SystemView/SEGGER/SEGGER_SYSVIEW.c **** *    number of dropped packets.
 619:Middlewares/Third_Party/SystemView/SEGGER/SEGGER_SYSVIEW.c **** *
 620:Middlewares/Third_Party/SystemView/SEGGER/SEGGER_SYSVIEW.c **** *  Additional information
 621:Middlewares/Third_Party/SystemView/SEGGER/SEGGER_SYSVIEW.c **** *    Format as follows:
 622:Middlewares/Third_Party/SystemView/SEGGER/SEGGER_SYSVIEW.c **** *      01 <DropCnt><TimeStamp>  Max. packet len is 1 + 5 + 5 = 11
 623:Middlewares/Third_Party/SystemView/SEGGER/SEGGER_SYSVIEW.c **** *
 624:Middlewares/Third_Party/SystemView/SEGGER/SEGGER_SYSVIEW.c **** *    Example packets sent
 625:Middlewares/Third_Party/SystemView/SEGGER/SEGGER_SYSVIEW.c **** *      01 20 40
 626:Middlewares/Third_Party/SystemView/SEGGER/SEGGER_SYSVIEW.c **** *
 627:Middlewares/Third_Party/SystemView/SEGGER/SEGGER_SYSVIEW.c **** *  Return value
 628:Middlewares/Third_Party/SystemView/SEGGER/SEGGER_SYSVIEW.c **** *    !=0:  Success, Message sent (stored in RTT-Buffer)
 629:Middlewares/Third_Party/SystemView/SEGGER/SEGGER_SYSVIEW.c **** *    ==0:  Buffer full, Message *NOT* stored
 630:Middlewares/Third_Party/SystemView/SEGGER/SEGGER_SYSVIEW.c **** *
 631:Middlewares/Third_Party/SystemView/SEGGER/SEGGER_SYSVIEW.c **** */
 632:Middlewares/Third_Party/SystemView/SEGGER/SEGGER_SYSVIEW.c **** #if (SEGGER_SYSVIEW_POST_MORTEM_MODE != 1)
 633:Middlewares/Third_Party/SystemView/SEGGER/SEGGER_SYSVIEW.c **** static int _TrySendOverflowPacket(void) {
 253              		.loc 1 633 41 is_stmt 1 view -0
 254              		.cfi_startproc
ARM GAS  C:\Users\KETEN_~1\AppData\Local\Temp\cck9qv27.s 			page 17


 255              		@ args = 0, pretend = 0, frame = 16
 256              		@ frame_needed = 0, uses_anonymous_args = 0
 257 0000 10B5     		push	{r4, lr}
 258              	.LCFI2:
 259              		.cfi_def_cfa_offset 8
 260              		.cfi_offset 4, -8
 261              		.cfi_offset 14, -4
 262 0002 84B0     		sub	sp, sp, #16
 263              	.LCFI3:
 264              		.cfi_def_cfa_offset 24
 634:Middlewares/Third_Party/SystemView/SEGGER/SEGGER_SYSVIEW.c ****   U32 TimeStamp;
 265              		.loc 1 634 3 view .LVU77
 635:Middlewares/Third_Party/SystemView/SEGGER/SEGGER_SYSVIEW.c ****   I32 Delta;
 266              		.loc 1 635 3 view .LVU78
 636:Middlewares/Third_Party/SystemView/SEGGER/SEGGER_SYSVIEW.c ****   int Status;
 267              		.loc 1 636 3 view .LVU79
 637:Middlewares/Third_Party/SystemView/SEGGER/SEGGER_SYSVIEW.c ****   U8  aPacket[11];
 268              		.loc 1 637 3 view .LVU80
 638:Middlewares/Third_Party/SystemView/SEGGER/SEGGER_SYSVIEW.c ****   U8* pPayload;
 269              		.loc 1 638 3 view .LVU81
 639:Middlewares/Third_Party/SystemView/SEGGER/SEGGER_SYSVIEW.c **** 
 640:Middlewares/Third_Party/SystemView/SEGGER/SEGGER_SYSVIEW.c ****   aPacket[0] = SYSVIEW_EVTID_OVERFLOW;      // 1
 270              		.loc 1 640 3 view .LVU82
 271              		.loc 1 640 14 is_stmt 0 view .LVU83
 272 0004 0123     		movs	r3, #1
 273 0006 8DF80430 		strb	r3, [sp, #4]
 641:Middlewares/Third_Party/SystemView/SEGGER/SEGGER_SYSVIEW.c ****   pPayload   = &aPacket[1];
 274              		.loc 1 641 3 is_stmt 1 view .LVU84
 275              	.LVL32:
 276              	.LBB2:
 642:Middlewares/Third_Party/SystemView/SEGGER/SEGGER_SYSVIEW.c ****   ENCODE_U32(pPayload, _SYSVIEW_Globals.DropCount);
 277              		.loc 1 642 3 view .LVU85
 278              		.loc 1 642 3 view .LVU86
 279              		.loc 1 642 3 view .LVU87
 280              		.loc 1 642 3 view .LVU88
 281 000a 184B     		ldr	r3, .L31
 282 000c 5B69     		ldr	r3, [r3, #20]
 283              	.LVL33:
 284              		.loc 1 642 3 view .LVU89
 285 000e 0DF10502 		add	r2, sp, #5
 286              	.LVL34:
 287              		.loc 1 642 3 is_stmt 0 view .LVU90
 288 0012 04E0     		b	.L24
 289              	.LVL35:
 290              	.L25:
 291              		.loc 1 642 3 is_stmt 1 discriminator 3 view .LVU91
 292              		.loc 1 642 3 is_stmt 0 discriminator 3 view .LVU92
 293 0014 63F07F01 		orn	r1, r3, #127
 294 0018 02F8011B 		strb	r1, [r2], #1
 295              	.LVL36:
 296              		.loc 1 642 3 is_stmt 1 discriminator 3 view .LVU93
 297 001c DB09     		lsrs	r3, r3, #7
 298              	.LVL37:
 299              	.L24:
 300              		.loc 1 642 3 discriminator 1 view .LVU94
 301 001e 7F2B     		cmp	r3, #127
 302 0020 F8D8     		bhi	.L25
ARM GAS  C:\Users\KETEN_~1\AppData\Local\Temp\cck9qv27.s 			page 18


 303              		.loc 1 642 3 discriminator 4 view .LVU95
 304              		.loc 1 642 3 discriminator 4 view .LVU96
 305              	.LVL38:
 306              		.loc 1 642 3 is_stmt 0 discriminator 4 view .LVU97
 307 0022 02F8013B 		strb	r3, [r2], #1
 308              	.LVL39:
 309              		.loc 1 642 3 is_stmt 1 discriminator 4 view .LVU98
 310              		.loc 1 642 3 is_stmt 0 discriminator 4 view .LVU99
 311              	.LBE2:
 312              		.loc 1 642 3 is_stmt 1 discriminator 4 view .LVU100
 313              		.loc 1 642 51 discriminator 4 view .LVU101
 643:Middlewares/Third_Party/SystemView/SEGGER/SEGGER_SYSVIEW.c ****   //
 644:Middlewares/Third_Party/SystemView/SEGGER/SEGGER_SYSVIEW.c ****   // Compute time stamp delta and append it to packet.
 645:Middlewares/Third_Party/SystemView/SEGGER/SEGGER_SYSVIEW.c ****   //
 646:Middlewares/Third_Party/SystemView/SEGGER/SEGGER_SYSVIEW.c ****   TimeStamp  = SEGGER_SYSVIEW_GET_TIMESTAMP();
 314              		.loc 1 646 3 view .LVU102
 315              		.loc 1 646 14 is_stmt 0 view .LVU103
 316 0026 124B     		ldr	r3, .L31+4
 317              	.LVL40:
 318              		.loc 1 646 14 view .LVU104
 319 0028 5C68     		ldr	r4, [r3, #4]
 320              	.LVL41:
 647:Middlewares/Third_Party/SystemView/SEGGER/SEGGER_SYSVIEW.c ****   Delta = TimeStamp - _SYSVIEW_Globals.LastTxTimeStamp;
 321              		.loc 1 647 3 is_stmt 1 view .LVU105
 322              		.loc 1 647 39 is_stmt 0 view .LVU106
 323 002a 104B     		ldr	r3, .L31
 324 002c DB68     		ldr	r3, [r3, #12]
 325              		.loc 1 647 21 view .LVU107
 326 002e E31A     		subs	r3, r4, r3
 327              	.LVL42:
 648:Middlewares/Third_Party/SystemView/SEGGER/SEGGER_SYSVIEW.c ****   MAKE_DELTA_32BIT(Delta);
 328              		.loc 1 648 26 is_stmt 1 view .LVU108
 329              	.LBB3:
 649:Middlewares/Third_Party/SystemView/SEGGER/SEGGER_SYSVIEW.c ****   ENCODE_U32(pPayload, Delta);
 330              		.loc 1 649 3 view .LVU109
 331              		.loc 1 649 3 view .LVU110
 332              		.loc 1 649 3 view .LVU111
 333              		.loc 1 649 3 view .LVU112
 334              		.loc 1 649 3 view .LVU113
 335 0030 04E0     		b	.L26
 336              	.LVL43:
 337              	.L27:
 338              		.loc 1 649 3 discriminator 3 view .LVU114
 339              		.loc 1 649 3 is_stmt 0 discriminator 3 view .LVU115
 340 0032 63F07F01 		orn	r1, r3, #127
 341 0036 02F8011B 		strb	r1, [r2], #1
 342              	.LVL44:
 343              		.loc 1 649 3 is_stmt 1 discriminator 3 view .LVU116
 344 003a DB09     		lsrs	r3, r3, #7
 345              	.LVL45:
 346              	.L26:
 347              		.loc 1 649 3 discriminator 1 view .LVU117
 348 003c 7F2B     		cmp	r3, #127
 349 003e F8D8     		bhi	.L27
 350              		.loc 1 649 3 discriminator 4 view .LVU118
 351              		.loc 1 649 3 discriminator 4 view .LVU119
 352              	.LVL46:
ARM GAS  C:\Users\KETEN_~1\AppData\Local\Temp\cck9qv27.s 			page 19


 353              		.loc 1 649 3 is_stmt 0 discriminator 4 view .LVU120
 354 0040 02F8013B 		strb	r3, [r2], #1
 355              	.LVL47:
 356              		.loc 1 649 3 is_stmt 1 discriminator 4 view .LVU121
 357              		.loc 1 649 3 is_stmt 0 discriminator 4 view .LVU122
 358              	.LBE3:
 359              		.loc 1 649 3 is_stmt 1 discriminator 4 view .LVU123
 360              		.loc 1 649 30 discriminator 4 view .LVU124
 650:Middlewares/Third_Party/SystemView/SEGGER/SEGGER_SYSVIEW.c ****   //
 651:Middlewares/Third_Party/SystemView/SEGGER/SEGGER_SYSVIEW.c ****   // Try to store packet in RTT buffer and update time stamp when this was successful
 652:Middlewares/Third_Party/SystemView/SEGGER/SEGGER_SYSVIEW.c ****   //
 653:Middlewares/Third_Party/SystemView/SEGGER/SEGGER_SYSVIEW.c ****   Status = SEGGER_RTT_WriteSkipNoLock(CHANNEL_ID_UP, aPacket, pPayload - aPacket);
 361              		.loc 1 653 3 view .LVU125
 362              		.loc 1 653 72 is_stmt 0 view .LVU126
 363 0044 01A9     		add	r1, sp, #4
 364              		.loc 1 653 12 view .LVU127
 365 0046 521A     		subs	r2, r2, r1
 366              	.LVL48:
 367              		.loc 1 653 12 view .LVU128
 368 0048 084B     		ldr	r3, .L31
 369              	.LVL49:
 370              		.loc 1 653 12 view .LVU129
 371 004a 5878     		ldrb	r0, [r3, #1]	@ zero_extendqisi2
 372 004c FFF7FEFF 		bl	SEGGER_RTT_ASM_WriteSkipNoLock
 373              	.LVL50:
 654:Middlewares/Third_Party/SystemView/SEGGER/SEGGER_SYSVIEW.c ****   SEGGER_SYSVIEW_ON_EVENT_RECORDED(pPayload - aPacket);
 374              		.loc 1 654 55 is_stmt 1 view .LVU130
 655:Middlewares/Third_Party/SystemView/SEGGER/SEGGER_SYSVIEW.c ****   if (Status) {
 375              		.loc 1 655 3 view .LVU131
 376              		.loc 1 655 6 is_stmt 0 view .LVU132
 377 0050 30B1     		cbz	r0, .L28
 656:Middlewares/Third_Party/SystemView/SEGGER/SEGGER_SYSVIEW.c ****     _SYSVIEW_Globals.LastTxTimeStamp = TimeStamp;
 378              		.loc 1 656 5 is_stmt 1 view .LVU133
 379              		.loc 1 656 38 is_stmt 0 view .LVU134
 380 0052 064B     		ldr	r3, .L31
 381 0054 DC60     		str	r4, [r3, #12]
 657:Middlewares/Third_Party/SystemView/SEGGER/SEGGER_SYSVIEW.c ****     _SYSVIEW_Globals.EnableState--; // EnableState has been 2, will be 1. Always.
 382              		.loc 1 657 5 is_stmt 1 view .LVU135
 383              		.loc 1 657 21 is_stmt 0 view .LVU136
 384 0056 1A78     		ldrb	r2, [r3]	@ zero_extendqisi2
 385              		.loc 1 657 33 view .LVU137
 386 0058 013A     		subs	r2, r2, #1
 387 005a 1A70     		strb	r2, [r3]
 388              	.L23:
 658:Middlewares/Third_Party/SystemView/SEGGER/SEGGER_SYSVIEW.c ****   } else {
 659:Middlewares/Third_Party/SystemView/SEGGER/SEGGER_SYSVIEW.c ****     _SYSVIEW_Globals.DropCount++;
 660:Middlewares/Third_Party/SystemView/SEGGER/SEGGER_SYSVIEW.c ****   }
 661:Middlewares/Third_Party/SystemView/SEGGER/SEGGER_SYSVIEW.c ****   //
 662:Middlewares/Third_Party/SystemView/SEGGER/SEGGER_SYSVIEW.c ****   return Status;
 663:Middlewares/Third_Party/SystemView/SEGGER/SEGGER_SYSVIEW.c **** }
 389              		.loc 1 663 1 view .LVU138
 390 005c 04B0     		add	sp, sp, #16
 391              	.LCFI4:
 392              		.cfi_remember_state
 393              		.cfi_def_cfa_offset 8
 394              		@ sp needed
 395 005e 10BD     		pop	{r4, pc}
ARM GAS  C:\Users\KETEN_~1\AppData\Local\Temp\cck9qv27.s 			page 20


 396              	.LVL51:
 397              	.L28:
 398              	.LCFI5:
 399              		.cfi_restore_state
 659:Middlewares/Third_Party/SystemView/SEGGER/SEGGER_SYSVIEW.c ****   }
 400              		.loc 1 659 5 is_stmt 1 view .LVU139
 659:Middlewares/Third_Party/SystemView/SEGGER/SEGGER_SYSVIEW.c ****   }
 401              		.loc 1 659 21 is_stmt 0 view .LVU140
 402 0060 024A     		ldr	r2, .L31
 403 0062 5369     		ldr	r3, [r2, #20]
 659:Middlewares/Third_Party/SystemView/SEGGER/SEGGER_SYSVIEW.c ****   }
 404              		.loc 1 659 31 view .LVU141
 405 0064 0133     		adds	r3, r3, #1
 406 0066 5361     		str	r3, [r2, #20]
 662:Middlewares/Third_Party/SystemView/SEGGER/SEGGER_SYSVIEW.c **** }
 407              		.loc 1 662 3 is_stmt 1 view .LVU142
 662:Middlewares/Third_Party/SystemView/SEGGER/SEGGER_SYSVIEW.c **** }
 408              		.loc 1 662 10 is_stmt 0 view .LVU143
 409 0068 F8E7     		b	.L23
 410              	.L32:
 411 006a 00BF     		.align	2
 412              	.L31:
 413 006c 00000000 		.word	_SYSVIEW_Globals
 414 0070 001000E0 		.word	-536866816
 415              		.cfi_endproc
 416              	.LFE4:
 418              		.section	.rodata.SEGGER_SYSVIEW_Init.str1.4,"aMS",%progbits,1
 419              		.align	2
 420              	.LC0:
 421 0000 53797356 		.ascii	"SysView\000"
 421      69657700 
 422              		.section	.text.SEGGER_SYSVIEW_Init,"ax",%progbits
 423              		.align	1
 424              		.global	SEGGER_SYSVIEW_Init
 425              		.syntax unified
 426              		.thumb
 427              		.thumb_func
 429              	SEGGER_SYSVIEW_Init:
 430              	.LVL52:
 431              	.LFB11:
 664:Middlewares/Third_Party/SystemView/SEGGER/SEGGER_SYSVIEW.c **** #endif  // (SEGGER_SYSVIEW_POST_MORTEM_MODE != 1)
 665:Middlewares/Third_Party/SystemView/SEGGER/SEGGER_SYSVIEW.c **** 
 666:Middlewares/Third_Party/SystemView/SEGGER/SEGGER_SYSVIEW.c **** /*********************************************************************
 667:Middlewares/Third_Party/SystemView/SEGGER/SEGGER_SYSVIEW.c **** *
 668:Middlewares/Third_Party/SystemView/SEGGER/SEGGER_SYSVIEW.c **** *       _SendSyncInfo()
 669:Middlewares/Third_Party/SystemView/SEGGER/SEGGER_SYSVIEW.c **** *
 670:Middlewares/Third_Party/SystemView/SEGGER/SEGGER_SYSVIEW.c **** *  Function description
 671:Middlewares/Third_Party/SystemView/SEGGER/SEGGER_SYSVIEW.c **** *    Send SystemView sync packet and system information in 
 672:Middlewares/Third_Party/SystemView/SEGGER/SEGGER_SYSVIEW.c **** *    post mortem mode.
 673:Middlewares/Third_Party/SystemView/SEGGER/SEGGER_SYSVIEW.c **** *
 674:Middlewares/Third_Party/SystemView/SEGGER/SEGGER_SYSVIEW.c **** *  Additional information
 675:Middlewares/Third_Party/SystemView/SEGGER/SEGGER_SYSVIEW.c **** *    Sync is 10 * 0x00 without timestamp
 676:Middlewares/Third_Party/SystemView/SEGGER/SEGGER_SYSVIEW.c **** */
 677:Middlewares/Third_Party/SystemView/SEGGER/SEGGER_SYSVIEW.c **** #if (SEGGER_SYSVIEW_POST_MORTEM_MODE == 1)
 678:Middlewares/Third_Party/SystemView/SEGGER/SEGGER_SYSVIEW.c **** static void _SendSyncInfo(void) {
 679:Middlewares/Third_Party/SystemView/SEGGER/SEGGER_SYSVIEW.c ****   //
 680:Middlewares/Third_Party/SystemView/SEGGER/SEGGER_SYSVIEW.c ****   // Add sync packet ( 10 * 0x00)
ARM GAS  C:\Users\KETEN_~1\AppData\Local\Temp\cck9qv27.s 			page 21


 681:Middlewares/Third_Party/SystemView/SEGGER/SEGGER_SYSVIEW.c ****   // Send system description
 682:Middlewares/Third_Party/SystemView/SEGGER/SEGGER_SYSVIEW.c ****   // Send system time
 683:Middlewares/Third_Party/SystemView/SEGGER/SEGGER_SYSVIEW.c ****   // Send task list
 684:Middlewares/Third_Party/SystemView/SEGGER/SEGGER_SYSVIEW.c ****   // Send module description
 685:Middlewares/Third_Party/SystemView/SEGGER/SEGGER_SYSVIEW.c ****   // Send module information
 686:Middlewares/Third_Party/SystemView/SEGGER/SEGGER_SYSVIEW.c ****   //
 687:Middlewares/Third_Party/SystemView/SEGGER/SEGGER_SYSVIEW.c ****   SEGGER_RTT_WriteWithOverwriteNoLock(CHANNEL_ID_UP, _abSync, 10);
 688:Middlewares/Third_Party/SystemView/SEGGER/SEGGER_SYSVIEW.c ****   SEGGER_SYSVIEW_ON_EVENT_RECORDED(10);
 689:Middlewares/Third_Party/SystemView/SEGGER/SEGGER_SYSVIEW.c ****   SEGGER_SYSVIEW_RecordVoid(SYSVIEW_EVTID_TRACE_START);
 690:Middlewares/Third_Party/SystemView/SEGGER/SEGGER_SYSVIEW.c ****   {
 691:Middlewares/Third_Party/SystemView/SEGGER/SEGGER_SYSVIEW.c ****     U8* pPayload;
 692:Middlewares/Third_Party/SystemView/SEGGER/SEGGER_SYSVIEW.c ****     U8* pPayloadStart;
 693:Middlewares/Third_Party/SystemView/SEGGER/SEGGER_SYSVIEW.c ****     RECORD_START(SEGGER_SYSVIEW_INFO_SIZE + 4 * SEGGER_SYSVIEW_QUANTA_U32);
 694:Middlewares/Third_Party/SystemView/SEGGER/SEGGER_SYSVIEW.c ****     //
 695:Middlewares/Third_Party/SystemView/SEGGER/SEGGER_SYSVIEW.c ****     pPayload = pPayloadStart;
 696:Middlewares/Third_Party/SystemView/SEGGER/SEGGER_SYSVIEW.c ****     ENCODE_U32(pPayload, _SYSVIEW_Globals.SysFreq);
 697:Middlewares/Third_Party/SystemView/SEGGER/SEGGER_SYSVIEW.c ****     ENCODE_U32(pPayload, _SYSVIEW_Globals.CPUFreq);
 698:Middlewares/Third_Party/SystemView/SEGGER/SEGGER_SYSVIEW.c ****     ENCODE_U32(pPayload, _SYSVIEW_Globals.RAMBaseAddress);
 699:Middlewares/Third_Party/SystemView/SEGGER/SEGGER_SYSVIEW.c ****     ENCODE_U32(pPayload, SEGGER_SYSVIEW_ID_SHIFT);
 700:Middlewares/Third_Party/SystemView/SEGGER/SEGGER_SYSVIEW.c ****     _SendPacket(pPayloadStart, pPayload, SYSVIEW_EVTID_INIT);
 701:Middlewares/Third_Party/SystemView/SEGGER/SEGGER_SYSVIEW.c ****     RECORD_END();
 702:Middlewares/Third_Party/SystemView/SEGGER/SEGGER_SYSVIEW.c ****   }
 703:Middlewares/Third_Party/SystemView/SEGGER/SEGGER_SYSVIEW.c ****   if (_SYSVIEW_Globals.pfSendSysDesc) {
 704:Middlewares/Third_Party/SystemView/SEGGER/SEGGER_SYSVIEW.c ****     _SYSVIEW_Globals.pfSendSysDesc();
 705:Middlewares/Third_Party/SystemView/SEGGER/SEGGER_SYSVIEW.c ****   }
 706:Middlewares/Third_Party/SystemView/SEGGER/SEGGER_SYSVIEW.c ****   SEGGER_SYSVIEW_RecordSystime();
 707:Middlewares/Third_Party/SystemView/SEGGER/SEGGER_SYSVIEW.c ****   SEGGER_SYSVIEW_SendTaskList();
 708:Middlewares/Third_Party/SystemView/SEGGER/SEGGER_SYSVIEW.c ****   if (_NumModules > 0) {
 709:Middlewares/Third_Party/SystemView/SEGGER/SEGGER_SYSVIEW.c ****     int n;
 710:Middlewares/Third_Party/SystemView/SEGGER/SEGGER_SYSVIEW.c ****     SEGGER_SYSVIEW_SendNumModules();
 711:Middlewares/Third_Party/SystemView/SEGGER/SEGGER_SYSVIEW.c ****     for (n = 0; n < _NumModules; n++) {
 712:Middlewares/Third_Party/SystemView/SEGGER/SEGGER_SYSVIEW.c ****       SEGGER_SYSVIEW_SendModule(n);
 713:Middlewares/Third_Party/SystemView/SEGGER/SEGGER_SYSVIEW.c ****     }
 714:Middlewares/Third_Party/SystemView/SEGGER/SEGGER_SYSVIEW.c ****     SEGGER_SYSVIEW_SendModuleDescription();
 715:Middlewares/Third_Party/SystemView/SEGGER/SEGGER_SYSVIEW.c ****   }
 716:Middlewares/Third_Party/SystemView/SEGGER/SEGGER_SYSVIEW.c **** }
 717:Middlewares/Third_Party/SystemView/SEGGER/SEGGER_SYSVIEW.c **** #endif  // (SEGGER_SYSVIEW_POST_MORTEM_MODE == 1)
 718:Middlewares/Third_Party/SystemView/SEGGER/SEGGER_SYSVIEW.c **** 
 719:Middlewares/Third_Party/SystemView/SEGGER/SEGGER_SYSVIEW.c **** /*********************************************************************
 720:Middlewares/Third_Party/SystemView/SEGGER/SEGGER_SYSVIEW.c **** *
 721:Middlewares/Third_Party/SystemView/SEGGER/SEGGER_SYSVIEW.c **** *       _SendPacket()
 722:Middlewares/Third_Party/SystemView/SEGGER/SEGGER_SYSVIEW.c **** *
 723:Middlewares/Third_Party/SystemView/SEGGER/SEGGER_SYSVIEW.c **** *  Function description
 724:Middlewares/Third_Party/SystemView/SEGGER/SEGGER_SYSVIEW.c **** *    Send a SystemView packet over RTT. RTT channel and mode are
 725:Middlewares/Third_Party/SystemView/SEGGER/SEGGER_SYSVIEW.c **** *    configured by macros when the SystemView component is initialized.
 726:Middlewares/Third_Party/SystemView/SEGGER/SEGGER_SYSVIEW.c **** *    This function takes care of maintaining the packet drop count
 727:Middlewares/Third_Party/SystemView/SEGGER/SEGGER_SYSVIEW.c **** *    and sending overflow packets when necessary.
 728:Middlewares/Third_Party/SystemView/SEGGER/SEGGER_SYSVIEW.c **** *    The packet must be passed without Id and Length because this
 729:Middlewares/Third_Party/SystemView/SEGGER/SEGGER_SYSVIEW.c **** *    function prepends it to the packet before transmission.
 730:Middlewares/Third_Party/SystemView/SEGGER/SEGGER_SYSVIEW.c **** *
 731:Middlewares/Third_Party/SystemView/SEGGER/SEGGER_SYSVIEW.c **** *  Parameters
 732:Middlewares/Third_Party/SystemView/SEGGER/SEGGER_SYSVIEW.c **** *    pStartPacket - Pointer to start of packet payload.
 733:Middlewares/Third_Party/SystemView/SEGGER/SEGGER_SYSVIEW.c **** *                   There must be at least 4 bytes free to prepend Id and Length.
 734:Middlewares/Third_Party/SystemView/SEGGER/SEGGER_SYSVIEW.c **** *    pEndPacket   - Pointer to end of packet payload.
 735:Middlewares/Third_Party/SystemView/SEGGER/SEGGER_SYSVIEW.c **** *    EventId      - Id of the event to send.
 736:Middlewares/Third_Party/SystemView/SEGGER/SEGGER_SYSVIEW.c **** *
 737:Middlewares/Third_Party/SystemView/SEGGER/SEGGER_SYSVIEW.c **** */
ARM GAS  C:\Users\KETEN_~1\AppData\Local\Temp\cck9qv27.s 			page 22


 738:Middlewares/Third_Party/SystemView/SEGGER/SEGGER_SYSVIEW.c **** static void _SendPacket(U8* pStartPacket, U8* pEndPacket, unsigned int EventId) {
 739:Middlewares/Third_Party/SystemView/SEGGER/SEGGER_SYSVIEW.c ****   unsigned int  NumBytes;
 740:Middlewares/Third_Party/SystemView/SEGGER/SEGGER_SYSVIEW.c ****   U32           TimeStamp;
 741:Middlewares/Third_Party/SystemView/SEGGER/SEGGER_SYSVIEW.c ****   U32           Delta;
 742:Middlewares/Third_Party/SystemView/SEGGER/SEGGER_SYSVIEW.c **** #if (SEGGER_SYSVIEW_POST_MORTEM_MODE != 1)
 743:Middlewares/Third_Party/SystemView/SEGGER/SEGGER_SYSVIEW.c ****   int           Status;
 744:Middlewares/Third_Party/SystemView/SEGGER/SEGGER_SYSVIEW.c **** #endif
 745:Middlewares/Third_Party/SystemView/SEGGER/SEGGER_SYSVIEW.c **** 
 746:Middlewares/Third_Party/SystemView/SEGGER/SEGGER_SYSVIEW.c **** #if (SEGGER_SYSVIEW_USE_STATIC_BUFFER == 0)
 747:Middlewares/Third_Party/SystemView/SEGGER/SEGGER_SYSVIEW.c ****   SEGGER_SYSVIEW_LOCK();
 748:Middlewares/Third_Party/SystemView/SEGGER/SEGGER_SYSVIEW.c **** #endif
 749:Middlewares/Third_Party/SystemView/SEGGER/SEGGER_SYSVIEW.c **** 
 750:Middlewares/Third_Party/SystemView/SEGGER/SEGGER_SYSVIEW.c **** #if (SEGGER_SYSVIEW_POST_MORTEM_MODE == 1)
 751:Middlewares/Third_Party/SystemView/SEGGER/SEGGER_SYSVIEW.c ****   if (_SYSVIEW_Globals.EnableState == 0) {
 752:Middlewares/Third_Party/SystemView/SEGGER/SEGGER_SYSVIEW.c ****     goto SendDone;
 753:Middlewares/Third_Party/SystemView/SEGGER/SEGGER_SYSVIEW.c ****   }
 754:Middlewares/Third_Party/SystemView/SEGGER/SEGGER_SYSVIEW.c **** #else
 755:Middlewares/Third_Party/SystemView/SEGGER/SEGGER_SYSVIEW.c ****   if (_SYSVIEW_Globals.EnableState == 1) {  // Enabled, no dropped packets remaining
 756:Middlewares/Third_Party/SystemView/SEGGER/SEGGER_SYSVIEW.c ****     goto Send;
 757:Middlewares/Third_Party/SystemView/SEGGER/SEGGER_SYSVIEW.c ****   }
 758:Middlewares/Third_Party/SystemView/SEGGER/SEGGER_SYSVIEW.c ****   if (_SYSVIEW_Globals.EnableState == 0) {
 759:Middlewares/Third_Party/SystemView/SEGGER/SEGGER_SYSVIEW.c ****     goto SendDone;
 760:Middlewares/Third_Party/SystemView/SEGGER/SEGGER_SYSVIEW.c ****   }
 761:Middlewares/Third_Party/SystemView/SEGGER/SEGGER_SYSVIEW.c ****   //
 762:Middlewares/Third_Party/SystemView/SEGGER/SEGGER_SYSVIEW.c ****   // Handle buffer full situations:
 763:Middlewares/Third_Party/SystemView/SEGGER/SEGGER_SYSVIEW.c ****   // Have packets been dropped before because buffer was full?
 764:Middlewares/Third_Party/SystemView/SEGGER/SEGGER_SYSVIEW.c ****   // In this case try to send and overflow packet.
 765:Middlewares/Third_Party/SystemView/SEGGER/SEGGER_SYSVIEW.c ****   //
 766:Middlewares/Third_Party/SystemView/SEGGER/SEGGER_SYSVIEW.c ****   if (_SYSVIEW_Globals.EnableState == 2) {
 767:Middlewares/Third_Party/SystemView/SEGGER/SEGGER_SYSVIEW.c ****     _TrySendOverflowPacket();
 768:Middlewares/Third_Party/SystemView/SEGGER/SEGGER_SYSVIEW.c ****     if (_SYSVIEW_Globals.EnableState != 1) {
 769:Middlewares/Third_Party/SystemView/SEGGER/SEGGER_SYSVIEW.c ****       goto SendDone;
 770:Middlewares/Third_Party/SystemView/SEGGER/SEGGER_SYSVIEW.c ****     }
 771:Middlewares/Third_Party/SystemView/SEGGER/SEGGER_SYSVIEW.c ****   }
 772:Middlewares/Third_Party/SystemView/SEGGER/SEGGER_SYSVIEW.c **** Send:
 773:Middlewares/Third_Party/SystemView/SEGGER/SEGGER_SYSVIEW.c **** #endif
 774:Middlewares/Third_Party/SystemView/SEGGER/SEGGER_SYSVIEW.c ****   //
 775:Middlewares/Third_Party/SystemView/SEGGER/SEGGER_SYSVIEW.c ****   // Check if event is disabled from being recorded.
 776:Middlewares/Third_Party/SystemView/SEGGER/SEGGER_SYSVIEW.c ****   //
 777:Middlewares/Third_Party/SystemView/SEGGER/SEGGER_SYSVIEW.c ****   if (EventId < 32) {
 778:Middlewares/Third_Party/SystemView/SEGGER/SEGGER_SYSVIEW.c ****     if (_SYSVIEW_Globals.DisabledEvents & ((U32)1u << EventId)) {
 779:Middlewares/Third_Party/SystemView/SEGGER/SEGGER_SYSVIEW.c ****       goto SendDone;
 780:Middlewares/Third_Party/SystemView/SEGGER/SEGGER_SYSVIEW.c ****     }
 781:Middlewares/Third_Party/SystemView/SEGGER/SEGGER_SYSVIEW.c ****   }
 782:Middlewares/Third_Party/SystemView/SEGGER/SEGGER_SYSVIEW.c ****   //
 783:Middlewares/Third_Party/SystemView/SEGGER/SEGGER_SYSVIEW.c ****   // Prepare actual packet.
 784:Middlewares/Third_Party/SystemView/SEGGER/SEGGER_SYSVIEW.c ****   // If it is a known packet, prepend eventId only,
 785:Middlewares/Third_Party/SystemView/SEGGER/SEGGER_SYSVIEW.c ****   // otherwise prepend packet length and eventId.
 786:Middlewares/Third_Party/SystemView/SEGGER/SEGGER_SYSVIEW.c ****   //
 787:Middlewares/Third_Party/SystemView/SEGGER/SEGGER_SYSVIEW.c ****   if (EventId < 24) {
 788:Middlewares/Third_Party/SystemView/SEGGER/SEGGER_SYSVIEW.c ****     *--pStartPacket = EventId;
 789:Middlewares/Third_Party/SystemView/SEGGER/SEGGER_SYSVIEW.c ****   } else {
 790:Middlewares/Third_Party/SystemView/SEGGER/SEGGER_SYSVIEW.c ****     NumBytes = pEndPacket - pStartPacket;
 791:Middlewares/Third_Party/SystemView/SEGGER/SEGGER_SYSVIEW.c ****     if (NumBytes > 127) {
 792:Middlewares/Third_Party/SystemView/SEGGER/SEGGER_SYSVIEW.c ****       *--pStartPacket = (NumBytes >> 7);
 793:Middlewares/Third_Party/SystemView/SEGGER/SEGGER_SYSVIEW.c ****       *--pStartPacket = NumBytes | 0x80;
 794:Middlewares/Third_Party/SystemView/SEGGER/SEGGER_SYSVIEW.c ****     } else {
ARM GAS  C:\Users\KETEN_~1\AppData\Local\Temp\cck9qv27.s 			page 23


 795:Middlewares/Third_Party/SystemView/SEGGER/SEGGER_SYSVIEW.c ****       *--pStartPacket = NumBytes;
 796:Middlewares/Third_Party/SystemView/SEGGER/SEGGER_SYSVIEW.c ****     }
 797:Middlewares/Third_Party/SystemView/SEGGER/SEGGER_SYSVIEW.c ****     if (EventId > 127) {
 798:Middlewares/Third_Party/SystemView/SEGGER/SEGGER_SYSVIEW.c ****       *--pStartPacket = (EventId >> 7);
 799:Middlewares/Third_Party/SystemView/SEGGER/SEGGER_SYSVIEW.c ****       *--pStartPacket = EventId | 0x80;
 800:Middlewares/Third_Party/SystemView/SEGGER/SEGGER_SYSVIEW.c ****     } else {
 801:Middlewares/Third_Party/SystemView/SEGGER/SEGGER_SYSVIEW.c ****       *--pStartPacket = EventId;
 802:Middlewares/Third_Party/SystemView/SEGGER/SEGGER_SYSVIEW.c ****     }
 803:Middlewares/Third_Party/SystemView/SEGGER/SEGGER_SYSVIEW.c ****   }
 804:Middlewares/Third_Party/SystemView/SEGGER/SEGGER_SYSVIEW.c ****   //
 805:Middlewares/Third_Party/SystemView/SEGGER/SEGGER_SYSVIEW.c ****   // Compute time stamp delta and append it to packet.
 806:Middlewares/Third_Party/SystemView/SEGGER/SEGGER_SYSVIEW.c ****   //
 807:Middlewares/Third_Party/SystemView/SEGGER/SEGGER_SYSVIEW.c ****   TimeStamp  = SEGGER_SYSVIEW_GET_TIMESTAMP();
 808:Middlewares/Third_Party/SystemView/SEGGER/SEGGER_SYSVIEW.c ****   Delta = TimeStamp - _SYSVIEW_Globals.LastTxTimeStamp;
 809:Middlewares/Third_Party/SystemView/SEGGER/SEGGER_SYSVIEW.c ****   MAKE_DELTA_32BIT(Delta);
 810:Middlewares/Third_Party/SystemView/SEGGER/SEGGER_SYSVIEW.c ****   ENCODE_U32(pEndPacket, Delta);
 811:Middlewares/Third_Party/SystemView/SEGGER/SEGGER_SYSVIEW.c **** #if (SEGGER_SYSVIEW_POST_MORTEM_MODE == 1)
 812:Middlewares/Third_Party/SystemView/SEGGER/SEGGER_SYSVIEW.c ****   //
 813:Middlewares/Third_Party/SystemView/SEGGER/SEGGER_SYSVIEW.c ****   // Store packet in RTT buffer by overwriting old data and update time stamp
 814:Middlewares/Third_Party/SystemView/SEGGER/SEGGER_SYSVIEW.c ****   //
 815:Middlewares/Third_Party/SystemView/SEGGER/SEGGER_SYSVIEW.c ****   SEGGER_RTT_WriteWithOverwriteNoLock(CHANNEL_ID_UP, pStartPacket, pEndPacket - pStartPacket);
 816:Middlewares/Third_Party/SystemView/SEGGER/SEGGER_SYSVIEW.c ****   SEGGER_SYSVIEW_ON_EVENT_RECORDED(pEndPacket - pStartPacket);
 817:Middlewares/Third_Party/SystemView/SEGGER/SEGGER_SYSVIEW.c ****   _SYSVIEW_Globals.LastTxTimeStamp = TimeStamp;
 818:Middlewares/Third_Party/SystemView/SEGGER/SEGGER_SYSVIEW.c **** #else
 819:Middlewares/Third_Party/SystemView/SEGGER/SEGGER_SYSVIEW.c ****   //
 820:Middlewares/Third_Party/SystemView/SEGGER/SEGGER_SYSVIEW.c ****   // Try to store packet in RTT buffer and update time stamp when this was successful
 821:Middlewares/Third_Party/SystemView/SEGGER/SEGGER_SYSVIEW.c ****   //
 822:Middlewares/Third_Party/SystemView/SEGGER/SEGGER_SYSVIEW.c ****   Status = SEGGER_RTT_WriteSkipNoLock(CHANNEL_ID_UP, pStartPacket, pEndPacket - pStartPacket);
 823:Middlewares/Third_Party/SystemView/SEGGER/SEGGER_SYSVIEW.c ****   SEGGER_SYSVIEW_ON_EVENT_RECORDED(pEndPacket - pStartPacket);
 824:Middlewares/Third_Party/SystemView/SEGGER/SEGGER_SYSVIEW.c ****   if (Status) {
 825:Middlewares/Third_Party/SystemView/SEGGER/SEGGER_SYSVIEW.c ****     _SYSVIEW_Globals.LastTxTimeStamp = TimeStamp;
 826:Middlewares/Third_Party/SystemView/SEGGER/SEGGER_SYSVIEW.c ****   } else {
 827:Middlewares/Third_Party/SystemView/SEGGER/SEGGER_SYSVIEW.c ****     _SYSVIEW_Globals.EnableState++; // EnableState has been 1, will be 2. Always.
 828:Middlewares/Third_Party/SystemView/SEGGER/SEGGER_SYSVIEW.c ****   }
 829:Middlewares/Third_Party/SystemView/SEGGER/SEGGER_SYSVIEW.c **** #endif
 830:Middlewares/Third_Party/SystemView/SEGGER/SEGGER_SYSVIEW.c **** 
 831:Middlewares/Third_Party/SystemView/SEGGER/SEGGER_SYSVIEW.c **** #if (SEGGER_SYSVIEW_POST_MORTEM_MODE == 1)
 832:Middlewares/Third_Party/SystemView/SEGGER/SEGGER_SYSVIEW.c ****   //
 833:Middlewares/Third_Party/SystemView/SEGGER/SEGGER_SYSVIEW.c ****   // Add sync and system information periodically if we are in post mortem mode
 834:Middlewares/Third_Party/SystemView/SEGGER/SEGGER_SYSVIEW.c ****   //
 835:Middlewares/Third_Party/SystemView/SEGGER/SEGGER_SYSVIEW.c ****   if (_SYSVIEW_Globals.RecursionCnt == 0) {   // Avoid uncontrolled nesting. This way, this routine
 836:Middlewares/Third_Party/SystemView/SEGGER/SEGGER_SYSVIEW.c ****     _SYSVIEW_Globals.RecursionCnt = 1;
 837:Middlewares/Third_Party/SystemView/SEGGER/SEGGER_SYSVIEW.c ****     if (_SYSVIEW_Globals.PacketCount++ & (1 << SEGGER_SYSVIEW_SYNC_PERIOD_SHIFT)) {
 838:Middlewares/Third_Party/SystemView/SEGGER/SEGGER_SYSVIEW.c ****       _SendSyncInfo();
 839:Middlewares/Third_Party/SystemView/SEGGER/SEGGER_SYSVIEW.c ****       _SYSVIEW_Globals.PacketCount = 0;
 840:Middlewares/Third_Party/SystemView/SEGGER/SEGGER_SYSVIEW.c ****     }
 841:Middlewares/Third_Party/SystemView/SEGGER/SEGGER_SYSVIEW.c ****     _SYSVIEW_Globals.RecursionCnt = 0;
 842:Middlewares/Third_Party/SystemView/SEGGER/SEGGER_SYSVIEW.c ****   }
 843:Middlewares/Third_Party/SystemView/SEGGER/SEGGER_SYSVIEW.c **** SendDone:
 844:Middlewares/Third_Party/SystemView/SEGGER/SEGGER_SYSVIEW.c ****   ; // Avoid "label at end of compound statement" error when using static buffer
 845:Middlewares/Third_Party/SystemView/SEGGER/SEGGER_SYSVIEW.c **** #else
 846:Middlewares/Third_Party/SystemView/SEGGER/SEGGER_SYSVIEW.c **** SendDone:
 847:Middlewares/Third_Party/SystemView/SEGGER/SEGGER_SYSVIEW.c ****   //
 848:Middlewares/Third_Party/SystemView/SEGGER/SEGGER_SYSVIEW.c ****   // Check if host is sending data which needs to be processed.
 849:Middlewares/Third_Party/SystemView/SEGGER/SEGGER_SYSVIEW.c ****   // Note that since this code is called for every packet, it is very time critical, so we do
 850:Middlewares/Third_Party/SystemView/SEGGER/SEGGER_SYSVIEW.c ****   // only what is really needed here, which is checking if there is any data
 851:Middlewares/Third_Party/SystemView/SEGGER/SEGGER_SYSVIEW.c ****   //
ARM GAS  C:\Users\KETEN_~1\AppData\Local\Temp\cck9qv27.s 			page 24


 852:Middlewares/Third_Party/SystemView/SEGGER/SEGGER_SYSVIEW.c ****   if (SEGGER_RTT_HASDATA(CHANNEL_ID_DOWN)) {
 853:Middlewares/Third_Party/SystemView/SEGGER/SEGGER_SYSVIEW.c ****     if (_SYSVIEW_Globals.RecursionCnt == 0) {   // Avoid uncontrolled nesting. This way, this routi
 854:Middlewares/Third_Party/SystemView/SEGGER/SEGGER_SYSVIEW.c ****       _SYSVIEW_Globals.RecursionCnt = 1;
 855:Middlewares/Third_Party/SystemView/SEGGER/SEGGER_SYSVIEW.c ****       _HandleIncomingPacket();
 856:Middlewares/Third_Party/SystemView/SEGGER/SEGGER_SYSVIEW.c ****       _SYSVIEW_Globals.RecursionCnt = 0;
 857:Middlewares/Third_Party/SystemView/SEGGER/SEGGER_SYSVIEW.c ****     }
 858:Middlewares/Third_Party/SystemView/SEGGER/SEGGER_SYSVIEW.c ****   }
 859:Middlewares/Third_Party/SystemView/SEGGER/SEGGER_SYSVIEW.c **** #endif
 860:Middlewares/Third_Party/SystemView/SEGGER/SEGGER_SYSVIEW.c ****   //
 861:Middlewares/Third_Party/SystemView/SEGGER/SEGGER_SYSVIEW.c **** #if (SEGGER_SYSVIEW_USE_STATIC_BUFFER == 0)
 862:Middlewares/Third_Party/SystemView/SEGGER/SEGGER_SYSVIEW.c ****   SEGGER_SYSVIEW_UNLOCK();  // We are done. Unlock and return
 863:Middlewares/Third_Party/SystemView/SEGGER/SEGGER_SYSVIEW.c **** #endif
 864:Middlewares/Third_Party/SystemView/SEGGER/SEGGER_SYSVIEW.c **** }
 865:Middlewares/Third_Party/SystemView/SEGGER/SEGGER_SYSVIEW.c **** 
 866:Middlewares/Third_Party/SystemView/SEGGER/SEGGER_SYSVIEW.c **** #ifndef SEGGER_SYSVIEW_EXCLUDE_PRINTF // Define in project to avoid warnings about variable paramet
 867:Middlewares/Third_Party/SystemView/SEGGER/SEGGER_SYSVIEW.c **** /*********************************************************************
 868:Middlewares/Third_Party/SystemView/SEGGER/SEGGER_SYSVIEW.c **** *
 869:Middlewares/Third_Party/SystemView/SEGGER/SEGGER_SYSVIEW.c **** *       _VPrintHost()
 870:Middlewares/Third_Party/SystemView/SEGGER/SEGGER_SYSVIEW.c **** *
 871:Middlewares/Third_Party/SystemView/SEGGER/SEGGER_SYSVIEW.c **** *  Function description
 872:Middlewares/Third_Party/SystemView/SEGGER/SEGGER_SYSVIEW.c **** *    Send a format string and its parameters to the host.
 873:Middlewares/Third_Party/SystemView/SEGGER/SEGGER_SYSVIEW.c **** *
 874:Middlewares/Third_Party/SystemView/SEGGER/SEGGER_SYSVIEW.c **** *  Parameters
 875:Middlewares/Third_Party/SystemView/SEGGER/SEGGER_SYSVIEW.c **** *    s            Pointer to format string.
 876:Middlewares/Third_Party/SystemView/SEGGER/SEGGER_SYSVIEW.c **** *    Options      Options to be sent to the host.
 877:Middlewares/Third_Party/SystemView/SEGGER/SEGGER_SYSVIEW.c **** *    pParamList   Pointer to the list of arguments for the format string.
 878:Middlewares/Third_Party/SystemView/SEGGER/SEGGER_SYSVIEW.c **** */
 879:Middlewares/Third_Party/SystemView/SEGGER/SEGGER_SYSVIEW.c **** static int _VPrintHost(const char* s, U32 Options, va_list* pParamList) {
 880:Middlewares/Third_Party/SystemView/SEGGER/SEGGER_SYSVIEW.c ****   U32         aParas[SEGGER_SYSVIEW_MAX_ARGUMENTS];
 881:Middlewares/Third_Party/SystemView/SEGGER/SEGGER_SYSVIEW.c ****   U32*        pParas;
 882:Middlewares/Third_Party/SystemView/SEGGER/SEGGER_SYSVIEW.c ****   U32         NumArguments;
 883:Middlewares/Third_Party/SystemView/SEGGER/SEGGER_SYSVIEW.c ****   const char* p;
 884:Middlewares/Third_Party/SystemView/SEGGER/SEGGER_SYSVIEW.c ****   char        c;
 885:Middlewares/Third_Party/SystemView/SEGGER/SEGGER_SYSVIEW.c ****   U8*         pPayload;
 886:Middlewares/Third_Party/SystemView/SEGGER/SEGGER_SYSVIEW.c ****   U8*         pPayloadStart;
 887:Middlewares/Third_Party/SystemView/SEGGER/SEGGER_SYSVIEW.c **** #if SEGGER_SYSVIEW_PRINTF_IMPLICIT_FORMAT
 888:Middlewares/Third_Party/SystemView/SEGGER/SEGGER_SYSVIEW.c ****   U8 HasNonScalar;
 889:Middlewares/Third_Party/SystemView/SEGGER/SEGGER_SYSVIEW.c ****   
 890:Middlewares/Third_Party/SystemView/SEGGER/SEGGER_SYSVIEW.c ****   HasNonScalar = 0;
 891:Middlewares/Third_Party/SystemView/SEGGER/SEGGER_SYSVIEW.c **** #endif  
 892:Middlewares/Third_Party/SystemView/SEGGER/SEGGER_SYSVIEW.c ****   //
 893:Middlewares/Third_Party/SystemView/SEGGER/SEGGER_SYSVIEW.c ****   // Count number of arguments by counting '%' characters in string.
 894:Middlewares/Third_Party/SystemView/SEGGER/SEGGER_SYSVIEW.c ****   // If enabled, check for non-scalar modifier flags to format string on the target.
 895:Middlewares/Third_Party/SystemView/SEGGER/SEGGER_SYSVIEW.c ****   //
 896:Middlewares/Third_Party/SystemView/SEGGER/SEGGER_SYSVIEW.c ****   p = s;
 897:Middlewares/Third_Party/SystemView/SEGGER/SEGGER_SYSVIEW.c ****   NumArguments = 0;
 898:Middlewares/Third_Party/SystemView/SEGGER/SEGGER_SYSVIEW.c ****   for (;;) {
 899:Middlewares/Third_Party/SystemView/SEGGER/SEGGER_SYSVIEW.c ****     c = *p++;
 900:Middlewares/Third_Party/SystemView/SEGGER/SEGGER_SYSVIEW.c ****     if (c == 0) {
 901:Middlewares/Third_Party/SystemView/SEGGER/SEGGER_SYSVIEW.c ****       break;
 902:Middlewares/Third_Party/SystemView/SEGGER/SEGGER_SYSVIEW.c ****     }
 903:Middlewares/Third_Party/SystemView/SEGGER/SEGGER_SYSVIEW.c ****     if (c == '%') {
 904:Middlewares/Third_Party/SystemView/SEGGER/SEGGER_SYSVIEW.c ****       c = *p;
 905:Middlewares/Third_Party/SystemView/SEGGER/SEGGER_SYSVIEW.c **** #if SEGGER_SYSVIEW_PRINTF_IMPLICIT_FORMAT == 0
 906:Middlewares/Third_Party/SystemView/SEGGER/SEGGER_SYSVIEW.c ****       aParas[NumArguments++] = va_arg(*pParamList, int);
 907:Middlewares/Third_Party/SystemView/SEGGER/SEGGER_SYSVIEW.c ****       if (NumArguments == SEGGER_SYSVIEW_MAX_ARGUMENTS) {
 908:Middlewares/Third_Party/SystemView/SEGGER/SEGGER_SYSVIEW.c ****         break;
ARM GAS  C:\Users\KETEN_~1\AppData\Local\Temp\cck9qv27.s 			page 25


 909:Middlewares/Third_Party/SystemView/SEGGER/SEGGER_SYSVIEW.c ****       }
 910:Middlewares/Third_Party/SystemView/SEGGER/SEGGER_SYSVIEW.c **** #else
 911:Middlewares/Third_Party/SystemView/SEGGER/SEGGER_SYSVIEW.c ****       if (c == 's') {
 912:Middlewares/Third_Party/SystemView/SEGGER/SEGGER_SYSVIEW.c ****         HasNonScalar = 1;
 913:Middlewares/Third_Party/SystemView/SEGGER/SEGGER_SYSVIEW.c ****         break;
 914:Middlewares/Third_Party/SystemView/SEGGER/SEGGER_SYSVIEW.c ****       } else {
 915:Middlewares/Third_Party/SystemView/SEGGER/SEGGER_SYSVIEW.c ****         aParas[NumArguments++] = va_arg(*pParamList, int);
 916:Middlewares/Third_Party/SystemView/SEGGER/SEGGER_SYSVIEW.c ****         if (NumArguments == SEGGER_SYSVIEW_MAX_ARGUMENTS) {
 917:Middlewares/Third_Party/SystemView/SEGGER/SEGGER_SYSVIEW.c ****           break;
 918:Middlewares/Third_Party/SystemView/SEGGER/SEGGER_SYSVIEW.c ****         }
 919:Middlewares/Third_Party/SystemView/SEGGER/SEGGER_SYSVIEW.c ****       }
 920:Middlewares/Third_Party/SystemView/SEGGER/SEGGER_SYSVIEW.c **** #endif
 921:Middlewares/Third_Party/SystemView/SEGGER/SEGGER_SYSVIEW.c ****     }
 922:Middlewares/Third_Party/SystemView/SEGGER/SEGGER_SYSVIEW.c ****   }
 923:Middlewares/Third_Party/SystemView/SEGGER/SEGGER_SYSVIEW.c **** 
 924:Middlewares/Third_Party/SystemView/SEGGER/SEGGER_SYSVIEW.c **** #if SEGGER_SYSVIEW_PRINTF_IMPLICIT_FORMAT
 925:Middlewares/Third_Party/SystemView/SEGGER/SEGGER_SYSVIEW.c ****   if (HasNonScalar) {
 926:Middlewares/Third_Party/SystemView/SEGGER/SEGGER_SYSVIEW.c ****     return -1;
 927:Middlewares/Third_Party/SystemView/SEGGER/SEGGER_SYSVIEW.c ****   }
 928:Middlewares/Third_Party/SystemView/SEGGER/SEGGER_SYSVIEW.c **** #endif
 929:Middlewares/Third_Party/SystemView/SEGGER/SEGGER_SYSVIEW.c ****   //
 930:Middlewares/Third_Party/SystemView/SEGGER/SEGGER_SYSVIEW.c ****   // Send string and parameters to host
 931:Middlewares/Third_Party/SystemView/SEGGER/SEGGER_SYSVIEW.c ****   //
 932:Middlewares/Third_Party/SystemView/SEGGER/SEGGER_SYSVIEW.c ****   {
 933:Middlewares/Third_Party/SystemView/SEGGER/SEGGER_SYSVIEW.c ****     RECORD_START(SEGGER_SYSVIEW_INFO_SIZE + SEGGER_SYSVIEW_MAX_STRING_LEN + 2 * SEGGER_SYSVIEW_QUAN
 934:Middlewares/Third_Party/SystemView/SEGGER/SEGGER_SYSVIEW.c ****     pPayload = _EncodeStr(pPayloadStart, s, SEGGER_SYSVIEW_MAX_STRING_LEN);
 935:Middlewares/Third_Party/SystemView/SEGGER/SEGGER_SYSVIEW.c ****     ENCODE_U32(pPayload, Options);
 936:Middlewares/Third_Party/SystemView/SEGGER/SEGGER_SYSVIEW.c ****     ENCODE_U32(pPayload, NumArguments);
 937:Middlewares/Third_Party/SystemView/SEGGER/SEGGER_SYSVIEW.c ****     pParas = aParas;
 938:Middlewares/Third_Party/SystemView/SEGGER/SEGGER_SYSVIEW.c ****     while (NumArguments--) {
 939:Middlewares/Third_Party/SystemView/SEGGER/SEGGER_SYSVIEW.c ****       ENCODE_U32(pPayload, (*pParas));
 940:Middlewares/Third_Party/SystemView/SEGGER/SEGGER_SYSVIEW.c ****       pParas++;
 941:Middlewares/Third_Party/SystemView/SEGGER/SEGGER_SYSVIEW.c ****     }
 942:Middlewares/Third_Party/SystemView/SEGGER/SEGGER_SYSVIEW.c ****     _SendPacket(pPayloadStart, pPayload, SYSVIEW_EVTID_PRINT_FORMATTED);
 943:Middlewares/Third_Party/SystemView/SEGGER/SEGGER_SYSVIEW.c ****     RECORD_END();
 944:Middlewares/Third_Party/SystemView/SEGGER/SEGGER_SYSVIEW.c ****   }
 945:Middlewares/Third_Party/SystemView/SEGGER/SEGGER_SYSVIEW.c ****   return 0;
 946:Middlewares/Third_Party/SystemView/SEGGER/SEGGER_SYSVIEW.c **** }
 947:Middlewares/Third_Party/SystemView/SEGGER/SEGGER_SYSVIEW.c **** 
 948:Middlewares/Third_Party/SystemView/SEGGER/SEGGER_SYSVIEW.c **** /*********************************************************************
 949:Middlewares/Third_Party/SystemView/SEGGER/SEGGER_SYSVIEW.c **** *
 950:Middlewares/Third_Party/SystemView/SEGGER/SEGGER_SYSVIEW.c **** *       _StoreChar()
 951:Middlewares/Third_Party/SystemView/SEGGER/SEGGER_SYSVIEW.c **** *
 952:Middlewares/Third_Party/SystemView/SEGGER/SEGGER_SYSVIEW.c **** *  Function description
 953:Middlewares/Third_Party/SystemView/SEGGER/SEGGER_SYSVIEW.c **** *    Stores a character in the printf-buffer and sends the buffer when
 954:Middlewares/Third_Party/SystemView/SEGGER/SEGGER_SYSVIEW.c **** *     it is filled.
 955:Middlewares/Third_Party/SystemView/SEGGER/SEGGER_SYSVIEW.c **** *
 956:Middlewares/Third_Party/SystemView/SEGGER/SEGGER_SYSVIEW.c **** *  Parameters
 957:Middlewares/Third_Party/SystemView/SEGGER/SEGGER_SYSVIEW.c **** *    p            Pointer to the buffer description.
 958:Middlewares/Third_Party/SystemView/SEGGER/SEGGER_SYSVIEW.c **** *    c            Character to be printed.
 959:Middlewares/Third_Party/SystemView/SEGGER/SEGGER_SYSVIEW.c **** */
 960:Middlewares/Third_Party/SystemView/SEGGER/SEGGER_SYSVIEW.c **** static void _StoreChar(SEGGER_SYSVIEW_PRINTF_DESC * p, char c) {
 961:Middlewares/Third_Party/SystemView/SEGGER/SEGGER_SYSVIEW.c ****   unsigned int  Cnt;
 962:Middlewares/Third_Party/SystemView/SEGGER/SEGGER_SYSVIEW.c ****   U8*           pPayload;
 963:Middlewares/Third_Party/SystemView/SEGGER/SEGGER_SYSVIEW.c ****   U32           Options;
 964:Middlewares/Third_Party/SystemView/SEGGER/SEGGER_SYSVIEW.c **** 
 965:Middlewares/Third_Party/SystemView/SEGGER/SEGGER_SYSVIEW.c ****   Cnt = p->Cnt;
ARM GAS  C:\Users\KETEN_~1\AppData\Local\Temp\cck9qv27.s 			page 26


 966:Middlewares/Third_Party/SystemView/SEGGER/SEGGER_SYSVIEW.c ****   if ((Cnt + 1u) <= SEGGER_SYSVIEW_MAX_STRING_LEN) {
 967:Middlewares/Third_Party/SystemView/SEGGER/SEGGER_SYSVIEW.c ****     *(p->pPayload++) = c;
 968:Middlewares/Third_Party/SystemView/SEGGER/SEGGER_SYSVIEW.c ****     p->Cnt = Cnt + 1u;
 969:Middlewares/Third_Party/SystemView/SEGGER/SEGGER_SYSVIEW.c ****   }
 970:Middlewares/Third_Party/SystemView/SEGGER/SEGGER_SYSVIEW.c ****   //
 971:Middlewares/Third_Party/SystemView/SEGGER/SEGGER_SYSVIEW.c ****   // Write part of string, when the buffer is full
 972:Middlewares/Third_Party/SystemView/SEGGER/SEGGER_SYSVIEW.c ****   //
 973:Middlewares/Third_Party/SystemView/SEGGER/SEGGER_SYSVIEW.c ****   if (p->Cnt == SEGGER_SYSVIEW_MAX_STRING_LEN) {
 974:Middlewares/Third_Party/SystemView/SEGGER/SEGGER_SYSVIEW.c ****     *(p->pPayloadStart) = p->Cnt;
 975:Middlewares/Third_Party/SystemView/SEGGER/SEGGER_SYSVIEW.c ****     pPayload = p->pPayload;
 976:Middlewares/Third_Party/SystemView/SEGGER/SEGGER_SYSVIEW.c ****     Options = p->Options;
 977:Middlewares/Third_Party/SystemView/SEGGER/SEGGER_SYSVIEW.c ****     ENCODE_U32(pPayload, Options);
 978:Middlewares/Third_Party/SystemView/SEGGER/SEGGER_SYSVIEW.c ****     ENCODE_U32(pPayload, 0);
 979:Middlewares/Third_Party/SystemView/SEGGER/SEGGER_SYSVIEW.c ****     _SendPacket(p->pPayloadStart, pPayload, SYSVIEW_EVTID_PRINT_FORMATTED);
 980:Middlewares/Third_Party/SystemView/SEGGER/SEGGER_SYSVIEW.c ****     p->pPayloadStart = _PreparePacket(p->pBuffer);
 981:Middlewares/Third_Party/SystemView/SEGGER/SEGGER_SYSVIEW.c ****     p->pPayload = p->pPayloadStart + 1u;
 982:Middlewares/Third_Party/SystemView/SEGGER/SEGGER_SYSVIEW.c ****     p->Cnt = 0u;
 983:Middlewares/Third_Party/SystemView/SEGGER/SEGGER_SYSVIEW.c ****   }
 984:Middlewares/Third_Party/SystemView/SEGGER/SEGGER_SYSVIEW.c **** }
 985:Middlewares/Third_Party/SystemView/SEGGER/SEGGER_SYSVIEW.c **** 
 986:Middlewares/Third_Party/SystemView/SEGGER/SEGGER_SYSVIEW.c **** /*********************************************************************
 987:Middlewares/Third_Party/SystemView/SEGGER/SEGGER_SYSVIEW.c **** *
 988:Middlewares/Third_Party/SystemView/SEGGER/SEGGER_SYSVIEW.c **** *       _PrintUnsigned()
 989:Middlewares/Third_Party/SystemView/SEGGER/SEGGER_SYSVIEW.c **** *
 990:Middlewares/Third_Party/SystemView/SEGGER/SEGGER_SYSVIEW.c **** *  Function description
 991:Middlewares/Third_Party/SystemView/SEGGER/SEGGER_SYSVIEW.c **** *    Print an unsigned integer with the given formatting into the 
 992:Middlewares/Third_Party/SystemView/SEGGER/SEGGER_SYSVIEW.c **** *     formatted string.
 993:Middlewares/Third_Party/SystemView/SEGGER/SEGGER_SYSVIEW.c **** *
 994:Middlewares/Third_Party/SystemView/SEGGER/SEGGER_SYSVIEW.c **** *  Parameters
 995:Middlewares/Third_Party/SystemView/SEGGER/SEGGER_SYSVIEW.c **** *    pBufferDesc  Pointer to the buffer description.
 996:Middlewares/Third_Party/SystemView/SEGGER/SEGGER_SYSVIEW.c **** *    v            Value to be printed.
 997:Middlewares/Third_Party/SystemView/SEGGER/SEGGER_SYSVIEW.c **** *    Base         Base of the value.
 998:Middlewares/Third_Party/SystemView/SEGGER/SEGGER_SYSVIEW.c **** *    NumDigits    Number of digits to be printed.
 999:Middlewares/Third_Party/SystemView/SEGGER/SEGGER_SYSVIEW.c **** *    FieldWidth   Width of the printed field.
1000:Middlewares/Third_Party/SystemView/SEGGER/SEGGER_SYSVIEW.c **** *    FormatFlags  Flags for formatting the value.
1001:Middlewares/Third_Party/SystemView/SEGGER/SEGGER_SYSVIEW.c **** */
1002:Middlewares/Third_Party/SystemView/SEGGER/SEGGER_SYSVIEW.c **** static void _PrintUnsigned(SEGGER_SYSVIEW_PRINTF_DESC * pBufferDesc, unsigned int v, unsigned int B
1003:Middlewares/Third_Party/SystemView/SEGGER/SEGGER_SYSVIEW.c ****   static const char _aV2C[16] = {'0', '1', '2', '3', '4', '5', '6', '7', '8', '9', 'A', 'B', 'C', '
1004:Middlewares/Third_Party/SystemView/SEGGER/SEGGER_SYSVIEW.c ****   unsigned int      Div;
1005:Middlewares/Third_Party/SystemView/SEGGER/SEGGER_SYSVIEW.c ****   unsigned int      Digit;
1006:Middlewares/Third_Party/SystemView/SEGGER/SEGGER_SYSVIEW.c ****   unsigned int      Number;
1007:Middlewares/Third_Party/SystemView/SEGGER/SEGGER_SYSVIEW.c ****   unsigned int      Width;
1008:Middlewares/Third_Party/SystemView/SEGGER/SEGGER_SYSVIEW.c ****   char              c;
1009:Middlewares/Third_Party/SystemView/SEGGER/SEGGER_SYSVIEW.c **** 
1010:Middlewares/Third_Party/SystemView/SEGGER/SEGGER_SYSVIEW.c ****   Number = v;
1011:Middlewares/Third_Party/SystemView/SEGGER/SEGGER_SYSVIEW.c ****   Digit = 1u;
1012:Middlewares/Third_Party/SystemView/SEGGER/SEGGER_SYSVIEW.c ****   //
1013:Middlewares/Third_Party/SystemView/SEGGER/SEGGER_SYSVIEW.c ****   // Get actual field width
1014:Middlewares/Third_Party/SystemView/SEGGER/SEGGER_SYSVIEW.c ****   //
1015:Middlewares/Third_Party/SystemView/SEGGER/SEGGER_SYSVIEW.c ****   Width = 1u;
1016:Middlewares/Third_Party/SystemView/SEGGER/SEGGER_SYSVIEW.c ****   while (Number >= Base) {
1017:Middlewares/Third_Party/SystemView/SEGGER/SEGGER_SYSVIEW.c ****     Number = (Number / Base);
1018:Middlewares/Third_Party/SystemView/SEGGER/SEGGER_SYSVIEW.c ****     Width++;
1019:Middlewares/Third_Party/SystemView/SEGGER/SEGGER_SYSVIEW.c ****   }
1020:Middlewares/Third_Party/SystemView/SEGGER/SEGGER_SYSVIEW.c ****   if (NumDigits > Width) {
1021:Middlewares/Third_Party/SystemView/SEGGER/SEGGER_SYSVIEW.c ****     Width = NumDigits;
1022:Middlewares/Third_Party/SystemView/SEGGER/SEGGER_SYSVIEW.c ****   }
ARM GAS  C:\Users\KETEN_~1\AppData\Local\Temp\cck9qv27.s 			page 27


1023:Middlewares/Third_Party/SystemView/SEGGER/SEGGER_SYSVIEW.c ****   //
1024:Middlewares/Third_Party/SystemView/SEGGER/SEGGER_SYSVIEW.c ****   // Print leading chars if necessary
1025:Middlewares/Third_Party/SystemView/SEGGER/SEGGER_SYSVIEW.c ****   //
1026:Middlewares/Third_Party/SystemView/SEGGER/SEGGER_SYSVIEW.c ****   if ((FormatFlags & FORMAT_FLAG_LEFT_JUSTIFY) == 0u) {
1027:Middlewares/Third_Party/SystemView/SEGGER/SEGGER_SYSVIEW.c ****     if (FieldWidth != 0u) {
1028:Middlewares/Third_Party/SystemView/SEGGER/SEGGER_SYSVIEW.c ****       if (((FormatFlags & FORMAT_FLAG_PAD_ZERO) == FORMAT_FLAG_PAD_ZERO) && (NumDigits == 0u)) {
1029:Middlewares/Third_Party/SystemView/SEGGER/SEGGER_SYSVIEW.c ****         c = '0';
1030:Middlewares/Third_Party/SystemView/SEGGER/SEGGER_SYSVIEW.c ****       } else {
1031:Middlewares/Third_Party/SystemView/SEGGER/SEGGER_SYSVIEW.c ****         c = ' ';
1032:Middlewares/Third_Party/SystemView/SEGGER/SEGGER_SYSVIEW.c ****       }
1033:Middlewares/Third_Party/SystemView/SEGGER/SEGGER_SYSVIEW.c ****       while ((FieldWidth != 0u) && (Width < FieldWidth)) {
1034:Middlewares/Third_Party/SystemView/SEGGER/SEGGER_SYSVIEW.c ****         FieldWidth--;
1035:Middlewares/Third_Party/SystemView/SEGGER/SEGGER_SYSVIEW.c ****         _StoreChar(pBufferDesc, c);
1036:Middlewares/Third_Party/SystemView/SEGGER/SEGGER_SYSVIEW.c ****       }
1037:Middlewares/Third_Party/SystemView/SEGGER/SEGGER_SYSVIEW.c ****     }
1038:Middlewares/Third_Party/SystemView/SEGGER/SEGGER_SYSVIEW.c ****   }
1039:Middlewares/Third_Party/SystemView/SEGGER/SEGGER_SYSVIEW.c ****   //
1040:Middlewares/Third_Party/SystemView/SEGGER/SEGGER_SYSVIEW.c ****   // Compute Digit.
1041:Middlewares/Third_Party/SystemView/SEGGER/SEGGER_SYSVIEW.c ****   // Loop until Digit has the value of the highest digit required.
1042:Middlewares/Third_Party/SystemView/SEGGER/SEGGER_SYSVIEW.c ****   // Example: If the output is 345 (Base 10), loop 2 times until Digit is 100.
1043:Middlewares/Third_Party/SystemView/SEGGER/SEGGER_SYSVIEW.c ****   //
1044:Middlewares/Third_Party/SystemView/SEGGER/SEGGER_SYSVIEW.c ****   while (1) {
1045:Middlewares/Third_Party/SystemView/SEGGER/SEGGER_SYSVIEW.c ****     if (NumDigits > 1u) {       // User specified a min number of digits to print? => Make sure we 
1046:Middlewares/Third_Party/SystemView/SEGGER/SEGGER_SYSVIEW.c ****       NumDigits--;
1047:Middlewares/Third_Party/SystemView/SEGGER/SEGGER_SYSVIEW.c ****     } else {
1048:Middlewares/Third_Party/SystemView/SEGGER/SEGGER_SYSVIEW.c ****       Div = v / Digit;
1049:Middlewares/Third_Party/SystemView/SEGGER/SEGGER_SYSVIEW.c ****       if (Div < Base) {        // Is our divider big enough to extract the highest digit from value
1050:Middlewares/Third_Party/SystemView/SEGGER/SEGGER_SYSVIEW.c ****         break;
1051:Middlewares/Third_Party/SystemView/SEGGER/SEGGER_SYSVIEW.c ****       }
1052:Middlewares/Third_Party/SystemView/SEGGER/SEGGER_SYSVIEW.c ****     }
1053:Middlewares/Third_Party/SystemView/SEGGER/SEGGER_SYSVIEW.c ****     Digit *= Base;
1054:Middlewares/Third_Party/SystemView/SEGGER/SEGGER_SYSVIEW.c ****   }
1055:Middlewares/Third_Party/SystemView/SEGGER/SEGGER_SYSVIEW.c ****   //
1056:Middlewares/Third_Party/SystemView/SEGGER/SEGGER_SYSVIEW.c ****   // Output digits
1057:Middlewares/Third_Party/SystemView/SEGGER/SEGGER_SYSVIEW.c ****   //
1058:Middlewares/Third_Party/SystemView/SEGGER/SEGGER_SYSVIEW.c ****   do {
1059:Middlewares/Third_Party/SystemView/SEGGER/SEGGER_SYSVIEW.c ****     Div = v / Digit;
1060:Middlewares/Third_Party/SystemView/SEGGER/SEGGER_SYSVIEW.c ****     v -= Div * Digit;
1061:Middlewares/Third_Party/SystemView/SEGGER/SEGGER_SYSVIEW.c ****     _StoreChar(pBufferDesc, _aV2C[Div]);
1062:Middlewares/Third_Party/SystemView/SEGGER/SEGGER_SYSVIEW.c ****     Digit /= Base;
1063:Middlewares/Third_Party/SystemView/SEGGER/SEGGER_SYSVIEW.c ****   } while (Digit);
1064:Middlewares/Third_Party/SystemView/SEGGER/SEGGER_SYSVIEW.c ****   //
1065:Middlewares/Third_Party/SystemView/SEGGER/SEGGER_SYSVIEW.c ****   // Print trailing spaces if necessary
1066:Middlewares/Third_Party/SystemView/SEGGER/SEGGER_SYSVIEW.c ****   //
1067:Middlewares/Third_Party/SystemView/SEGGER/SEGGER_SYSVIEW.c ****   if ((FormatFlags & FORMAT_FLAG_LEFT_JUSTIFY) == FORMAT_FLAG_LEFT_JUSTIFY) {
1068:Middlewares/Third_Party/SystemView/SEGGER/SEGGER_SYSVIEW.c ****     if (FieldWidth != 0u) {
1069:Middlewares/Third_Party/SystemView/SEGGER/SEGGER_SYSVIEW.c ****       while ((FieldWidth != 0u) && (Width < FieldWidth)) {
1070:Middlewares/Third_Party/SystemView/SEGGER/SEGGER_SYSVIEW.c ****         FieldWidth--;
1071:Middlewares/Third_Party/SystemView/SEGGER/SEGGER_SYSVIEW.c ****         _StoreChar(pBufferDesc, ' ');
1072:Middlewares/Third_Party/SystemView/SEGGER/SEGGER_SYSVIEW.c ****       }
1073:Middlewares/Third_Party/SystemView/SEGGER/SEGGER_SYSVIEW.c ****     }
1074:Middlewares/Third_Party/SystemView/SEGGER/SEGGER_SYSVIEW.c ****   }
1075:Middlewares/Third_Party/SystemView/SEGGER/SEGGER_SYSVIEW.c **** }
1076:Middlewares/Third_Party/SystemView/SEGGER/SEGGER_SYSVIEW.c **** 
1077:Middlewares/Third_Party/SystemView/SEGGER/SEGGER_SYSVIEW.c **** /*********************************************************************
1078:Middlewares/Third_Party/SystemView/SEGGER/SEGGER_SYSVIEW.c **** *
1079:Middlewares/Third_Party/SystemView/SEGGER/SEGGER_SYSVIEW.c **** *       _PrintInt()
ARM GAS  C:\Users\KETEN_~1\AppData\Local\Temp\cck9qv27.s 			page 28


1080:Middlewares/Third_Party/SystemView/SEGGER/SEGGER_SYSVIEW.c **** *
1081:Middlewares/Third_Party/SystemView/SEGGER/SEGGER_SYSVIEW.c **** *  Function description
1082:Middlewares/Third_Party/SystemView/SEGGER/SEGGER_SYSVIEW.c **** *    Print a signed integer with the given formatting into the 
1083:Middlewares/Third_Party/SystemView/SEGGER/SEGGER_SYSVIEW.c **** *     formatted string.
1084:Middlewares/Third_Party/SystemView/SEGGER/SEGGER_SYSVIEW.c **** *
1085:Middlewares/Third_Party/SystemView/SEGGER/SEGGER_SYSVIEW.c **** *  Parameters
1086:Middlewares/Third_Party/SystemView/SEGGER/SEGGER_SYSVIEW.c **** *    pBufferDesc  Pointer to the buffer description.
1087:Middlewares/Third_Party/SystemView/SEGGER/SEGGER_SYSVIEW.c **** *    v            Value to be printed.
1088:Middlewares/Third_Party/SystemView/SEGGER/SEGGER_SYSVIEW.c **** *    Base         Base of the value.
1089:Middlewares/Third_Party/SystemView/SEGGER/SEGGER_SYSVIEW.c **** *    NumDigits    Number of digits to be printed.
1090:Middlewares/Third_Party/SystemView/SEGGER/SEGGER_SYSVIEW.c **** *    FieldWidth   Width of the printed field.
1091:Middlewares/Third_Party/SystemView/SEGGER/SEGGER_SYSVIEW.c **** *    FormatFlags  Flags for formatting the value.
1092:Middlewares/Third_Party/SystemView/SEGGER/SEGGER_SYSVIEW.c **** */
1093:Middlewares/Third_Party/SystemView/SEGGER/SEGGER_SYSVIEW.c **** static void _PrintInt(SEGGER_SYSVIEW_PRINTF_DESC * pBufferDesc, int v, unsigned int Base, unsigned 
1094:Middlewares/Third_Party/SystemView/SEGGER/SEGGER_SYSVIEW.c ****   unsigned int  Width;
1095:Middlewares/Third_Party/SystemView/SEGGER/SEGGER_SYSVIEW.c ****   int           Number;
1096:Middlewares/Third_Party/SystemView/SEGGER/SEGGER_SYSVIEW.c **** 
1097:Middlewares/Third_Party/SystemView/SEGGER/SEGGER_SYSVIEW.c ****   Number = (v < 0) ? -v : v;
1098:Middlewares/Third_Party/SystemView/SEGGER/SEGGER_SYSVIEW.c **** 
1099:Middlewares/Third_Party/SystemView/SEGGER/SEGGER_SYSVIEW.c ****   //
1100:Middlewares/Third_Party/SystemView/SEGGER/SEGGER_SYSVIEW.c ****   // Get actual field width
1101:Middlewares/Third_Party/SystemView/SEGGER/SEGGER_SYSVIEW.c ****   //
1102:Middlewares/Third_Party/SystemView/SEGGER/SEGGER_SYSVIEW.c ****   Width = 1u;
1103:Middlewares/Third_Party/SystemView/SEGGER/SEGGER_SYSVIEW.c ****   while (Number >= (int)Base) {
1104:Middlewares/Third_Party/SystemView/SEGGER/SEGGER_SYSVIEW.c ****     Number = (Number / (int)Base);
1105:Middlewares/Third_Party/SystemView/SEGGER/SEGGER_SYSVIEW.c ****     Width++;
1106:Middlewares/Third_Party/SystemView/SEGGER/SEGGER_SYSVIEW.c ****   }
1107:Middlewares/Third_Party/SystemView/SEGGER/SEGGER_SYSVIEW.c ****   if (NumDigits > Width) {
1108:Middlewares/Third_Party/SystemView/SEGGER/SEGGER_SYSVIEW.c ****     Width = NumDigits;
1109:Middlewares/Third_Party/SystemView/SEGGER/SEGGER_SYSVIEW.c ****   }
1110:Middlewares/Third_Party/SystemView/SEGGER/SEGGER_SYSVIEW.c ****   if ((FieldWidth > 0u) && ((v < 0) || ((FormatFlags & FORMAT_FLAG_PRINT_SIGN) == FORMAT_FLAG_PRINT
1111:Middlewares/Third_Party/SystemView/SEGGER/SEGGER_SYSVIEW.c ****     FieldWidth--;
1112:Middlewares/Third_Party/SystemView/SEGGER/SEGGER_SYSVIEW.c ****   }
1113:Middlewares/Third_Party/SystemView/SEGGER/SEGGER_SYSVIEW.c **** 
1114:Middlewares/Third_Party/SystemView/SEGGER/SEGGER_SYSVIEW.c ****   //
1115:Middlewares/Third_Party/SystemView/SEGGER/SEGGER_SYSVIEW.c ****   // Print leading spaces if necessary
1116:Middlewares/Third_Party/SystemView/SEGGER/SEGGER_SYSVIEW.c ****   //
1117:Middlewares/Third_Party/SystemView/SEGGER/SEGGER_SYSVIEW.c ****   if ((((FormatFlags & FORMAT_FLAG_PAD_ZERO) == 0u) || (NumDigits != 0u)) && ((FormatFlags & FORMAT
1118:Middlewares/Third_Party/SystemView/SEGGER/SEGGER_SYSVIEW.c ****     if (FieldWidth != 0u) {
1119:Middlewares/Third_Party/SystemView/SEGGER/SEGGER_SYSVIEW.c ****       while ((FieldWidth != 0u) && (Width < FieldWidth)) {
1120:Middlewares/Third_Party/SystemView/SEGGER/SEGGER_SYSVIEW.c ****         FieldWidth--;
1121:Middlewares/Third_Party/SystemView/SEGGER/SEGGER_SYSVIEW.c ****         _StoreChar(pBufferDesc, ' ');
1122:Middlewares/Third_Party/SystemView/SEGGER/SEGGER_SYSVIEW.c ****       }
1123:Middlewares/Third_Party/SystemView/SEGGER/SEGGER_SYSVIEW.c ****     }
1124:Middlewares/Third_Party/SystemView/SEGGER/SEGGER_SYSVIEW.c ****   }
1125:Middlewares/Third_Party/SystemView/SEGGER/SEGGER_SYSVIEW.c ****   //
1126:Middlewares/Third_Party/SystemView/SEGGER/SEGGER_SYSVIEW.c ****   // Print sign if necessary
1127:Middlewares/Third_Party/SystemView/SEGGER/SEGGER_SYSVIEW.c ****   //
1128:Middlewares/Third_Party/SystemView/SEGGER/SEGGER_SYSVIEW.c ****   if (v < 0) {
1129:Middlewares/Third_Party/SystemView/SEGGER/SEGGER_SYSVIEW.c ****     v = -v;
1130:Middlewares/Third_Party/SystemView/SEGGER/SEGGER_SYSVIEW.c ****     _StoreChar(pBufferDesc, '-');
1131:Middlewares/Third_Party/SystemView/SEGGER/SEGGER_SYSVIEW.c ****   } else if ((FormatFlags & FORMAT_FLAG_PRINT_SIGN) == FORMAT_FLAG_PRINT_SIGN) {
1132:Middlewares/Third_Party/SystemView/SEGGER/SEGGER_SYSVIEW.c ****     _StoreChar(pBufferDesc, '+');
1133:Middlewares/Third_Party/SystemView/SEGGER/SEGGER_SYSVIEW.c ****   } else {
1134:Middlewares/Third_Party/SystemView/SEGGER/SEGGER_SYSVIEW.c **** 
1135:Middlewares/Third_Party/SystemView/SEGGER/SEGGER_SYSVIEW.c ****   }
1136:Middlewares/Third_Party/SystemView/SEGGER/SEGGER_SYSVIEW.c ****   //
ARM GAS  C:\Users\KETEN_~1\AppData\Local\Temp\cck9qv27.s 			page 29


1137:Middlewares/Third_Party/SystemView/SEGGER/SEGGER_SYSVIEW.c ****   // Print leading zeros if necessary
1138:Middlewares/Third_Party/SystemView/SEGGER/SEGGER_SYSVIEW.c ****   //
1139:Middlewares/Third_Party/SystemView/SEGGER/SEGGER_SYSVIEW.c ****   if (((FormatFlags & FORMAT_FLAG_PAD_ZERO) == FORMAT_FLAG_PAD_ZERO) && ((FormatFlags & FORMAT_FLAG
1140:Middlewares/Third_Party/SystemView/SEGGER/SEGGER_SYSVIEW.c ****     if (FieldWidth != 0u) {
1141:Middlewares/Third_Party/SystemView/SEGGER/SEGGER_SYSVIEW.c ****       while ((FieldWidth != 0u) && (Width < FieldWidth)) {
1142:Middlewares/Third_Party/SystemView/SEGGER/SEGGER_SYSVIEW.c ****         FieldWidth--;
1143:Middlewares/Third_Party/SystemView/SEGGER/SEGGER_SYSVIEW.c ****         _StoreChar(pBufferDesc, '0');
1144:Middlewares/Third_Party/SystemView/SEGGER/SEGGER_SYSVIEW.c ****       }
1145:Middlewares/Third_Party/SystemView/SEGGER/SEGGER_SYSVIEW.c ****     }
1146:Middlewares/Third_Party/SystemView/SEGGER/SEGGER_SYSVIEW.c ****   }
1147:Middlewares/Third_Party/SystemView/SEGGER/SEGGER_SYSVIEW.c ****   //
1148:Middlewares/Third_Party/SystemView/SEGGER/SEGGER_SYSVIEW.c ****   // Print number without sign
1149:Middlewares/Third_Party/SystemView/SEGGER/SEGGER_SYSVIEW.c ****   //
1150:Middlewares/Third_Party/SystemView/SEGGER/SEGGER_SYSVIEW.c ****   _PrintUnsigned(pBufferDesc, (unsigned int)v, Base, NumDigits, FieldWidth, FormatFlags);
1151:Middlewares/Third_Party/SystemView/SEGGER/SEGGER_SYSVIEW.c **** }
1152:Middlewares/Third_Party/SystemView/SEGGER/SEGGER_SYSVIEW.c **** 
1153:Middlewares/Third_Party/SystemView/SEGGER/SEGGER_SYSVIEW.c **** /*********************************************************************
1154:Middlewares/Third_Party/SystemView/SEGGER/SEGGER_SYSVIEW.c **** *
1155:Middlewares/Third_Party/SystemView/SEGGER/SEGGER_SYSVIEW.c **** *       _VPrintTarget()
1156:Middlewares/Third_Party/SystemView/SEGGER/SEGGER_SYSVIEW.c **** *
1157:Middlewares/Third_Party/SystemView/SEGGER/SEGGER_SYSVIEW.c **** *  Function description
1158:Middlewares/Third_Party/SystemView/SEGGER/SEGGER_SYSVIEW.c **** *    Stores a formatted string.
1159:Middlewares/Third_Party/SystemView/SEGGER/SEGGER_SYSVIEW.c **** *    This data is read by the host.
1160:Middlewares/Third_Party/SystemView/SEGGER/SEGGER_SYSVIEW.c **** *
1161:Middlewares/Third_Party/SystemView/SEGGER/SEGGER_SYSVIEW.c **** *  Parameters
1162:Middlewares/Third_Party/SystemView/SEGGER/SEGGER_SYSVIEW.c **** *    sFormat      Pointer to format string.
1163:Middlewares/Third_Party/SystemView/SEGGER/SEGGER_SYSVIEW.c **** *    Options      Options to be sent to the host.
1164:Middlewares/Third_Party/SystemView/SEGGER/SEGGER_SYSVIEW.c **** *    pParamList   Pointer to the list of arguments for the format string.
1165:Middlewares/Third_Party/SystemView/SEGGER/SEGGER_SYSVIEW.c **** */
1166:Middlewares/Third_Party/SystemView/SEGGER/SEGGER_SYSVIEW.c **** static void _VPrintTarget(const char* sFormat, U32 Options, va_list* pParamList) {
1167:Middlewares/Third_Party/SystemView/SEGGER/SEGGER_SYSVIEW.c ****   SEGGER_SYSVIEW_PRINTF_DESC BufferDesc;
1168:Middlewares/Third_Party/SystemView/SEGGER/SEGGER_SYSVIEW.c ****   char          c;
1169:Middlewares/Third_Party/SystemView/SEGGER/SEGGER_SYSVIEW.c ****   int           v;
1170:Middlewares/Third_Party/SystemView/SEGGER/SEGGER_SYSVIEW.c ****   unsigned int  NumDigits;
1171:Middlewares/Third_Party/SystemView/SEGGER/SEGGER_SYSVIEW.c ****   unsigned int  FormatFlags;
1172:Middlewares/Third_Party/SystemView/SEGGER/SEGGER_SYSVIEW.c ****   unsigned int  FieldWidth;
1173:Middlewares/Third_Party/SystemView/SEGGER/SEGGER_SYSVIEW.c ****   U8*           pPayloadStart;
1174:Middlewares/Third_Party/SystemView/SEGGER/SEGGER_SYSVIEW.c **** #if SEGGER_SYSVIEW_USE_STATIC_BUFFER == 0
1175:Middlewares/Third_Party/SystemView/SEGGER/SEGGER_SYSVIEW.c ****   RECORD_START(SEGGER_SYSVIEW_INFO_SIZE + SEGGER_SYSVIEW_MAX_STRING_LEN + 1 + 2 * SEGGER_SYSVIEW_QU
1176:Middlewares/Third_Party/SystemView/SEGGER/SEGGER_SYSVIEW.c ****   SEGGER_SYSVIEW_LOCK();
1177:Middlewares/Third_Party/SystemView/SEGGER/SEGGER_SYSVIEW.c **** #else
1178:Middlewares/Third_Party/SystemView/SEGGER/SEGGER_SYSVIEW.c ****   RECORD_START(SEGGER_SYSVIEW_INFO_SIZE + SEGGER_SYSVIEW_MAX_STRING_LEN + 1 + 2 * SEGGER_SYSVIEW_QU
1179:Middlewares/Third_Party/SystemView/SEGGER/SEGGER_SYSVIEW.c **** #endif
1180:Middlewares/Third_Party/SystemView/SEGGER/SEGGER_SYSVIEW.c **** 
1181:Middlewares/Third_Party/SystemView/SEGGER/SEGGER_SYSVIEW.c **** #if SEGGER_SYSVIEW_USE_STATIC_BUFFER == 0
1182:Middlewares/Third_Party/SystemView/SEGGER/SEGGER_SYSVIEW.c ****   BufferDesc.pBuffer        = aPacket;
1183:Middlewares/Third_Party/SystemView/SEGGER/SEGGER_SYSVIEW.c **** #else
1184:Middlewares/Third_Party/SystemView/SEGGER/SEGGER_SYSVIEW.c ****   BufferDesc.pBuffer        = _aPacket;
1185:Middlewares/Third_Party/SystemView/SEGGER/SEGGER_SYSVIEW.c **** #endif
1186:Middlewares/Third_Party/SystemView/SEGGER/SEGGER_SYSVIEW.c ****   BufferDesc.Cnt            = 0u;
1187:Middlewares/Third_Party/SystemView/SEGGER/SEGGER_SYSVIEW.c ****   BufferDesc.pPayloadStart  = pPayloadStart;
1188:Middlewares/Third_Party/SystemView/SEGGER/SEGGER_SYSVIEW.c ****   BufferDesc.pPayload       = BufferDesc.pPayloadStart + 1u;
1189:Middlewares/Third_Party/SystemView/SEGGER/SEGGER_SYSVIEW.c ****   BufferDesc.Options        =  Options;
1190:Middlewares/Third_Party/SystemView/SEGGER/SEGGER_SYSVIEW.c **** 
1191:Middlewares/Third_Party/SystemView/SEGGER/SEGGER_SYSVIEW.c ****   do {
1192:Middlewares/Third_Party/SystemView/SEGGER/SEGGER_SYSVIEW.c ****     c = *sFormat;
1193:Middlewares/Third_Party/SystemView/SEGGER/SEGGER_SYSVIEW.c ****     sFormat++;
ARM GAS  C:\Users\KETEN_~1\AppData\Local\Temp\cck9qv27.s 			page 30


1194:Middlewares/Third_Party/SystemView/SEGGER/SEGGER_SYSVIEW.c ****     if (c == 0u) {
1195:Middlewares/Third_Party/SystemView/SEGGER/SEGGER_SYSVIEW.c ****       break;
1196:Middlewares/Third_Party/SystemView/SEGGER/SEGGER_SYSVIEW.c ****     }
1197:Middlewares/Third_Party/SystemView/SEGGER/SEGGER_SYSVIEW.c ****     if (c == '%') {
1198:Middlewares/Third_Party/SystemView/SEGGER/SEGGER_SYSVIEW.c ****       //
1199:Middlewares/Third_Party/SystemView/SEGGER/SEGGER_SYSVIEW.c ****       // Filter out flags
1200:Middlewares/Third_Party/SystemView/SEGGER/SEGGER_SYSVIEW.c ****       //
1201:Middlewares/Third_Party/SystemView/SEGGER/SEGGER_SYSVIEW.c ****       FormatFlags = 0u;
1202:Middlewares/Third_Party/SystemView/SEGGER/SEGGER_SYSVIEW.c ****       v = 1;
1203:Middlewares/Third_Party/SystemView/SEGGER/SEGGER_SYSVIEW.c ****       do {
1204:Middlewares/Third_Party/SystemView/SEGGER/SEGGER_SYSVIEW.c ****         c = *sFormat;
1205:Middlewares/Third_Party/SystemView/SEGGER/SEGGER_SYSVIEW.c ****         switch (c) {
1206:Middlewares/Third_Party/SystemView/SEGGER/SEGGER_SYSVIEW.c ****         case '-': FormatFlags |= FORMAT_FLAG_LEFT_JUSTIFY; sFormat++; break;
1207:Middlewares/Third_Party/SystemView/SEGGER/SEGGER_SYSVIEW.c ****         case '0': FormatFlags |= FORMAT_FLAG_PAD_ZERO;     sFormat++; break;
1208:Middlewares/Third_Party/SystemView/SEGGER/SEGGER_SYSVIEW.c ****         case '+': FormatFlags |= FORMAT_FLAG_PRINT_SIGN;   sFormat++; break;
1209:Middlewares/Third_Party/SystemView/SEGGER/SEGGER_SYSVIEW.c ****         case '#': FormatFlags |= FORMAT_FLAG_ALTERNATE;    sFormat++; break;
1210:Middlewares/Third_Party/SystemView/SEGGER/SEGGER_SYSVIEW.c ****         default:  v = 0; break;
1211:Middlewares/Third_Party/SystemView/SEGGER/SEGGER_SYSVIEW.c ****         }
1212:Middlewares/Third_Party/SystemView/SEGGER/SEGGER_SYSVIEW.c ****       } while (v);
1213:Middlewares/Third_Party/SystemView/SEGGER/SEGGER_SYSVIEW.c ****       //
1214:Middlewares/Third_Party/SystemView/SEGGER/SEGGER_SYSVIEW.c ****       // filter out field with
1215:Middlewares/Third_Party/SystemView/SEGGER/SEGGER_SYSVIEW.c ****       //
1216:Middlewares/Third_Party/SystemView/SEGGER/SEGGER_SYSVIEW.c ****       FieldWidth = 0u;
1217:Middlewares/Third_Party/SystemView/SEGGER/SEGGER_SYSVIEW.c ****       do {
1218:Middlewares/Third_Party/SystemView/SEGGER/SEGGER_SYSVIEW.c ****         c = *sFormat;
1219:Middlewares/Third_Party/SystemView/SEGGER/SEGGER_SYSVIEW.c ****         if ((c < '0') || (c > '9')) {
1220:Middlewares/Third_Party/SystemView/SEGGER/SEGGER_SYSVIEW.c ****           break;
1221:Middlewares/Third_Party/SystemView/SEGGER/SEGGER_SYSVIEW.c ****         }
1222:Middlewares/Third_Party/SystemView/SEGGER/SEGGER_SYSVIEW.c ****         sFormat++;
1223:Middlewares/Third_Party/SystemView/SEGGER/SEGGER_SYSVIEW.c ****         FieldWidth = (FieldWidth * 10u) + ((unsigned int)c - '0');
1224:Middlewares/Third_Party/SystemView/SEGGER/SEGGER_SYSVIEW.c ****       } while (1);
1225:Middlewares/Third_Party/SystemView/SEGGER/SEGGER_SYSVIEW.c **** 
1226:Middlewares/Third_Party/SystemView/SEGGER/SEGGER_SYSVIEW.c ****       //
1227:Middlewares/Third_Party/SystemView/SEGGER/SEGGER_SYSVIEW.c ****       // Filter out precision (number of digits to display)
1228:Middlewares/Third_Party/SystemView/SEGGER/SEGGER_SYSVIEW.c ****       //
1229:Middlewares/Third_Party/SystemView/SEGGER/SEGGER_SYSVIEW.c ****       NumDigits = 0u;
1230:Middlewares/Third_Party/SystemView/SEGGER/SEGGER_SYSVIEW.c ****       c = *sFormat;
1231:Middlewares/Third_Party/SystemView/SEGGER/SEGGER_SYSVIEW.c ****       if (c == '.') {
1232:Middlewares/Third_Party/SystemView/SEGGER/SEGGER_SYSVIEW.c ****         sFormat++;
1233:Middlewares/Third_Party/SystemView/SEGGER/SEGGER_SYSVIEW.c ****         do {
1234:Middlewares/Third_Party/SystemView/SEGGER/SEGGER_SYSVIEW.c ****           c = *sFormat;
1235:Middlewares/Third_Party/SystemView/SEGGER/SEGGER_SYSVIEW.c ****           if ((c < '0') || (c > '9')) {
1236:Middlewares/Third_Party/SystemView/SEGGER/SEGGER_SYSVIEW.c ****             break;
1237:Middlewares/Third_Party/SystemView/SEGGER/SEGGER_SYSVIEW.c ****           }
1238:Middlewares/Third_Party/SystemView/SEGGER/SEGGER_SYSVIEW.c ****           sFormat++;
1239:Middlewares/Third_Party/SystemView/SEGGER/SEGGER_SYSVIEW.c ****           NumDigits = NumDigits * 10u + ((unsigned int)c - '0');
1240:Middlewares/Third_Party/SystemView/SEGGER/SEGGER_SYSVIEW.c ****         } while (1);
1241:Middlewares/Third_Party/SystemView/SEGGER/SEGGER_SYSVIEW.c ****       }
1242:Middlewares/Third_Party/SystemView/SEGGER/SEGGER_SYSVIEW.c ****       //
1243:Middlewares/Third_Party/SystemView/SEGGER/SEGGER_SYSVIEW.c ****       // Filter out length modifier
1244:Middlewares/Third_Party/SystemView/SEGGER/SEGGER_SYSVIEW.c ****       //
1245:Middlewares/Third_Party/SystemView/SEGGER/SEGGER_SYSVIEW.c ****       c = *sFormat;
1246:Middlewares/Third_Party/SystemView/SEGGER/SEGGER_SYSVIEW.c ****       do {
1247:Middlewares/Third_Party/SystemView/SEGGER/SEGGER_SYSVIEW.c ****         if ((c == 'l') || (c == 'h')) {
1248:Middlewares/Third_Party/SystemView/SEGGER/SEGGER_SYSVIEW.c ****           c = *sFormat;
1249:Middlewares/Third_Party/SystemView/SEGGER/SEGGER_SYSVIEW.c ****           sFormat++;
1250:Middlewares/Third_Party/SystemView/SEGGER/SEGGER_SYSVIEW.c ****         } else {
ARM GAS  C:\Users\KETEN_~1\AppData\Local\Temp\cck9qv27.s 			page 31


1251:Middlewares/Third_Party/SystemView/SEGGER/SEGGER_SYSVIEW.c ****           break;
1252:Middlewares/Third_Party/SystemView/SEGGER/SEGGER_SYSVIEW.c ****         }
1253:Middlewares/Third_Party/SystemView/SEGGER/SEGGER_SYSVIEW.c ****       } while (1);
1254:Middlewares/Third_Party/SystemView/SEGGER/SEGGER_SYSVIEW.c ****       //
1255:Middlewares/Third_Party/SystemView/SEGGER/SEGGER_SYSVIEW.c ****       // Handle specifiers
1256:Middlewares/Third_Party/SystemView/SEGGER/SEGGER_SYSVIEW.c ****       //
1257:Middlewares/Third_Party/SystemView/SEGGER/SEGGER_SYSVIEW.c ****       switch (c) {
1258:Middlewares/Third_Party/SystemView/SEGGER/SEGGER_SYSVIEW.c ****       case 'c': {
1259:Middlewares/Third_Party/SystemView/SEGGER/SEGGER_SYSVIEW.c ****         char c0;
1260:Middlewares/Third_Party/SystemView/SEGGER/SEGGER_SYSVIEW.c ****         v = va_arg(*pParamList, int);
1261:Middlewares/Third_Party/SystemView/SEGGER/SEGGER_SYSVIEW.c ****         c0 = (char)v;
1262:Middlewares/Third_Party/SystemView/SEGGER/SEGGER_SYSVIEW.c ****         _StoreChar(&BufferDesc, c0);
1263:Middlewares/Third_Party/SystemView/SEGGER/SEGGER_SYSVIEW.c ****         break;
1264:Middlewares/Third_Party/SystemView/SEGGER/SEGGER_SYSVIEW.c ****       }
1265:Middlewares/Third_Party/SystemView/SEGGER/SEGGER_SYSVIEW.c ****       case 'd':
1266:Middlewares/Third_Party/SystemView/SEGGER/SEGGER_SYSVIEW.c ****         v = va_arg(*pParamList, int);
1267:Middlewares/Third_Party/SystemView/SEGGER/SEGGER_SYSVIEW.c ****         _PrintInt(&BufferDesc, v, 10u, NumDigits, FieldWidth, FormatFlags);
1268:Middlewares/Third_Party/SystemView/SEGGER/SEGGER_SYSVIEW.c ****         break;
1269:Middlewares/Third_Party/SystemView/SEGGER/SEGGER_SYSVIEW.c ****       case 'u':
1270:Middlewares/Third_Party/SystemView/SEGGER/SEGGER_SYSVIEW.c ****         v = va_arg(*pParamList, int);
1271:Middlewares/Third_Party/SystemView/SEGGER/SEGGER_SYSVIEW.c ****         _PrintUnsigned(&BufferDesc, (unsigned int)v, 10u, NumDigits, FieldWidth, FormatFlags);
1272:Middlewares/Third_Party/SystemView/SEGGER/SEGGER_SYSVIEW.c ****         break;
1273:Middlewares/Third_Party/SystemView/SEGGER/SEGGER_SYSVIEW.c ****       case 'x':
1274:Middlewares/Third_Party/SystemView/SEGGER/SEGGER_SYSVIEW.c ****       case 'X':
1275:Middlewares/Third_Party/SystemView/SEGGER/SEGGER_SYSVIEW.c ****         v = va_arg(*pParamList, int);
1276:Middlewares/Third_Party/SystemView/SEGGER/SEGGER_SYSVIEW.c ****         _PrintUnsigned(&BufferDesc, (unsigned int)v, 16u, NumDigits, FieldWidth, FormatFlags);
1277:Middlewares/Third_Party/SystemView/SEGGER/SEGGER_SYSVIEW.c ****         break;
1278:Middlewares/Third_Party/SystemView/SEGGER/SEGGER_SYSVIEW.c ****       case 'p':
1279:Middlewares/Third_Party/SystemView/SEGGER/SEGGER_SYSVIEW.c ****         v = va_arg(*pParamList, int);
1280:Middlewares/Third_Party/SystemView/SEGGER/SEGGER_SYSVIEW.c ****         _PrintUnsigned(&BufferDesc, (unsigned int)v, 16u, 8u, 8u, 0u);
1281:Middlewares/Third_Party/SystemView/SEGGER/SEGGER_SYSVIEW.c ****         break;
1282:Middlewares/Third_Party/SystemView/SEGGER/SEGGER_SYSVIEW.c ****       case '%':
1283:Middlewares/Third_Party/SystemView/SEGGER/SEGGER_SYSVIEW.c ****         _StoreChar(&BufferDesc, '%');
1284:Middlewares/Third_Party/SystemView/SEGGER/SEGGER_SYSVIEW.c ****         break;
1285:Middlewares/Third_Party/SystemView/SEGGER/SEGGER_SYSVIEW.c ****       default:
1286:Middlewares/Third_Party/SystemView/SEGGER/SEGGER_SYSVIEW.c ****         break;
1287:Middlewares/Third_Party/SystemView/SEGGER/SEGGER_SYSVIEW.c ****       }
1288:Middlewares/Third_Party/SystemView/SEGGER/SEGGER_SYSVIEW.c ****       sFormat++;
1289:Middlewares/Third_Party/SystemView/SEGGER/SEGGER_SYSVIEW.c ****     } else {
1290:Middlewares/Third_Party/SystemView/SEGGER/SEGGER_SYSVIEW.c ****       _StoreChar(&BufferDesc, c);
1291:Middlewares/Third_Party/SystemView/SEGGER/SEGGER_SYSVIEW.c ****     }
1292:Middlewares/Third_Party/SystemView/SEGGER/SEGGER_SYSVIEW.c ****   } while (*sFormat);
1293:Middlewares/Third_Party/SystemView/SEGGER/SEGGER_SYSVIEW.c **** 
1294:Middlewares/Third_Party/SystemView/SEGGER/SEGGER_SYSVIEW.c ****   //
1295:Middlewares/Third_Party/SystemView/SEGGER/SEGGER_SYSVIEW.c ****   // Write remaining data, if any
1296:Middlewares/Third_Party/SystemView/SEGGER/SEGGER_SYSVIEW.c ****   //
1297:Middlewares/Third_Party/SystemView/SEGGER/SEGGER_SYSVIEW.c ****   if (BufferDesc.Cnt != 0u) {
1298:Middlewares/Third_Party/SystemView/SEGGER/SEGGER_SYSVIEW.c ****     *(BufferDesc.pPayloadStart) = BufferDesc.Cnt;
1299:Middlewares/Third_Party/SystemView/SEGGER/SEGGER_SYSVIEW.c ****     ENCODE_U32(BufferDesc.pPayload, BufferDesc.Options);
1300:Middlewares/Third_Party/SystemView/SEGGER/SEGGER_SYSVIEW.c ****     ENCODE_U32(BufferDesc.pPayload, 0);
1301:Middlewares/Third_Party/SystemView/SEGGER/SEGGER_SYSVIEW.c ****     _SendPacket(BufferDesc.pPayloadStart, BufferDesc.pPayload, SYSVIEW_EVTID_PRINT_FORMATTED);
1302:Middlewares/Third_Party/SystemView/SEGGER/SEGGER_SYSVIEW.c ****   }
1303:Middlewares/Third_Party/SystemView/SEGGER/SEGGER_SYSVIEW.c **** #if SEGGER_SYSVIEW_USE_STATIC_BUFFER == 0
1304:Middlewares/Third_Party/SystemView/SEGGER/SEGGER_SYSVIEW.c ****   SEGGER_SYSVIEW_UNLOCK();
1305:Middlewares/Third_Party/SystemView/SEGGER/SEGGER_SYSVIEW.c ****   RECORD_END();
1306:Middlewares/Third_Party/SystemView/SEGGER/SEGGER_SYSVIEW.c **** #else
1307:Middlewares/Third_Party/SystemView/SEGGER/SEGGER_SYSVIEW.c ****   RECORD_END();
ARM GAS  C:\Users\KETEN_~1\AppData\Local\Temp\cck9qv27.s 			page 32


1308:Middlewares/Third_Party/SystemView/SEGGER/SEGGER_SYSVIEW.c **** #endif
1309:Middlewares/Third_Party/SystemView/SEGGER/SEGGER_SYSVIEW.c **** }
1310:Middlewares/Third_Party/SystemView/SEGGER/SEGGER_SYSVIEW.c **** #endif // SEGGER_SYSVIEW_EXCLUDE_PRINTF
1311:Middlewares/Third_Party/SystemView/SEGGER/SEGGER_SYSVIEW.c **** 
1312:Middlewares/Third_Party/SystemView/SEGGER/SEGGER_SYSVIEW.c **** /*********************************************************************
1313:Middlewares/Third_Party/SystemView/SEGGER/SEGGER_SYSVIEW.c **** *
1314:Middlewares/Third_Party/SystemView/SEGGER/SEGGER_SYSVIEW.c **** *       Public code
1315:Middlewares/Third_Party/SystemView/SEGGER/SEGGER_SYSVIEW.c **** *
1316:Middlewares/Third_Party/SystemView/SEGGER/SEGGER_SYSVIEW.c **** **********************************************************************
1317:Middlewares/Third_Party/SystemView/SEGGER/SEGGER_SYSVIEW.c **** */
1318:Middlewares/Third_Party/SystemView/SEGGER/SEGGER_SYSVIEW.c **** 
1319:Middlewares/Third_Party/SystemView/SEGGER/SEGGER_SYSVIEW.c **** /*********************************************************************
1320:Middlewares/Third_Party/SystemView/SEGGER/SEGGER_SYSVIEW.c **** *
1321:Middlewares/Third_Party/SystemView/SEGGER/SEGGER_SYSVIEW.c **** *       SEGGER_SYSVIEW_Init()
1322:Middlewares/Third_Party/SystemView/SEGGER/SEGGER_SYSVIEW.c **** *
1323:Middlewares/Third_Party/SystemView/SEGGER/SEGGER_SYSVIEW.c **** *  Function description
1324:Middlewares/Third_Party/SystemView/SEGGER/SEGGER_SYSVIEW.c **** *    Initializes the SYSVIEW module.
1325:Middlewares/Third_Party/SystemView/SEGGER/SEGGER_SYSVIEW.c **** *    Must be called before the Systemview Application connects to 
1326:Middlewares/Third_Party/SystemView/SEGGER/SEGGER_SYSVIEW.c **** *    the system.
1327:Middlewares/Third_Party/SystemView/SEGGER/SEGGER_SYSVIEW.c **** *
1328:Middlewares/Third_Party/SystemView/SEGGER/SEGGER_SYSVIEW.c **** *  Parameters
1329:Middlewares/Third_Party/SystemView/SEGGER/SEGGER_SYSVIEW.c **** *    SysFreq        - Frequency of timestamp, usually CPU core clock frequency.
1330:Middlewares/Third_Party/SystemView/SEGGER/SEGGER_SYSVIEW.c **** *    CPUFreq        - CPU core clock frequency.
1331:Middlewares/Third_Party/SystemView/SEGGER/SEGGER_SYSVIEW.c **** *    pOSAPI         - Pointer to the API structure for OS-specific functions.
1332:Middlewares/Third_Party/SystemView/SEGGER/SEGGER_SYSVIEW.c **** *    pfSendSysDesc  - Pointer to record system description callback function.
1333:Middlewares/Third_Party/SystemView/SEGGER/SEGGER_SYSVIEW.c **** *
1334:Middlewares/Third_Party/SystemView/SEGGER/SEGGER_SYSVIEW.c **** *  Additional information
1335:Middlewares/Third_Party/SystemView/SEGGER/SEGGER_SYSVIEW.c **** *    This function initializes the RTT channel used to transport 
1336:Middlewares/Third_Party/SystemView/SEGGER/SEGGER_SYSVIEW.c **** *    SEGGER SystemView packets. 
1337:Middlewares/Third_Party/SystemView/SEGGER/SEGGER_SYSVIEW.c **** *    The channel is assigned the label "SysView" for client software 
1338:Middlewares/Third_Party/SystemView/SEGGER/SEGGER_SYSVIEW.c **** *    to identify the SystemView channel.
1339:Middlewares/Third_Party/SystemView/SEGGER/SEGGER_SYSVIEW.c **** *
1340:Middlewares/Third_Party/SystemView/SEGGER/SEGGER_SYSVIEW.c **** *    The channel is configured with the macro SEGGER_SYSVIEW_RTT_CHANNEL.
1341:Middlewares/Third_Party/SystemView/SEGGER/SEGGER_SYSVIEW.c **** */
1342:Middlewares/Third_Party/SystemView/SEGGER/SEGGER_SYSVIEW.c **** void SEGGER_SYSVIEW_Init(U32 SysFreq, U32 CPUFreq, const SEGGER_SYSVIEW_OS_API *pOSAPI, SEGGER_SYSV
 432              		.loc 1 1342 138 is_stmt 1 view -0
 433              		.cfi_startproc
 434              		@ args = 0, pretend = 0, frame = 0
 435              		@ frame_needed = 0, uses_anonymous_args = 0
 436              		.loc 1 1342 138 is_stmt 0 view .LVU145
 437 0000 2DE9F047 		push	{r4, r5, r6, r7, r8, r9, r10, lr}
 438              	.LCFI6:
 439              		.cfi_def_cfa_offset 32
 440              		.cfi_offset 4, -32
 441              		.cfi_offset 5, -28
 442              		.cfi_offset 6, -24
 443              		.cfi_offset 7, -20
 444              		.cfi_offset 8, -16
 445              		.cfi_offset 9, -12
 446              		.cfi_offset 10, -8
 447              		.cfi_offset 14, -4
 448 0004 82B0     		sub	sp, sp, #8
 449              	.LCFI7:
 450              		.cfi_def_cfa_offset 40
 451 0006 0746     		mov	r7, r0
 452 0008 0E46     		mov	r6, r1
 453 000a 9046     		mov	r8, r2
ARM GAS  C:\Users\KETEN_~1\AppData\Local\Temp\cck9qv27.s 			page 33


 454 000c 1D46     		mov	r5, r3
1343:Middlewares/Third_Party/SystemView/SEGGER/SEGGER_SYSVIEW.c **** #ifdef SEGGER_RTT_SECTION
1344:Middlewares/Third_Party/SystemView/SEGGER/SEGGER_SYSVIEW.c ****   //
1345:Middlewares/Third_Party/SystemView/SEGGER/SEGGER_SYSVIEW.c ****   // Explicitly initialize the RTT Control Block if it is in its dedicated section.
1346:Middlewares/Third_Party/SystemView/SEGGER/SEGGER_SYSVIEW.c ****   //
1347:Middlewares/Third_Party/SystemView/SEGGER/SEGGER_SYSVIEW.c ****   SEGGER_RTT_Init();
1348:Middlewares/Third_Party/SystemView/SEGGER/SEGGER_SYSVIEW.c **** #endif
1349:Middlewares/Third_Party/SystemView/SEGGER/SEGGER_SYSVIEW.c **** #if (SEGGER_SYSVIEW_POST_MORTEM_MODE == 1)
1350:Middlewares/Third_Party/SystemView/SEGGER/SEGGER_SYSVIEW.c **** #if SEGGER_SYSVIEW_RTT_CHANNEL > 0
1351:Middlewares/Third_Party/SystemView/SEGGER/SEGGER_SYSVIEW.c ****   SEGGER_RTT_ConfigUpBuffer(SEGGER_SYSVIEW_RTT_CHANNEL, "SysView", &_UpBuffer[0],   sizeof(_UpBuffe
1352:Middlewares/Third_Party/SystemView/SEGGER/SEGGER_SYSVIEW.c **** #else
1353:Middlewares/Third_Party/SystemView/SEGGER/SEGGER_SYSVIEW.c ****   _SYSVIEW_Globals.UpChannel = SEGGER_RTT_AllocUpBuffer  ("SysView", &_UpBuffer[0],   sizeof(_UpBuf
1354:Middlewares/Third_Party/SystemView/SEGGER/SEGGER_SYSVIEW.c **** #endif
1355:Middlewares/Third_Party/SystemView/SEGGER/SEGGER_SYSVIEW.c ****   _SYSVIEW_Globals.RAMBaseAddress   = SEGGER_SYSVIEW_ID_BASE;
1356:Middlewares/Third_Party/SystemView/SEGGER/SEGGER_SYSVIEW.c ****   _SYSVIEW_Globals.LastTxTimeStamp  = SEGGER_SYSVIEW_GET_TIMESTAMP();
1357:Middlewares/Third_Party/SystemView/SEGGER/SEGGER_SYSVIEW.c ****   _SYSVIEW_Globals.pOSAPI           = pOSAPI;
1358:Middlewares/Third_Party/SystemView/SEGGER/SEGGER_SYSVIEW.c ****   _SYSVIEW_Globals.SysFreq          = SysFreq;
1359:Middlewares/Third_Party/SystemView/SEGGER/SEGGER_SYSVIEW.c ****   _SYSVIEW_Globals.CPUFreq          = CPUFreq;
1360:Middlewares/Third_Party/SystemView/SEGGER/SEGGER_SYSVIEW.c ****   _SYSVIEW_Globals.pfSendSysDesc    = pfSendSysDesc;
1361:Middlewares/Third_Party/SystemView/SEGGER/SEGGER_SYSVIEW.c ****   _SYSVIEW_Globals.EnableState      = 0;
1362:Middlewares/Third_Party/SystemView/SEGGER/SEGGER_SYSVIEW.c ****   _SYSVIEW_Globals.PacketCount      = 0;
1363:Middlewares/Third_Party/SystemView/SEGGER/SEGGER_SYSVIEW.c **** #else // (SEGGER_SYSVIEW_POST_MORTEM_MODE == 1)
1364:Middlewares/Third_Party/SystemView/SEGGER/SEGGER_SYSVIEW.c **** #if SEGGER_SYSVIEW_RTT_CHANNEL > 0
1365:Middlewares/Third_Party/SystemView/SEGGER/SEGGER_SYSVIEW.c ****   SEGGER_RTT_ConfigUpBuffer   (SEGGER_SYSVIEW_RTT_CHANNEL, "SysView", &_UpBuffer[0],   sizeof(_UpBu
1366:Middlewares/Third_Party/SystemView/SEGGER/SEGGER_SYSVIEW.c ****   SEGGER_RTT_ConfigDownBuffer (SEGGER_SYSVIEW_RTT_CHANNEL, "SysView", &_DownBuffer[0], sizeof(_Down
1367:Middlewares/Third_Party/SystemView/SEGGER/SEGGER_SYSVIEW.c **** #else
1368:Middlewares/Third_Party/SystemView/SEGGER/SEGGER_SYSVIEW.c ****   _SYSVIEW_Globals.UpChannel = SEGGER_RTT_AllocUpBuffer  ("SysView", &_UpBuffer[0],   sizeof(_UpBuf
 455              		.loc 1 1368 3 is_stmt 1 view .LVU146
 456              		.loc 1 1368 32 is_stmt 0 view .LVU147
 457 000e DFF85890 		ldr	r9, .L35+16
 458 0012 0023     		movs	r3, #0
 459              	.LVL53:
 460              		.loc 1 1368 32 view .LVU148
 461 0014 4FF48062 		mov	r2, #1024
 462              	.LVL54:
 463              		.loc 1 1368 32 view .LVU149
 464 0018 0F49     		ldr	r1, .L35
 465              	.LVL55:
 466              		.loc 1 1368 32 view .LVU150
 467 001a 4846     		mov	r0, r9
 468              	.LVL56:
 469              		.loc 1 1368 32 view .LVU151
 470 001c FFF7FEFF 		bl	SEGGER_RTT_AllocUpBuffer
 471              	.LVL57:
 472              		.loc 1 1368 30 discriminator 1 view .LVU152
 473 0020 C0B2     		uxtb	r0, r0
 474 0022 0E4C     		ldr	r4, .L35+4
 475 0024 6070     		strb	r0, [r4, #1]
1369:Middlewares/Third_Party/SystemView/SEGGER/SEGGER_SYSVIEW.c ****   _SYSVIEW_Globals.DownChannel = _SYSVIEW_Globals.UpChannel;
 476              		.loc 1 1369 3 is_stmt 1 view .LVU153
 477              		.loc 1 1369 32 is_stmt 0 view .LVU154
 478 0026 2076     		strb	r0, [r4, #24]
1370:Middlewares/Third_Party/SystemView/SEGGER/SEGGER_SYSVIEW.c ****   SEGGER_RTT_ConfigDownBuffer (_SYSVIEW_Globals.DownChannel, "SysView", &_DownBuffer[0], sizeof(_Do
 479              		.loc 1 1370 3 is_stmt 1 view .LVU155
 480 0028 4FF0000A 		mov	r10, #0
 481 002c CDF800A0 		str	r10, [sp]
 482 0030 0823     		movs	r3, #8
ARM GAS  C:\Users\KETEN_~1\AppData\Local\Temp\cck9qv27.s 			page 34


 483 0032 0B4A     		ldr	r2, .L35+8
 484 0034 4946     		mov	r1, r9
 485 0036 FFF7FEFF 		bl	SEGGER_RTT_ConfigDownBuffer
 486              	.LVL58:
1371:Middlewares/Third_Party/SystemView/SEGGER/SEGGER_SYSVIEW.c **** #endif
1372:Middlewares/Third_Party/SystemView/SEGGER/SEGGER_SYSVIEW.c ****   _SYSVIEW_Globals.RAMBaseAddress   = SEGGER_SYSVIEW_ID_BASE;
 487              		.loc 1 1372 3 view .LVU156
 488              		.loc 1 1372 37 is_stmt 0 view .LVU157
 489 003a C4F810A0 		str	r10, [r4, #16]
1373:Middlewares/Third_Party/SystemView/SEGGER/SEGGER_SYSVIEW.c ****   _SYSVIEW_Globals.LastTxTimeStamp  = SEGGER_SYSVIEW_GET_TIMESTAMP();
 490              		.loc 1 1373 3 is_stmt 1 view .LVU158
 491              		.loc 1 1373 39 is_stmt 0 view .LVU159
 492 003e 094B     		ldr	r3, .L35+12
 493 0040 5B68     		ldr	r3, [r3, #4]
 494              		.loc 1 1373 37 view .LVU160
 495 0042 E360     		str	r3, [r4, #12]
1374:Middlewares/Third_Party/SystemView/SEGGER/SEGGER_SYSVIEW.c ****   _SYSVIEW_Globals.pOSAPI           = pOSAPI;
 496              		.loc 1 1374 3 is_stmt 1 view .LVU161
 497              		.loc 1 1374 37 is_stmt 0 view .LVU162
 498 0044 C4F82080 		str	r8, [r4, #32]
1375:Middlewares/Third_Party/SystemView/SEGGER/SEGGER_SYSVIEW.c ****   _SYSVIEW_Globals.SysFreq          = SysFreq;
 499              		.loc 1 1375 3 is_stmt 1 view .LVU163
 500              		.loc 1 1375 37 is_stmt 0 view .LVU164
 501 0048 6760     		str	r7, [r4, #4]
1376:Middlewares/Third_Party/SystemView/SEGGER/SEGGER_SYSVIEW.c ****   _SYSVIEW_Globals.CPUFreq          = CPUFreq;
 502              		.loc 1 1376 3 is_stmt 1 view .LVU165
 503              		.loc 1 1376 37 is_stmt 0 view .LVU166
 504 004a A660     		str	r6, [r4, #8]
1377:Middlewares/Third_Party/SystemView/SEGGER/SEGGER_SYSVIEW.c ****   _SYSVIEW_Globals.pfSendSysDesc    = pfSendSysDesc;
 505              		.loc 1 1377 3 is_stmt 1 view .LVU167
 506              		.loc 1 1377 37 is_stmt 0 view .LVU168
 507 004c 6562     		str	r5, [r4, #36]
1378:Middlewares/Third_Party/SystemView/SEGGER/SEGGER_SYSVIEW.c ****   _SYSVIEW_Globals.EnableState      = 0;
 508              		.loc 1 1378 3 is_stmt 1 view .LVU169
 509              		.loc 1 1378 37 is_stmt 0 view .LVU170
 510 004e 84F800A0 		strb	r10, [r4]
1379:Middlewares/Third_Party/SystemView/SEGGER/SEGGER_SYSVIEW.c **** #endif  // (SEGGER_SYSVIEW_POST_MORTEM_MODE == 1)
1380:Middlewares/Third_Party/SystemView/SEGGER/SEGGER_SYSVIEW.c **** }
 511              		.loc 1 1380 1 view .LVU171
 512 0052 02B0     		add	sp, sp, #8
 513              	.LCFI8:
 514              		.cfi_def_cfa_offset 32
 515              		@ sp needed
 516 0054 BDE8F087 		pop	{r4, r5, r6, r7, r8, r9, r10, pc}
 517              	.LVL59:
 518              	.L36:
 519              		.loc 1 1380 1 view .LVU172
 520              		.align	2
 521              	.L35:
 522 0058 00000000 		.word	_UpBuffer
 523 005c 00000000 		.word	_SYSVIEW_Globals
 524 0060 00000000 		.word	_DownBuffer
 525 0064 001000E0 		.word	-536866816
 526 0068 00000000 		.word	.LC0
 527              		.cfi_endproc
 528              	.LFE11:
 530              		.section	.text.SEGGER_SYSVIEW_SetRAMBase,"ax",%progbits
ARM GAS  C:\Users\KETEN_~1\AppData\Local\Temp\cck9qv27.s 			page 35


 531              		.align	1
 532              		.global	SEGGER_SYSVIEW_SetRAMBase
 533              		.syntax unified
 534              		.thumb
 535              		.thumb_func
 537              	SEGGER_SYSVIEW_SetRAMBase:
 538              	.LVL60:
 539              	.LFB12:
1381:Middlewares/Third_Party/SystemView/SEGGER/SEGGER_SYSVIEW.c **** 
1382:Middlewares/Third_Party/SystemView/SEGGER/SEGGER_SYSVIEW.c **** /*********************************************************************
1383:Middlewares/Third_Party/SystemView/SEGGER/SEGGER_SYSVIEW.c **** *
1384:Middlewares/Third_Party/SystemView/SEGGER/SEGGER_SYSVIEW.c **** *       SEGGER_SYSVIEW_SetRAMBase()
1385:Middlewares/Third_Party/SystemView/SEGGER/SEGGER_SYSVIEW.c **** *
1386:Middlewares/Third_Party/SystemView/SEGGER/SEGGER_SYSVIEW.c **** *  Function description
1387:Middlewares/Third_Party/SystemView/SEGGER/SEGGER_SYSVIEW.c **** *    Sets the RAM base address, which is subtracted from IDs in order
1388:Middlewares/Third_Party/SystemView/SEGGER/SEGGER_SYSVIEW.c **** *     to save bandwidth.
1389:Middlewares/Third_Party/SystemView/SEGGER/SEGGER_SYSVIEW.c **** *
1390:Middlewares/Third_Party/SystemView/SEGGER/SEGGER_SYSVIEW.c **** *  Parameters
1391:Middlewares/Third_Party/SystemView/SEGGER/SEGGER_SYSVIEW.c **** *    RAMBaseAddress - Lowest RAM Address. (i.e. 0x20000000 on most Cortex-M)
1392:Middlewares/Third_Party/SystemView/SEGGER/SEGGER_SYSVIEW.c **** */
1393:Middlewares/Third_Party/SystemView/SEGGER/SEGGER_SYSVIEW.c **** void SEGGER_SYSVIEW_SetRAMBase(U32 RAMBaseAddress) {
 540              		.loc 1 1393 52 is_stmt 1 view -0
 541              		.cfi_startproc
 542              		@ args = 0, pretend = 0, frame = 0
 543              		@ frame_needed = 0, uses_anonymous_args = 0
 544              		@ link register save eliminated.
1394:Middlewares/Third_Party/SystemView/SEGGER/SEGGER_SYSVIEW.c ****   _SYSVIEW_Globals.RAMBaseAddress = RAMBaseAddress;
 545              		.loc 1 1394 3 view .LVU174
 546              		.loc 1 1394 35 is_stmt 0 view .LVU175
 547 0000 014B     		ldr	r3, .L38
 548 0002 1861     		str	r0, [r3, #16]
1395:Middlewares/Third_Party/SystemView/SEGGER/SEGGER_SYSVIEW.c **** }
 549              		.loc 1 1395 1 view .LVU176
 550 0004 7047     		bx	lr
 551              	.L39:
 552 0006 00BF     		.align	2
 553              	.L38:
 554 0008 00000000 		.word	_SYSVIEW_Globals
 555              		.cfi_endproc
 556              	.LFE12:
 558              		.section	.text.SEGGER_SYSVIEW_GetChannelID,"ax",%progbits
 559              		.align	1
 560              		.global	SEGGER_SYSVIEW_GetChannelID
 561              		.syntax unified
 562              		.thumb
 563              		.thumb_func
 565              	SEGGER_SYSVIEW_GetChannelID:
 566              	.LFB27:
1396:Middlewares/Third_Party/SystemView/SEGGER/SEGGER_SYSVIEW.c **** 
1397:Middlewares/Third_Party/SystemView/SEGGER/SEGGER_SYSVIEW.c **** /*********************************************************************
1398:Middlewares/Third_Party/SystemView/SEGGER/SEGGER_SYSVIEW.c **** *
1399:Middlewares/Third_Party/SystemView/SEGGER/SEGGER_SYSVIEW.c **** *       SEGGER_SYSVIEW_RecordVoid()
1400:Middlewares/Third_Party/SystemView/SEGGER/SEGGER_SYSVIEW.c **** *
1401:Middlewares/Third_Party/SystemView/SEGGER/SEGGER_SYSVIEW.c **** *  Function description
1402:Middlewares/Third_Party/SystemView/SEGGER/SEGGER_SYSVIEW.c **** *    Formats and sends a SystemView packet with an empty payload.
1403:Middlewares/Third_Party/SystemView/SEGGER/SEGGER_SYSVIEW.c **** *
1404:Middlewares/Third_Party/SystemView/SEGGER/SEGGER_SYSVIEW.c **** *  Parameters
ARM GAS  C:\Users\KETEN_~1\AppData\Local\Temp\cck9qv27.s 			page 36


1405:Middlewares/Third_Party/SystemView/SEGGER/SEGGER_SYSVIEW.c **** *    EventID - SystemView event ID.
1406:Middlewares/Third_Party/SystemView/SEGGER/SEGGER_SYSVIEW.c **** */
1407:Middlewares/Third_Party/SystemView/SEGGER/SEGGER_SYSVIEW.c **** void SEGGER_SYSVIEW_RecordVoid(unsigned int EventID) {
1408:Middlewares/Third_Party/SystemView/SEGGER/SEGGER_SYSVIEW.c ****   U8* pPayloadStart;
1409:Middlewares/Third_Party/SystemView/SEGGER/SEGGER_SYSVIEW.c ****   RECORD_START(SEGGER_SYSVIEW_INFO_SIZE);
1410:Middlewares/Third_Party/SystemView/SEGGER/SEGGER_SYSVIEW.c ****   //
1411:Middlewares/Third_Party/SystemView/SEGGER/SEGGER_SYSVIEW.c ****   _SendPacket(pPayloadStart, pPayloadStart, EventID);
1412:Middlewares/Third_Party/SystemView/SEGGER/SEGGER_SYSVIEW.c ****   RECORD_END();
1413:Middlewares/Third_Party/SystemView/SEGGER/SEGGER_SYSVIEW.c **** }
1414:Middlewares/Third_Party/SystemView/SEGGER/SEGGER_SYSVIEW.c **** 
1415:Middlewares/Third_Party/SystemView/SEGGER/SEGGER_SYSVIEW.c **** /*********************************************************************
1416:Middlewares/Third_Party/SystemView/SEGGER/SEGGER_SYSVIEW.c **** *
1417:Middlewares/Third_Party/SystemView/SEGGER/SEGGER_SYSVIEW.c **** *       SEGGER_SYSVIEW_RecordU32()
1418:Middlewares/Third_Party/SystemView/SEGGER/SEGGER_SYSVIEW.c **** *
1419:Middlewares/Third_Party/SystemView/SEGGER/SEGGER_SYSVIEW.c **** *  Function description
1420:Middlewares/Third_Party/SystemView/SEGGER/SEGGER_SYSVIEW.c **** *    Formats and sends a SystemView packet containing a single U32
1421:Middlewares/Third_Party/SystemView/SEGGER/SEGGER_SYSVIEW.c **** *    parameter payload.
1422:Middlewares/Third_Party/SystemView/SEGGER/SEGGER_SYSVIEW.c **** *
1423:Middlewares/Third_Party/SystemView/SEGGER/SEGGER_SYSVIEW.c **** *  Parameters
1424:Middlewares/Third_Party/SystemView/SEGGER/SEGGER_SYSVIEW.c **** *    EventID - SystemView event ID.
1425:Middlewares/Third_Party/SystemView/SEGGER/SEGGER_SYSVIEW.c **** *    Value   - The 32-bit parameter encoded to SystemView packet payload.
1426:Middlewares/Third_Party/SystemView/SEGGER/SEGGER_SYSVIEW.c **** */
1427:Middlewares/Third_Party/SystemView/SEGGER/SEGGER_SYSVIEW.c **** void SEGGER_SYSVIEW_RecordU32(unsigned int EventID, U32 Value) {
1428:Middlewares/Third_Party/SystemView/SEGGER/SEGGER_SYSVIEW.c ****   U8* pPayload;
1429:Middlewares/Third_Party/SystemView/SEGGER/SEGGER_SYSVIEW.c ****   U8* pPayloadStart;
1430:Middlewares/Third_Party/SystemView/SEGGER/SEGGER_SYSVIEW.c ****   RECORD_START(SEGGER_SYSVIEW_INFO_SIZE + SEGGER_SYSVIEW_QUANTA_U32);
1431:Middlewares/Third_Party/SystemView/SEGGER/SEGGER_SYSVIEW.c ****   //
1432:Middlewares/Third_Party/SystemView/SEGGER/SEGGER_SYSVIEW.c ****   pPayload = pPayloadStart;
1433:Middlewares/Third_Party/SystemView/SEGGER/SEGGER_SYSVIEW.c ****   ENCODE_U32(pPayload, Value);
1434:Middlewares/Third_Party/SystemView/SEGGER/SEGGER_SYSVIEW.c ****   _SendPacket(pPayloadStart, pPayload, EventID);
1435:Middlewares/Third_Party/SystemView/SEGGER/SEGGER_SYSVIEW.c ****   RECORD_END();
1436:Middlewares/Third_Party/SystemView/SEGGER/SEGGER_SYSVIEW.c **** }
1437:Middlewares/Third_Party/SystemView/SEGGER/SEGGER_SYSVIEW.c **** 
1438:Middlewares/Third_Party/SystemView/SEGGER/SEGGER_SYSVIEW.c **** /*********************************************************************
1439:Middlewares/Third_Party/SystemView/SEGGER/SEGGER_SYSVIEW.c **** *
1440:Middlewares/Third_Party/SystemView/SEGGER/SEGGER_SYSVIEW.c **** *       SEGGER_SYSVIEW_RecordU32x2()
1441:Middlewares/Third_Party/SystemView/SEGGER/SEGGER_SYSVIEW.c **** *
1442:Middlewares/Third_Party/SystemView/SEGGER/SEGGER_SYSVIEW.c **** *  Function description
1443:Middlewares/Third_Party/SystemView/SEGGER/SEGGER_SYSVIEW.c **** *    Formats and sends a SystemView packet containing 2 U32 parameter payload.
1444:Middlewares/Third_Party/SystemView/SEGGER/SEGGER_SYSVIEW.c **** *
1445:Middlewares/Third_Party/SystemView/SEGGER/SEGGER_SYSVIEW.c **** *  Parameters
1446:Middlewares/Third_Party/SystemView/SEGGER/SEGGER_SYSVIEW.c **** *    EventID - SystemView event ID.
1447:Middlewares/Third_Party/SystemView/SEGGER/SEGGER_SYSVIEW.c **** *    Para0   - The 32-bit parameter encoded to SystemView packet payload.
1448:Middlewares/Third_Party/SystemView/SEGGER/SEGGER_SYSVIEW.c **** *    Para1   - The 32-bit parameter encoded to SystemView packet payload.
1449:Middlewares/Third_Party/SystemView/SEGGER/SEGGER_SYSVIEW.c **** */
1450:Middlewares/Third_Party/SystemView/SEGGER/SEGGER_SYSVIEW.c **** void SEGGER_SYSVIEW_RecordU32x2(unsigned int EventID, U32 Para0, U32 Para1) {
1451:Middlewares/Third_Party/SystemView/SEGGER/SEGGER_SYSVIEW.c ****   U8* pPayload;
1452:Middlewares/Third_Party/SystemView/SEGGER/SEGGER_SYSVIEW.c ****   U8* pPayloadStart;
1453:Middlewares/Third_Party/SystemView/SEGGER/SEGGER_SYSVIEW.c ****   RECORD_START(SEGGER_SYSVIEW_INFO_SIZE + 2 * SEGGER_SYSVIEW_QUANTA_U32);
1454:Middlewares/Third_Party/SystemView/SEGGER/SEGGER_SYSVIEW.c ****   //
1455:Middlewares/Third_Party/SystemView/SEGGER/SEGGER_SYSVIEW.c ****   pPayload = pPayloadStart;
1456:Middlewares/Third_Party/SystemView/SEGGER/SEGGER_SYSVIEW.c ****   ENCODE_U32(pPayload, Para0);
1457:Middlewares/Third_Party/SystemView/SEGGER/SEGGER_SYSVIEW.c ****   ENCODE_U32(pPayload, Para1);
1458:Middlewares/Third_Party/SystemView/SEGGER/SEGGER_SYSVIEW.c ****   _SendPacket(pPayloadStart, pPayload, EventID);
1459:Middlewares/Third_Party/SystemView/SEGGER/SEGGER_SYSVIEW.c ****   RECORD_END();
1460:Middlewares/Third_Party/SystemView/SEGGER/SEGGER_SYSVIEW.c **** }
1461:Middlewares/Third_Party/SystemView/SEGGER/SEGGER_SYSVIEW.c **** 
ARM GAS  C:\Users\KETEN_~1\AppData\Local\Temp\cck9qv27.s 			page 37


1462:Middlewares/Third_Party/SystemView/SEGGER/SEGGER_SYSVIEW.c **** /*********************************************************************
1463:Middlewares/Third_Party/SystemView/SEGGER/SEGGER_SYSVIEW.c **** *
1464:Middlewares/Third_Party/SystemView/SEGGER/SEGGER_SYSVIEW.c **** *       SEGGER_SYSVIEW_RecordU32x3()
1465:Middlewares/Third_Party/SystemView/SEGGER/SEGGER_SYSVIEW.c **** *
1466:Middlewares/Third_Party/SystemView/SEGGER/SEGGER_SYSVIEW.c **** *  Function description
1467:Middlewares/Third_Party/SystemView/SEGGER/SEGGER_SYSVIEW.c **** *    Formats and sends a SystemView packet containing 3 U32 parameter payload.
1468:Middlewares/Third_Party/SystemView/SEGGER/SEGGER_SYSVIEW.c **** *
1469:Middlewares/Third_Party/SystemView/SEGGER/SEGGER_SYSVIEW.c **** *  Parameters
1470:Middlewares/Third_Party/SystemView/SEGGER/SEGGER_SYSVIEW.c **** *    EventID - SystemView event ID.
1471:Middlewares/Third_Party/SystemView/SEGGER/SEGGER_SYSVIEW.c **** *    Para0   - The 32-bit parameter encoded to SystemView packet payload.
1472:Middlewares/Third_Party/SystemView/SEGGER/SEGGER_SYSVIEW.c **** *    Para1   - The 32-bit parameter encoded to SystemView packet payload.
1473:Middlewares/Third_Party/SystemView/SEGGER/SEGGER_SYSVIEW.c **** *    Para2   - The 32-bit parameter encoded to SystemView packet payload.
1474:Middlewares/Third_Party/SystemView/SEGGER/SEGGER_SYSVIEW.c **** */
1475:Middlewares/Third_Party/SystemView/SEGGER/SEGGER_SYSVIEW.c **** void SEGGER_SYSVIEW_RecordU32x3(unsigned int EventID, U32 Para0, U32 Para1, U32 Para2) {
1476:Middlewares/Third_Party/SystemView/SEGGER/SEGGER_SYSVIEW.c ****   U8* pPayload;
1477:Middlewares/Third_Party/SystemView/SEGGER/SEGGER_SYSVIEW.c ****   U8* pPayloadStart;
1478:Middlewares/Third_Party/SystemView/SEGGER/SEGGER_SYSVIEW.c ****   RECORD_START(SEGGER_SYSVIEW_INFO_SIZE + 3 * SEGGER_SYSVIEW_QUANTA_U32);
1479:Middlewares/Third_Party/SystemView/SEGGER/SEGGER_SYSVIEW.c ****   //
1480:Middlewares/Third_Party/SystemView/SEGGER/SEGGER_SYSVIEW.c ****   pPayload = pPayloadStart;
1481:Middlewares/Third_Party/SystemView/SEGGER/SEGGER_SYSVIEW.c ****   ENCODE_U32(pPayload, Para0);
1482:Middlewares/Third_Party/SystemView/SEGGER/SEGGER_SYSVIEW.c ****   ENCODE_U32(pPayload, Para1);
1483:Middlewares/Third_Party/SystemView/SEGGER/SEGGER_SYSVIEW.c ****   ENCODE_U32(pPayload, Para2);
1484:Middlewares/Third_Party/SystemView/SEGGER/SEGGER_SYSVIEW.c ****   _SendPacket(pPayloadStart, pPayload, EventID);
1485:Middlewares/Third_Party/SystemView/SEGGER/SEGGER_SYSVIEW.c ****   RECORD_END();
1486:Middlewares/Third_Party/SystemView/SEGGER/SEGGER_SYSVIEW.c **** }
1487:Middlewares/Third_Party/SystemView/SEGGER/SEGGER_SYSVIEW.c **** 
1488:Middlewares/Third_Party/SystemView/SEGGER/SEGGER_SYSVIEW.c **** /*********************************************************************
1489:Middlewares/Third_Party/SystemView/SEGGER/SEGGER_SYSVIEW.c **** *
1490:Middlewares/Third_Party/SystemView/SEGGER/SEGGER_SYSVIEW.c **** *       SEGGER_SYSVIEW_RecordU32x4()
1491:Middlewares/Third_Party/SystemView/SEGGER/SEGGER_SYSVIEW.c **** *
1492:Middlewares/Third_Party/SystemView/SEGGER/SEGGER_SYSVIEW.c **** *  Function description
1493:Middlewares/Third_Party/SystemView/SEGGER/SEGGER_SYSVIEW.c **** *    Formats and sends a SystemView packet containing 4 U32 parameter payload.
1494:Middlewares/Third_Party/SystemView/SEGGER/SEGGER_SYSVIEW.c **** *
1495:Middlewares/Third_Party/SystemView/SEGGER/SEGGER_SYSVIEW.c **** *  Parameters
1496:Middlewares/Third_Party/SystemView/SEGGER/SEGGER_SYSVIEW.c **** *    EventID - SystemView event ID.
1497:Middlewares/Third_Party/SystemView/SEGGER/SEGGER_SYSVIEW.c **** *    Para0   - The 32-bit parameter encoded to SystemView packet payload.
1498:Middlewares/Third_Party/SystemView/SEGGER/SEGGER_SYSVIEW.c **** *    Para1   - The 32-bit parameter encoded to SystemView packet payload.
1499:Middlewares/Third_Party/SystemView/SEGGER/SEGGER_SYSVIEW.c **** *    Para2   - The 32-bit parameter encoded to SystemView packet payload.
1500:Middlewares/Third_Party/SystemView/SEGGER/SEGGER_SYSVIEW.c **** *    Para3   - The 32-bit parameter encoded to SystemView packet payload.
1501:Middlewares/Third_Party/SystemView/SEGGER/SEGGER_SYSVIEW.c **** */
1502:Middlewares/Third_Party/SystemView/SEGGER/SEGGER_SYSVIEW.c **** void SEGGER_SYSVIEW_RecordU32x4(unsigned int EventID, U32 Para0, U32 Para1, U32 Para2, U32 Para3) {
1503:Middlewares/Third_Party/SystemView/SEGGER/SEGGER_SYSVIEW.c ****   U8* pPayload;
1504:Middlewares/Third_Party/SystemView/SEGGER/SEGGER_SYSVIEW.c ****   U8* pPayloadStart;
1505:Middlewares/Third_Party/SystemView/SEGGER/SEGGER_SYSVIEW.c ****   RECORD_START(SEGGER_SYSVIEW_INFO_SIZE + 4 * SEGGER_SYSVIEW_QUANTA_U32);
1506:Middlewares/Third_Party/SystemView/SEGGER/SEGGER_SYSVIEW.c ****   //
1507:Middlewares/Third_Party/SystemView/SEGGER/SEGGER_SYSVIEW.c ****   pPayload = pPayloadStart;
1508:Middlewares/Third_Party/SystemView/SEGGER/SEGGER_SYSVIEW.c ****   ENCODE_U32(pPayload, Para0);
1509:Middlewares/Third_Party/SystemView/SEGGER/SEGGER_SYSVIEW.c ****   ENCODE_U32(pPayload, Para1);
1510:Middlewares/Third_Party/SystemView/SEGGER/SEGGER_SYSVIEW.c ****   ENCODE_U32(pPayload, Para2);
1511:Middlewares/Third_Party/SystemView/SEGGER/SEGGER_SYSVIEW.c ****   ENCODE_U32(pPayload, Para3);
1512:Middlewares/Third_Party/SystemView/SEGGER/SEGGER_SYSVIEW.c ****   _SendPacket(pPayloadStart, pPayload, EventID);
1513:Middlewares/Third_Party/SystemView/SEGGER/SEGGER_SYSVIEW.c ****   RECORD_END();
1514:Middlewares/Third_Party/SystemView/SEGGER/SEGGER_SYSVIEW.c **** }
1515:Middlewares/Third_Party/SystemView/SEGGER/SEGGER_SYSVIEW.c **** 
1516:Middlewares/Third_Party/SystemView/SEGGER/SEGGER_SYSVIEW.c **** /*********************************************************************
1517:Middlewares/Third_Party/SystemView/SEGGER/SEGGER_SYSVIEW.c **** *
1518:Middlewares/Third_Party/SystemView/SEGGER/SEGGER_SYSVIEW.c **** *       SEGGER_SYSVIEW_RecordU32x5()
ARM GAS  C:\Users\KETEN_~1\AppData\Local\Temp\cck9qv27.s 			page 38


1519:Middlewares/Third_Party/SystemView/SEGGER/SEGGER_SYSVIEW.c **** *
1520:Middlewares/Third_Party/SystemView/SEGGER/SEGGER_SYSVIEW.c **** *  Function description
1521:Middlewares/Third_Party/SystemView/SEGGER/SEGGER_SYSVIEW.c **** *    Formats and sends a SystemView packet containing 5 U32 parameter payload.
1522:Middlewares/Third_Party/SystemView/SEGGER/SEGGER_SYSVIEW.c **** *
1523:Middlewares/Third_Party/SystemView/SEGGER/SEGGER_SYSVIEW.c **** *  Parameters
1524:Middlewares/Third_Party/SystemView/SEGGER/SEGGER_SYSVIEW.c **** *    EventID - SystemView event ID.
1525:Middlewares/Third_Party/SystemView/SEGGER/SEGGER_SYSVIEW.c **** *    Para0   - The 32-bit parameter encoded to SystemView packet payload.
1526:Middlewares/Third_Party/SystemView/SEGGER/SEGGER_SYSVIEW.c **** *    Para1   - The 32-bit parameter encoded to SystemView packet payload.
1527:Middlewares/Third_Party/SystemView/SEGGER/SEGGER_SYSVIEW.c **** *    Para2   - The 32-bit parameter encoded to SystemView packet payload.
1528:Middlewares/Third_Party/SystemView/SEGGER/SEGGER_SYSVIEW.c **** *    Para3   - The 32-bit parameter encoded to SystemView packet payload.
1529:Middlewares/Third_Party/SystemView/SEGGER/SEGGER_SYSVIEW.c **** *    Para4   - The 32-bit parameter encoded to SystemView packet payload.
1530:Middlewares/Third_Party/SystemView/SEGGER/SEGGER_SYSVIEW.c **** */
1531:Middlewares/Third_Party/SystemView/SEGGER/SEGGER_SYSVIEW.c **** void SEGGER_SYSVIEW_RecordU32x5(unsigned int EventID, U32 Para0, U32 Para1, U32 Para2, U32 Para3, U
1532:Middlewares/Third_Party/SystemView/SEGGER/SEGGER_SYSVIEW.c ****   U8* pPayload;
1533:Middlewares/Third_Party/SystemView/SEGGER/SEGGER_SYSVIEW.c ****   U8* pPayloadStart;
1534:Middlewares/Third_Party/SystemView/SEGGER/SEGGER_SYSVIEW.c ****   RECORD_START(SEGGER_SYSVIEW_INFO_SIZE + 5 * SEGGER_SYSVIEW_QUANTA_U32);
1535:Middlewares/Third_Party/SystemView/SEGGER/SEGGER_SYSVIEW.c ****   //
1536:Middlewares/Third_Party/SystemView/SEGGER/SEGGER_SYSVIEW.c ****   pPayload = pPayloadStart;
1537:Middlewares/Third_Party/SystemView/SEGGER/SEGGER_SYSVIEW.c ****   ENCODE_U32(pPayload, Para0);
1538:Middlewares/Third_Party/SystemView/SEGGER/SEGGER_SYSVIEW.c ****   ENCODE_U32(pPayload, Para1);
1539:Middlewares/Third_Party/SystemView/SEGGER/SEGGER_SYSVIEW.c ****   ENCODE_U32(pPayload, Para2);
1540:Middlewares/Third_Party/SystemView/SEGGER/SEGGER_SYSVIEW.c ****   ENCODE_U32(pPayload, Para3);
1541:Middlewares/Third_Party/SystemView/SEGGER/SEGGER_SYSVIEW.c ****   ENCODE_U32(pPayload, Para4);
1542:Middlewares/Third_Party/SystemView/SEGGER/SEGGER_SYSVIEW.c ****   _SendPacket(pPayloadStart, pPayload, EventID);
1543:Middlewares/Third_Party/SystemView/SEGGER/SEGGER_SYSVIEW.c ****   RECORD_END();
1544:Middlewares/Third_Party/SystemView/SEGGER/SEGGER_SYSVIEW.c **** }
1545:Middlewares/Third_Party/SystemView/SEGGER/SEGGER_SYSVIEW.c **** 
1546:Middlewares/Third_Party/SystemView/SEGGER/SEGGER_SYSVIEW.c **** /*********************************************************************
1547:Middlewares/Third_Party/SystemView/SEGGER/SEGGER_SYSVIEW.c **** *
1548:Middlewares/Third_Party/SystemView/SEGGER/SEGGER_SYSVIEW.c **** *       SEGGER_SYSVIEW_RecordU32x6()
1549:Middlewares/Third_Party/SystemView/SEGGER/SEGGER_SYSVIEW.c **** *
1550:Middlewares/Third_Party/SystemView/SEGGER/SEGGER_SYSVIEW.c **** *  Function description
1551:Middlewares/Third_Party/SystemView/SEGGER/SEGGER_SYSVIEW.c **** *    Formats and sends a SystemView packet containing 6 U32 parameter payload.
1552:Middlewares/Third_Party/SystemView/SEGGER/SEGGER_SYSVIEW.c **** *
1553:Middlewares/Third_Party/SystemView/SEGGER/SEGGER_SYSVIEW.c **** *  Parameters
1554:Middlewares/Third_Party/SystemView/SEGGER/SEGGER_SYSVIEW.c **** *    EventID - SystemView event ID.
1555:Middlewares/Third_Party/SystemView/SEGGER/SEGGER_SYSVIEW.c **** *    Para0   - The 32-bit parameter encoded to SystemView packet payload.
1556:Middlewares/Third_Party/SystemView/SEGGER/SEGGER_SYSVIEW.c **** *    Para1   - The 32-bit parameter encoded to SystemView packet payload.
1557:Middlewares/Third_Party/SystemView/SEGGER/SEGGER_SYSVIEW.c **** *    Para2   - The 32-bit parameter encoded to SystemView packet payload.
1558:Middlewares/Third_Party/SystemView/SEGGER/SEGGER_SYSVIEW.c **** *    Para3   - The 32-bit parameter encoded to SystemView packet payload.
1559:Middlewares/Third_Party/SystemView/SEGGER/SEGGER_SYSVIEW.c **** *    Para4   - The 32-bit parameter encoded to SystemView packet payload.
1560:Middlewares/Third_Party/SystemView/SEGGER/SEGGER_SYSVIEW.c **** *    Para5   - The 32-bit parameter encoded to SystemView packet payload.
1561:Middlewares/Third_Party/SystemView/SEGGER/SEGGER_SYSVIEW.c **** */
1562:Middlewares/Third_Party/SystemView/SEGGER/SEGGER_SYSVIEW.c **** void SEGGER_SYSVIEW_RecordU32x6(unsigned int EventID, U32 Para0, U32 Para1, U32 Para2, U32 Para3, U
1563:Middlewares/Third_Party/SystemView/SEGGER/SEGGER_SYSVIEW.c ****   U8* pPayload;
1564:Middlewares/Third_Party/SystemView/SEGGER/SEGGER_SYSVIEW.c ****   U8* pPayloadStart;
1565:Middlewares/Third_Party/SystemView/SEGGER/SEGGER_SYSVIEW.c ****   RECORD_START(SEGGER_SYSVIEW_INFO_SIZE + 6 * SEGGER_SYSVIEW_QUANTA_U32);
1566:Middlewares/Third_Party/SystemView/SEGGER/SEGGER_SYSVIEW.c ****   //
1567:Middlewares/Third_Party/SystemView/SEGGER/SEGGER_SYSVIEW.c ****   pPayload = pPayloadStart;
1568:Middlewares/Third_Party/SystemView/SEGGER/SEGGER_SYSVIEW.c ****   ENCODE_U32(pPayload, Para0);
1569:Middlewares/Third_Party/SystemView/SEGGER/SEGGER_SYSVIEW.c ****   ENCODE_U32(pPayload, Para1);
1570:Middlewares/Third_Party/SystemView/SEGGER/SEGGER_SYSVIEW.c ****   ENCODE_U32(pPayload, Para2);
1571:Middlewares/Third_Party/SystemView/SEGGER/SEGGER_SYSVIEW.c ****   ENCODE_U32(pPayload, Para3);
1572:Middlewares/Third_Party/SystemView/SEGGER/SEGGER_SYSVIEW.c ****   ENCODE_U32(pPayload, Para4);
1573:Middlewares/Third_Party/SystemView/SEGGER/SEGGER_SYSVIEW.c ****   ENCODE_U32(pPayload, Para5);
1574:Middlewares/Third_Party/SystemView/SEGGER/SEGGER_SYSVIEW.c ****   _SendPacket(pPayloadStart, pPayload, EventID);
1575:Middlewares/Third_Party/SystemView/SEGGER/SEGGER_SYSVIEW.c ****   RECORD_END();
ARM GAS  C:\Users\KETEN_~1\AppData\Local\Temp\cck9qv27.s 			page 39


1576:Middlewares/Third_Party/SystemView/SEGGER/SEGGER_SYSVIEW.c **** }
1577:Middlewares/Third_Party/SystemView/SEGGER/SEGGER_SYSVIEW.c **** 
1578:Middlewares/Third_Party/SystemView/SEGGER/SEGGER_SYSVIEW.c **** /*********************************************************************
1579:Middlewares/Third_Party/SystemView/SEGGER/SEGGER_SYSVIEW.c **** *
1580:Middlewares/Third_Party/SystemView/SEGGER/SEGGER_SYSVIEW.c **** *       SEGGER_SYSVIEW_RecordU32x7()
1581:Middlewares/Third_Party/SystemView/SEGGER/SEGGER_SYSVIEW.c **** *
1582:Middlewares/Third_Party/SystemView/SEGGER/SEGGER_SYSVIEW.c **** *  Function description
1583:Middlewares/Third_Party/SystemView/SEGGER/SEGGER_SYSVIEW.c **** *    Formats and sends a SystemView packet containing 7 U32 parameter payload.
1584:Middlewares/Third_Party/SystemView/SEGGER/SEGGER_SYSVIEW.c **** *
1585:Middlewares/Third_Party/SystemView/SEGGER/SEGGER_SYSVIEW.c **** *  Parameters
1586:Middlewares/Third_Party/SystemView/SEGGER/SEGGER_SYSVIEW.c **** *    EventID - SystemView event ID.
1587:Middlewares/Third_Party/SystemView/SEGGER/SEGGER_SYSVIEW.c **** *    Para0   - The 32-bit parameter encoded to SystemView packet payload.
1588:Middlewares/Third_Party/SystemView/SEGGER/SEGGER_SYSVIEW.c **** *    Para1   - The 32-bit parameter encoded to SystemView packet payload.
1589:Middlewares/Third_Party/SystemView/SEGGER/SEGGER_SYSVIEW.c **** *    Para2   - The 32-bit parameter encoded to SystemView packet payload.
1590:Middlewares/Third_Party/SystemView/SEGGER/SEGGER_SYSVIEW.c **** *    Para3   - The 32-bit parameter encoded to SystemView packet payload.
1591:Middlewares/Third_Party/SystemView/SEGGER/SEGGER_SYSVIEW.c **** *    Para4   - The 32-bit parameter encoded to SystemView packet payload.
1592:Middlewares/Third_Party/SystemView/SEGGER/SEGGER_SYSVIEW.c **** *    Para5   - The 32-bit parameter encoded to SystemView packet payload.
1593:Middlewares/Third_Party/SystemView/SEGGER/SEGGER_SYSVIEW.c **** *    Para6   - The 32-bit parameter encoded to SystemView packet payload.
1594:Middlewares/Third_Party/SystemView/SEGGER/SEGGER_SYSVIEW.c **** */
1595:Middlewares/Third_Party/SystemView/SEGGER/SEGGER_SYSVIEW.c **** void SEGGER_SYSVIEW_RecordU32x7(unsigned int EventID, U32 Para0, U32 Para1, U32 Para2, U32 Para3, U
1596:Middlewares/Third_Party/SystemView/SEGGER/SEGGER_SYSVIEW.c ****   U8* pPayload;
1597:Middlewares/Third_Party/SystemView/SEGGER/SEGGER_SYSVIEW.c ****   U8* pPayloadStart;
1598:Middlewares/Third_Party/SystemView/SEGGER/SEGGER_SYSVIEW.c ****   RECORD_START(SEGGER_SYSVIEW_INFO_SIZE + 7 * SEGGER_SYSVIEW_QUANTA_U32);
1599:Middlewares/Third_Party/SystemView/SEGGER/SEGGER_SYSVIEW.c ****   //
1600:Middlewares/Third_Party/SystemView/SEGGER/SEGGER_SYSVIEW.c ****   pPayload = pPayloadStart;
1601:Middlewares/Third_Party/SystemView/SEGGER/SEGGER_SYSVIEW.c ****   ENCODE_U32(pPayload, Para0);
1602:Middlewares/Third_Party/SystemView/SEGGER/SEGGER_SYSVIEW.c ****   ENCODE_U32(pPayload, Para1);
1603:Middlewares/Third_Party/SystemView/SEGGER/SEGGER_SYSVIEW.c ****   ENCODE_U32(pPayload, Para2);
1604:Middlewares/Third_Party/SystemView/SEGGER/SEGGER_SYSVIEW.c ****   ENCODE_U32(pPayload, Para3);
1605:Middlewares/Third_Party/SystemView/SEGGER/SEGGER_SYSVIEW.c ****   ENCODE_U32(pPayload, Para4);
1606:Middlewares/Third_Party/SystemView/SEGGER/SEGGER_SYSVIEW.c ****   ENCODE_U32(pPayload, Para5);
1607:Middlewares/Third_Party/SystemView/SEGGER/SEGGER_SYSVIEW.c ****   ENCODE_U32(pPayload, Para6);
1608:Middlewares/Third_Party/SystemView/SEGGER/SEGGER_SYSVIEW.c ****   _SendPacket(pPayloadStart, pPayload, EventID);
1609:Middlewares/Third_Party/SystemView/SEGGER/SEGGER_SYSVIEW.c ****   RECORD_END();
1610:Middlewares/Third_Party/SystemView/SEGGER/SEGGER_SYSVIEW.c **** }
1611:Middlewares/Third_Party/SystemView/SEGGER/SEGGER_SYSVIEW.c **** 
1612:Middlewares/Third_Party/SystemView/SEGGER/SEGGER_SYSVIEW.c **** /*********************************************************************
1613:Middlewares/Third_Party/SystemView/SEGGER/SEGGER_SYSVIEW.c **** *
1614:Middlewares/Third_Party/SystemView/SEGGER/SEGGER_SYSVIEW.c **** *       SEGGER_SYSVIEW_RecordU32x8()
1615:Middlewares/Third_Party/SystemView/SEGGER/SEGGER_SYSVIEW.c **** *
1616:Middlewares/Third_Party/SystemView/SEGGER/SEGGER_SYSVIEW.c **** *  Function description
1617:Middlewares/Third_Party/SystemView/SEGGER/SEGGER_SYSVIEW.c **** *    Formats and sends a SystemView packet containing 8 U32 parameter payload.
1618:Middlewares/Third_Party/SystemView/SEGGER/SEGGER_SYSVIEW.c **** *
1619:Middlewares/Third_Party/SystemView/SEGGER/SEGGER_SYSVIEW.c **** *  Parameters
1620:Middlewares/Third_Party/SystemView/SEGGER/SEGGER_SYSVIEW.c **** *    EventID - SystemView event ID.
1621:Middlewares/Third_Party/SystemView/SEGGER/SEGGER_SYSVIEW.c **** *    Para0   - The 32-bit parameter encoded to SystemView packet payload.
1622:Middlewares/Third_Party/SystemView/SEGGER/SEGGER_SYSVIEW.c **** *    Para1   - The 32-bit parameter encoded to SystemView packet payload.
1623:Middlewares/Third_Party/SystemView/SEGGER/SEGGER_SYSVIEW.c **** *    Para2   - The 32-bit parameter encoded to SystemView packet payload.
1624:Middlewares/Third_Party/SystemView/SEGGER/SEGGER_SYSVIEW.c **** *    Para3   - The 32-bit parameter encoded to SystemView packet payload.
1625:Middlewares/Third_Party/SystemView/SEGGER/SEGGER_SYSVIEW.c **** *    Para4   - The 32-bit parameter encoded to SystemView packet payload.
1626:Middlewares/Third_Party/SystemView/SEGGER/SEGGER_SYSVIEW.c **** *    Para5   - The 32-bit parameter encoded to SystemView packet payload.
1627:Middlewares/Third_Party/SystemView/SEGGER/SEGGER_SYSVIEW.c **** *    Para6   - The 32-bit parameter encoded to SystemView packet payload.
1628:Middlewares/Third_Party/SystemView/SEGGER/SEGGER_SYSVIEW.c **** *    Para7   - The 32-bit parameter encoded to SystemView packet payload.
1629:Middlewares/Third_Party/SystemView/SEGGER/SEGGER_SYSVIEW.c **** */
1630:Middlewares/Third_Party/SystemView/SEGGER/SEGGER_SYSVIEW.c **** void SEGGER_SYSVIEW_RecordU32x8(unsigned int EventID, U32 Para0, U32 Para1, U32 Para2, U32 Para3, U
1631:Middlewares/Third_Party/SystemView/SEGGER/SEGGER_SYSVIEW.c ****   U8* pPayload;
1632:Middlewares/Third_Party/SystemView/SEGGER/SEGGER_SYSVIEW.c ****   U8* pPayloadStart;
ARM GAS  C:\Users\KETEN_~1\AppData\Local\Temp\cck9qv27.s 			page 40


1633:Middlewares/Third_Party/SystemView/SEGGER/SEGGER_SYSVIEW.c ****   RECORD_START(SEGGER_SYSVIEW_INFO_SIZE + 8 * SEGGER_SYSVIEW_QUANTA_U32);
1634:Middlewares/Third_Party/SystemView/SEGGER/SEGGER_SYSVIEW.c ****   //
1635:Middlewares/Third_Party/SystemView/SEGGER/SEGGER_SYSVIEW.c ****   pPayload = pPayloadStart;
1636:Middlewares/Third_Party/SystemView/SEGGER/SEGGER_SYSVIEW.c ****   ENCODE_U32(pPayload, Para0);
1637:Middlewares/Third_Party/SystemView/SEGGER/SEGGER_SYSVIEW.c ****   ENCODE_U32(pPayload, Para1);
1638:Middlewares/Third_Party/SystemView/SEGGER/SEGGER_SYSVIEW.c ****   ENCODE_U32(pPayload, Para2);
1639:Middlewares/Third_Party/SystemView/SEGGER/SEGGER_SYSVIEW.c ****   ENCODE_U32(pPayload, Para3);
1640:Middlewares/Third_Party/SystemView/SEGGER/SEGGER_SYSVIEW.c ****   ENCODE_U32(pPayload, Para4);
1641:Middlewares/Third_Party/SystemView/SEGGER/SEGGER_SYSVIEW.c ****   ENCODE_U32(pPayload, Para5);
1642:Middlewares/Third_Party/SystemView/SEGGER/SEGGER_SYSVIEW.c ****   ENCODE_U32(pPayload, Para6);
1643:Middlewares/Third_Party/SystemView/SEGGER/SEGGER_SYSVIEW.c ****   ENCODE_U32(pPayload, Para7);
1644:Middlewares/Third_Party/SystemView/SEGGER/SEGGER_SYSVIEW.c ****   _SendPacket(pPayloadStart, pPayload, EventID);
1645:Middlewares/Third_Party/SystemView/SEGGER/SEGGER_SYSVIEW.c ****   RECORD_END();
1646:Middlewares/Third_Party/SystemView/SEGGER/SEGGER_SYSVIEW.c **** }
1647:Middlewares/Third_Party/SystemView/SEGGER/SEGGER_SYSVIEW.c **** 
1648:Middlewares/Third_Party/SystemView/SEGGER/SEGGER_SYSVIEW.c **** /*********************************************************************
1649:Middlewares/Third_Party/SystemView/SEGGER/SEGGER_SYSVIEW.c **** *
1650:Middlewares/Third_Party/SystemView/SEGGER/SEGGER_SYSVIEW.c **** *       SEGGER_SYSVIEW_RecordU32x9()
1651:Middlewares/Third_Party/SystemView/SEGGER/SEGGER_SYSVIEW.c **** *
1652:Middlewares/Third_Party/SystemView/SEGGER/SEGGER_SYSVIEW.c **** *  Function description
1653:Middlewares/Third_Party/SystemView/SEGGER/SEGGER_SYSVIEW.c **** *    Formats and sends a SystemView packet containing 9 U32 parameter payload.
1654:Middlewares/Third_Party/SystemView/SEGGER/SEGGER_SYSVIEW.c **** *
1655:Middlewares/Third_Party/SystemView/SEGGER/SEGGER_SYSVIEW.c **** *  Parameters
1656:Middlewares/Third_Party/SystemView/SEGGER/SEGGER_SYSVIEW.c **** *    EventID - SystemView event ID.
1657:Middlewares/Third_Party/SystemView/SEGGER/SEGGER_SYSVIEW.c **** *    Para0   - The 32-bit parameter encoded to SystemView packet payload.
1658:Middlewares/Third_Party/SystemView/SEGGER/SEGGER_SYSVIEW.c **** *    Para1   - The 32-bit parameter encoded to SystemView packet payload.
1659:Middlewares/Third_Party/SystemView/SEGGER/SEGGER_SYSVIEW.c **** *    Para2   - The 32-bit parameter encoded to SystemView packet payload.
1660:Middlewares/Third_Party/SystemView/SEGGER/SEGGER_SYSVIEW.c **** *    Para3   - The 32-bit parameter encoded to SystemView packet payload.
1661:Middlewares/Third_Party/SystemView/SEGGER/SEGGER_SYSVIEW.c **** *    Para4   - The 32-bit parameter encoded to SystemView packet payload.
1662:Middlewares/Third_Party/SystemView/SEGGER/SEGGER_SYSVIEW.c **** *    Para5   - The 32-bit parameter encoded to SystemView packet payload.
1663:Middlewares/Third_Party/SystemView/SEGGER/SEGGER_SYSVIEW.c **** *    Para6   - The 32-bit parameter encoded to SystemView packet payload.
1664:Middlewares/Third_Party/SystemView/SEGGER/SEGGER_SYSVIEW.c **** *    Para7   - The 32-bit parameter encoded to SystemView packet payload.
1665:Middlewares/Third_Party/SystemView/SEGGER/SEGGER_SYSVIEW.c **** *    Para8   - The 32-bit parameter encoded to SystemView packet payload.
1666:Middlewares/Third_Party/SystemView/SEGGER/SEGGER_SYSVIEW.c **** */
1667:Middlewares/Third_Party/SystemView/SEGGER/SEGGER_SYSVIEW.c **** void SEGGER_SYSVIEW_RecordU32x9(unsigned int EventID, U32 Para0, U32 Para1, U32 Para2, U32 Para3, U
1668:Middlewares/Third_Party/SystemView/SEGGER/SEGGER_SYSVIEW.c ****   U8* pPayload;
1669:Middlewares/Third_Party/SystemView/SEGGER/SEGGER_SYSVIEW.c ****   U8* pPayloadStart;
1670:Middlewares/Third_Party/SystemView/SEGGER/SEGGER_SYSVIEW.c ****   RECORD_START(SEGGER_SYSVIEW_INFO_SIZE + 9 * SEGGER_SYSVIEW_QUANTA_U32);
1671:Middlewares/Third_Party/SystemView/SEGGER/SEGGER_SYSVIEW.c ****   //
1672:Middlewares/Third_Party/SystemView/SEGGER/SEGGER_SYSVIEW.c ****   pPayload = pPayloadStart;
1673:Middlewares/Third_Party/SystemView/SEGGER/SEGGER_SYSVIEW.c ****   ENCODE_U32(pPayload, Para0);
1674:Middlewares/Third_Party/SystemView/SEGGER/SEGGER_SYSVIEW.c ****   ENCODE_U32(pPayload, Para1);
1675:Middlewares/Third_Party/SystemView/SEGGER/SEGGER_SYSVIEW.c ****   ENCODE_U32(pPayload, Para2);
1676:Middlewares/Third_Party/SystemView/SEGGER/SEGGER_SYSVIEW.c ****   ENCODE_U32(pPayload, Para3);
1677:Middlewares/Third_Party/SystemView/SEGGER/SEGGER_SYSVIEW.c ****   ENCODE_U32(pPayload, Para4);
1678:Middlewares/Third_Party/SystemView/SEGGER/SEGGER_SYSVIEW.c ****   ENCODE_U32(pPayload, Para5);
1679:Middlewares/Third_Party/SystemView/SEGGER/SEGGER_SYSVIEW.c ****   ENCODE_U32(pPayload, Para6);
1680:Middlewares/Third_Party/SystemView/SEGGER/SEGGER_SYSVIEW.c ****   ENCODE_U32(pPayload, Para7);
1681:Middlewares/Third_Party/SystemView/SEGGER/SEGGER_SYSVIEW.c ****   ENCODE_U32(pPayload, Para8);
1682:Middlewares/Third_Party/SystemView/SEGGER/SEGGER_SYSVIEW.c ****   _SendPacket(pPayloadStart, pPayload, EventID);
1683:Middlewares/Third_Party/SystemView/SEGGER/SEGGER_SYSVIEW.c ****   RECORD_END();
1684:Middlewares/Third_Party/SystemView/SEGGER/SEGGER_SYSVIEW.c **** }
1685:Middlewares/Third_Party/SystemView/SEGGER/SEGGER_SYSVIEW.c **** 
1686:Middlewares/Third_Party/SystemView/SEGGER/SEGGER_SYSVIEW.c **** /*********************************************************************
1687:Middlewares/Third_Party/SystemView/SEGGER/SEGGER_SYSVIEW.c **** *
1688:Middlewares/Third_Party/SystemView/SEGGER/SEGGER_SYSVIEW.c **** *       SEGGER_SYSVIEW_RecordU32x10()
1689:Middlewares/Third_Party/SystemView/SEGGER/SEGGER_SYSVIEW.c **** *
ARM GAS  C:\Users\KETEN_~1\AppData\Local\Temp\cck9qv27.s 			page 41


1690:Middlewares/Third_Party/SystemView/SEGGER/SEGGER_SYSVIEW.c **** *  Function description
1691:Middlewares/Third_Party/SystemView/SEGGER/SEGGER_SYSVIEW.c **** *    Formats and sends a SystemView packet containing 10 U32 parameter payload.
1692:Middlewares/Third_Party/SystemView/SEGGER/SEGGER_SYSVIEW.c **** *
1693:Middlewares/Third_Party/SystemView/SEGGER/SEGGER_SYSVIEW.c **** *  Parameters
1694:Middlewares/Third_Party/SystemView/SEGGER/SEGGER_SYSVIEW.c **** *    EventID - SystemView event ID.
1695:Middlewares/Third_Party/SystemView/SEGGER/SEGGER_SYSVIEW.c **** *    Para0   - The 32-bit parameter encoded to SystemView packet payload.
1696:Middlewares/Third_Party/SystemView/SEGGER/SEGGER_SYSVIEW.c **** *    Para1   - The 32-bit parameter encoded to SystemView packet payload.
1697:Middlewares/Third_Party/SystemView/SEGGER/SEGGER_SYSVIEW.c **** *    Para2   - The 32-bit parameter encoded to SystemView packet payload.
1698:Middlewares/Third_Party/SystemView/SEGGER/SEGGER_SYSVIEW.c **** *    Para3   - The 32-bit parameter encoded to SystemView packet payload.
1699:Middlewares/Third_Party/SystemView/SEGGER/SEGGER_SYSVIEW.c **** *    Para4   - The 32-bit parameter encoded to SystemView packet payload.
1700:Middlewares/Third_Party/SystemView/SEGGER/SEGGER_SYSVIEW.c **** *    Para5   - The 32-bit parameter encoded to SystemView packet payload.
1701:Middlewares/Third_Party/SystemView/SEGGER/SEGGER_SYSVIEW.c **** *    Para6   - The 32-bit parameter encoded to SystemView packet payload.
1702:Middlewares/Third_Party/SystemView/SEGGER/SEGGER_SYSVIEW.c **** *    Para7   - The 32-bit parameter encoded to SystemView packet payload.
1703:Middlewares/Third_Party/SystemView/SEGGER/SEGGER_SYSVIEW.c **** *    Para8   - The 32-bit parameter encoded to SystemView packet payload.
1704:Middlewares/Third_Party/SystemView/SEGGER/SEGGER_SYSVIEW.c **** *    Para9   - The 32-bit parameter encoded to SystemView packet payload.
1705:Middlewares/Third_Party/SystemView/SEGGER/SEGGER_SYSVIEW.c **** */
1706:Middlewares/Third_Party/SystemView/SEGGER/SEGGER_SYSVIEW.c **** void SEGGER_SYSVIEW_RecordU32x10(unsigned int EventID, U32 Para0, U32 Para1, U32 Para2, U32 Para3, 
1707:Middlewares/Third_Party/SystemView/SEGGER/SEGGER_SYSVIEW.c ****   U8* pPayload;
1708:Middlewares/Third_Party/SystemView/SEGGER/SEGGER_SYSVIEW.c ****   U8* pPayloadStart;
1709:Middlewares/Third_Party/SystemView/SEGGER/SEGGER_SYSVIEW.c ****   RECORD_START(SEGGER_SYSVIEW_INFO_SIZE + 10 * SEGGER_SYSVIEW_QUANTA_U32);
1710:Middlewares/Third_Party/SystemView/SEGGER/SEGGER_SYSVIEW.c ****   //
1711:Middlewares/Third_Party/SystemView/SEGGER/SEGGER_SYSVIEW.c ****   pPayload = pPayloadStart;
1712:Middlewares/Third_Party/SystemView/SEGGER/SEGGER_SYSVIEW.c ****   ENCODE_U32(pPayload, Para0);
1713:Middlewares/Third_Party/SystemView/SEGGER/SEGGER_SYSVIEW.c ****   ENCODE_U32(pPayload, Para1);
1714:Middlewares/Third_Party/SystemView/SEGGER/SEGGER_SYSVIEW.c ****   ENCODE_U32(pPayload, Para2);
1715:Middlewares/Third_Party/SystemView/SEGGER/SEGGER_SYSVIEW.c ****   ENCODE_U32(pPayload, Para3);
1716:Middlewares/Third_Party/SystemView/SEGGER/SEGGER_SYSVIEW.c ****   ENCODE_U32(pPayload, Para4);
1717:Middlewares/Third_Party/SystemView/SEGGER/SEGGER_SYSVIEW.c ****   ENCODE_U32(pPayload, Para5);
1718:Middlewares/Third_Party/SystemView/SEGGER/SEGGER_SYSVIEW.c ****   ENCODE_U32(pPayload, Para6);
1719:Middlewares/Third_Party/SystemView/SEGGER/SEGGER_SYSVIEW.c ****   ENCODE_U32(pPayload, Para7);
1720:Middlewares/Third_Party/SystemView/SEGGER/SEGGER_SYSVIEW.c ****   ENCODE_U32(pPayload, Para8);
1721:Middlewares/Third_Party/SystemView/SEGGER/SEGGER_SYSVIEW.c ****   ENCODE_U32(pPayload, Para9);
1722:Middlewares/Third_Party/SystemView/SEGGER/SEGGER_SYSVIEW.c ****   _SendPacket(pPayloadStart, pPayload, EventID);
1723:Middlewares/Third_Party/SystemView/SEGGER/SEGGER_SYSVIEW.c ****   RECORD_END();
1724:Middlewares/Third_Party/SystemView/SEGGER/SEGGER_SYSVIEW.c **** }
1725:Middlewares/Third_Party/SystemView/SEGGER/SEGGER_SYSVIEW.c **** /*********************************************************************
1726:Middlewares/Third_Party/SystemView/SEGGER/SEGGER_SYSVIEW.c **** *
1727:Middlewares/Third_Party/SystemView/SEGGER/SEGGER_SYSVIEW.c **** *       SEGGER_SYSVIEW_RecordString()
1728:Middlewares/Third_Party/SystemView/SEGGER/SEGGER_SYSVIEW.c **** *
1729:Middlewares/Third_Party/SystemView/SEGGER/SEGGER_SYSVIEW.c **** *  Function description
1730:Middlewares/Third_Party/SystemView/SEGGER/SEGGER_SYSVIEW.c **** *    Formats and sends a SystemView packet containing a string.
1731:Middlewares/Third_Party/SystemView/SEGGER/SEGGER_SYSVIEW.c **** *
1732:Middlewares/Third_Party/SystemView/SEGGER/SEGGER_SYSVIEW.c **** *  Parameters
1733:Middlewares/Third_Party/SystemView/SEGGER/SEGGER_SYSVIEW.c **** *    EventID - SystemView event ID.
1734:Middlewares/Third_Party/SystemView/SEGGER/SEGGER_SYSVIEW.c **** *    pString - The string to be sent in the SystemView packet payload.
1735:Middlewares/Third_Party/SystemView/SEGGER/SEGGER_SYSVIEW.c **** *
1736:Middlewares/Third_Party/SystemView/SEGGER/SEGGER_SYSVIEW.c **** *  Additional information
1737:Middlewares/Third_Party/SystemView/SEGGER/SEGGER_SYSVIEW.c **** *    The string is encoded as a count byte followed by the contents
1738:Middlewares/Third_Party/SystemView/SEGGER/SEGGER_SYSVIEW.c **** *    of the string.
1739:Middlewares/Third_Party/SystemView/SEGGER/SEGGER_SYSVIEW.c **** *    No more than SEGGER_SYSVIEW_MAX_STRING_LEN bytes will be encoded to the payload.
1740:Middlewares/Third_Party/SystemView/SEGGER/SEGGER_SYSVIEW.c **** */
1741:Middlewares/Third_Party/SystemView/SEGGER/SEGGER_SYSVIEW.c **** void SEGGER_SYSVIEW_RecordString(unsigned int EventID, const char* pString) {
1742:Middlewares/Third_Party/SystemView/SEGGER/SEGGER_SYSVIEW.c ****   U8* pPayload;
1743:Middlewares/Third_Party/SystemView/SEGGER/SEGGER_SYSVIEW.c ****   U8* pPayloadStart;
1744:Middlewares/Third_Party/SystemView/SEGGER/SEGGER_SYSVIEW.c ****   RECORD_START(SEGGER_SYSVIEW_INFO_SIZE + 1 + SEGGER_SYSVIEW_MAX_STRING_LEN);
1745:Middlewares/Third_Party/SystemView/SEGGER/SEGGER_SYSVIEW.c ****   //
1746:Middlewares/Third_Party/SystemView/SEGGER/SEGGER_SYSVIEW.c ****   pPayload = _EncodeStr(pPayloadStart, pString, SEGGER_SYSVIEW_MAX_STRING_LEN);
ARM GAS  C:\Users\KETEN_~1\AppData\Local\Temp\cck9qv27.s 			page 42


1747:Middlewares/Third_Party/SystemView/SEGGER/SEGGER_SYSVIEW.c ****   _SendPacket(pPayloadStart, pPayload, EventID);
1748:Middlewares/Third_Party/SystemView/SEGGER/SEGGER_SYSVIEW.c ****   RECORD_END();
1749:Middlewares/Third_Party/SystemView/SEGGER/SEGGER_SYSVIEW.c **** }
1750:Middlewares/Third_Party/SystemView/SEGGER/SEGGER_SYSVIEW.c **** 
1751:Middlewares/Third_Party/SystemView/SEGGER/SEGGER_SYSVIEW.c **** /*********************************************************************
1752:Middlewares/Third_Party/SystemView/SEGGER/SEGGER_SYSVIEW.c **** *
1753:Middlewares/Third_Party/SystemView/SEGGER/SEGGER_SYSVIEW.c **** *       SEGGER_SYSVIEW_Start()
1754:Middlewares/Third_Party/SystemView/SEGGER/SEGGER_SYSVIEW.c **** *
1755:Middlewares/Third_Party/SystemView/SEGGER/SEGGER_SYSVIEW.c **** *  Function description
1756:Middlewares/Third_Party/SystemView/SEGGER/SEGGER_SYSVIEW.c **** *    Start recording SystemView events.
1757:Middlewares/Third_Party/SystemView/SEGGER/SEGGER_SYSVIEW.c **** *
1758:Middlewares/Third_Party/SystemView/SEGGER/SEGGER_SYSVIEW.c **** *    This function is triggered by the SystemView Application on connect.
1759:Middlewares/Third_Party/SystemView/SEGGER/SEGGER_SYSVIEW.c **** *    For single-shot or post-mortem mode recording, it needs to be called
1760:Middlewares/Third_Party/SystemView/SEGGER/SEGGER_SYSVIEW.c **** *    by the application.
1761:Middlewares/Third_Party/SystemView/SEGGER/SEGGER_SYSVIEW.c **** *
1762:Middlewares/Third_Party/SystemView/SEGGER/SEGGER_SYSVIEW.c **** *  Additional information
1763:Middlewares/Third_Party/SystemView/SEGGER/SEGGER_SYSVIEW.c **** *    This function enables transmission of SystemView packets recorded
1764:Middlewares/Third_Party/SystemView/SEGGER/SEGGER_SYSVIEW.c **** *    by subsequent trace calls and records a SystemView Start event.
1765:Middlewares/Third_Party/SystemView/SEGGER/SEGGER_SYSVIEW.c **** *
1766:Middlewares/Third_Party/SystemView/SEGGER/SEGGER_SYSVIEW.c **** *    As part of start, a SystemView Init packet is sent, containing the system
1767:Middlewares/Third_Party/SystemView/SEGGER/SEGGER_SYSVIEW.c **** *    frequency. The list of current tasks, the current system time and the
1768:Middlewares/Third_Party/SystemView/SEGGER/SEGGER_SYSVIEW.c **** *    system description string is sent, too.
1769:Middlewares/Third_Party/SystemView/SEGGER/SEGGER_SYSVIEW.c **** *
1770:Middlewares/Third_Party/SystemView/SEGGER/SEGGER_SYSVIEW.c **** *  Notes
1771:Middlewares/Third_Party/SystemView/SEGGER/SEGGER_SYSVIEW.c **** *    SEGGER_SYSVIEW_Start and SEGGER_SYSVIEW_Stop do not nest.
1772:Middlewares/Third_Party/SystemView/SEGGER/SEGGER_SYSVIEW.c **** *    When SEGGER_SYSVIEW_CAN_RESTART is 1, each received start command
1773:Middlewares/Third_Party/SystemView/SEGGER/SEGGER_SYSVIEW.c **** *    records the system information. This is required to enable restart
1774:Middlewares/Third_Party/SystemView/SEGGER/SEGGER_SYSVIEW.c **** *    of recordings when SystemView unexpectedly disconnects without sending
1775:Middlewares/Third_Party/SystemView/SEGGER/SEGGER_SYSVIEW.c **** *    a stop command before.
1776:Middlewares/Third_Party/SystemView/SEGGER/SEGGER_SYSVIEW.c **** */
1777:Middlewares/Third_Party/SystemView/SEGGER/SEGGER_SYSVIEW.c **** void SEGGER_SYSVIEW_Start(void) {
1778:Middlewares/Third_Party/SystemView/SEGGER/SEGGER_SYSVIEW.c **** #if (SEGGER_SYSVIEW_CAN_RESTART == 0)
1779:Middlewares/Third_Party/SystemView/SEGGER/SEGGER_SYSVIEW.c ****   if (_SYSVIEW_Globals.EnableState == 0) {
1780:Middlewares/Third_Party/SystemView/SEGGER/SEGGER_SYSVIEW.c **** #endif
1781:Middlewares/Third_Party/SystemView/SEGGER/SEGGER_SYSVIEW.c ****     _SYSVIEW_Globals.EnableState = 1;
1782:Middlewares/Third_Party/SystemView/SEGGER/SEGGER_SYSVIEW.c **** #if (SEGGER_SYSVIEW_POST_MORTEM_MODE == 1)
1783:Middlewares/Third_Party/SystemView/SEGGER/SEGGER_SYSVIEW.c ****     _SendSyncInfo();
1784:Middlewares/Third_Party/SystemView/SEGGER/SEGGER_SYSVIEW.c **** #else
1785:Middlewares/Third_Party/SystemView/SEGGER/SEGGER_SYSVIEW.c ****     SEGGER_SYSVIEW_LOCK();
1786:Middlewares/Third_Party/SystemView/SEGGER/SEGGER_SYSVIEW.c ****     SEGGER_RTT_WriteSkipNoLock(CHANNEL_ID_UP, _abSync, 10);
1787:Middlewares/Third_Party/SystemView/SEGGER/SEGGER_SYSVIEW.c ****     SEGGER_SYSVIEW_UNLOCK();
1788:Middlewares/Third_Party/SystemView/SEGGER/SEGGER_SYSVIEW.c ****     SEGGER_SYSVIEW_ON_EVENT_RECORDED(10);
1789:Middlewares/Third_Party/SystemView/SEGGER/SEGGER_SYSVIEW.c ****     SEGGER_SYSVIEW_RecordVoid(SYSVIEW_EVTID_TRACE_START);
1790:Middlewares/Third_Party/SystemView/SEGGER/SEGGER_SYSVIEW.c ****     {
1791:Middlewares/Third_Party/SystemView/SEGGER/SEGGER_SYSVIEW.c ****       U8* pPayload;
1792:Middlewares/Third_Party/SystemView/SEGGER/SEGGER_SYSVIEW.c ****       U8* pPayloadStart;
1793:Middlewares/Third_Party/SystemView/SEGGER/SEGGER_SYSVIEW.c ****       RECORD_START(SEGGER_SYSVIEW_INFO_SIZE + 4 * SEGGER_SYSVIEW_QUANTA_U32);
1794:Middlewares/Third_Party/SystemView/SEGGER/SEGGER_SYSVIEW.c ****       //
1795:Middlewares/Third_Party/SystemView/SEGGER/SEGGER_SYSVIEW.c ****       pPayload = pPayloadStart;
1796:Middlewares/Third_Party/SystemView/SEGGER/SEGGER_SYSVIEW.c ****       ENCODE_U32(pPayload, _SYSVIEW_Globals.SysFreq);
1797:Middlewares/Third_Party/SystemView/SEGGER/SEGGER_SYSVIEW.c ****       ENCODE_U32(pPayload, _SYSVIEW_Globals.CPUFreq);
1798:Middlewares/Third_Party/SystemView/SEGGER/SEGGER_SYSVIEW.c ****       ENCODE_U32(pPayload, _SYSVIEW_Globals.RAMBaseAddress);
1799:Middlewares/Third_Party/SystemView/SEGGER/SEGGER_SYSVIEW.c ****       ENCODE_U32(pPayload, SEGGER_SYSVIEW_ID_SHIFT);
1800:Middlewares/Third_Party/SystemView/SEGGER/SEGGER_SYSVIEW.c ****       _SendPacket(pPayloadStart, pPayload, SYSVIEW_EVTID_INIT);
1801:Middlewares/Third_Party/SystemView/SEGGER/SEGGER_SYSVIEW.c ****       RECORD_END();
1802:Middlewares/Third_Party/SystemView/SEGGER/SEGGER_SYSVIEW.c ****     }
1803:Middlewares/Third_Party/SystemView/SEGGER/SEGGER_SYSVIEW.c ****     if (_SYSVIEW_Globals.pfSendSysDesc) {
ARM GAS  C:\Users\KETEN_~1\AppData\Local\Temp\cck9qv27.s 			page 43


1804:Middlewares/Third_Party/SystemView/SEGGER/SEGGER_SYSVIEW.c ****       _SYSVIEW_Globals.pfSendSysDesc();
1805:Middlewares/Third_Party/SystemView/SEGGER/SEGGER_SYSVIEW.c ****     }
1806:Middlewares/Third_Party/SystemView/SEGGER/SEGGER_SYSVIEW.c ****     SEGGER_SYSVIEW_RecordSystime();
1807:Middlewares/Third_Party/SystemView/SEGGER/SEGGER_SYSVIEW.c ****     SEGGER_SYSVIEW_SendTaskList();
1808:Middlewares/Third_Party/SystemView/SEGGER/SEGGER_SYSVIEW.c ****     SEGGER_SYSVIEW_SendNumModules();
1809:Middlewares/Third_Party/SystemView/SEGGER/SEGGER_SYSVIEW.c **** #endif
1810:Middlewares/Third_Party/SystemView/SEGGER/SEGGER_SYSVIEW.c **** #if (SEGGER_SYSVIEW_CAN_RESTART == 0)
1811:Middlewares/Third_Party/SystemView/SEGGER/SEGGER_SYSVIEW.c ****   }
1812:Middlewares/Third_Party/SystemView/SEGGER/SEGGER_SYSVIEW.c **** #endif
1813:Middlewares/Third_Party/SystemView/SEGGER/SEGGER_SYSVIEW.c **** }
1814:Middlewares/Third_Party/SystemView/SEGGER/SEGGER_SYSVIEW.c **** 
1815:Middlewares/Third_Party/SystemView/SEGGER/SEGGER_SYSVIEW.c **** /*********************************************************************
1816:Middlewares/Third_Party/SystemView/SEGGER/SEGGER_SYSVIEW.c **** *
1817:Middlewares/Third_Party/SystemView/SEGGER/SEGGER_SYSVIEW.c **** *       SEGGER_SYSVIEW_Stop()
1818:Middlewares/Third_Party/SystemView/SEGGER/SEGGER_SYSVIEW.c **** *
1819:Middlewares/Third_Party/SystemView/SEGGER/SEGGER_SYSVIEW.c **** *  Function description
1820:Middlewares/Third_Party/SystemView/SEGGER/SEGGER_SYSVIEW.c **** *    Stop recording SystemView events.
1821:Middlewares/Third_Party/SystemView/SEGGER/SEGGER_SYSVIEW.c **** *
1822:Middlewares/Third_Party/SystemView/SEGGER/SEGGER_SYSVIEW.c **** *    This function is triggered by the SystemView Application on disconnect.
1823:Middlewares/Third_Party/SystemView/SEGGER/SEGGER_SYSVIEW.c **** *    For single-shot or post-mortem mode recording, it can be called
1824:Middlewares/Third_Party/SystemView/SEGGER/SEGGER_SYSVIEW.c **** *    by the application.
1825:Middlewares/Third_Party/SystemView/SEGGER/SEGGER_SYSVIEW.c **** *
1826:Middlewares/Third_Party/SystemView/SEGGER/SEGGER_SYSVIEW.c **** *  Additional information
1827:Middlewares/Third_Party/SystemView/SEGGER/SEGGER_SYSVIEW.c **** *    This function disables transmission of SystemView packets recorded
1828:Middlewares/Third_Party/SystemView/SEGGER/SEGGER_SYSVIEW.c **** *    by subsequent trace calls.  If transmission is enabled when
1829:Middlewares/Third_Party/SystemView/SEGGER/SEGGER_SYSVIEW.c **** *    this function is called, a single SystemView Stop event is recorded
1830:Middlewares/Third_Party/SystemView/SEGGER/SEGGER_SYSVIEW.c **** *    to the trace, send, and then trace transmission is halted.
1831:Middlewares/Third_Party/SystemView/SEGGER/SEGGER_SYSVIEW.c **** */
1832:Middlewares/Third_Party/SystemView/SEGGER/SEGGER_SYSVIEW.c **** void SEGGER_SYSVIEW_Stop(void) {
1833:Middlewares/Third_Party/SystemView/SEGGER/SEGGER_SYSVIEW.c ****   U8* pPayloadStart;
1834:Middlewares/Third_Party/SystemView/SEGGER/SEGGER_SYSVIEW.c ****   RECORD_START(SEGGER_SYSVIEW_INFO_SIZE);
1835:Middlewares/Third_Party/SystemView/SEGGER/SEGGER_SYSVIEW.c ****   //
1836:Middlewares/Third_Party/SystemView/SEGGER/SEGGER_SYSVIEW.c ****   if (_SYSVIEW_Globals.EnableState) {
1837:Middlewares/Third_Party/SystemView/SEGGER/SEGGER_SYSVIEW.c ****     _SendPacket(pPayloadStart, pPayloadStart, SYSVIEW_EVTID_TRACE_STOP);
1838:Middlewares/Third_Party/SystemView/SEGGER/SEGGER_SYSVIEW.c ****     _SYSVIEW_Globals.EnableState = 0;
1839:Middlewares/Third_Party/SystemView/SEGGER/SEGGER_SYSVIEW.c ****   }
1840:Middlewares/Third_Party/SystemView/SEGGER/SEGGER_SYSVIEW.c ****   RECORD_END();
1841:Middlewares/Third_Party/SystemView/SEGGER/SEGGER_SYSVIEW.c **** }
1842:Middlewares/Third_Party/SystemView/SEGGER/SEGGER_SYSVIEW.c **** 
1843:Middlewares/Third_Party/SystemView/SEGGER/SEGGER_SYSVIEW.c **** /*********************************************************************
1844:Middlewares/Third_Party/SystemView/SEGGER/SEGGER_SYSVIEW.c **** *
1845:Middlewares/Third_Party/SystemView/SEGGER/SEGGER_SYSVIEW.c **** *       SEGGER_SYSVIEW_GetChannelID()
1846:Middlewares/Third_Party/SystemView/SEGGER/SEGGER_SYSVIEW.c **** *
1847:Middlewares/Third_Party/SystemView/SEGGER/SEGGER_SYSVIEW.c **** *  Function description
1848:Middlewares/Third_Party/SystemView/SEGGER/SEGGER_SYSVIEW.c **** *    Returns the RTT <Up> / <Down> channel ID used by SystemView.
1849:Middlewares/Third_Party/SystemView/SEGGER/SEGGER_SYSVIEW.c **** */
1850:Middlewares/Third_Party/SystemView/SEGGER/SEGGER_SYSVIEW.c **** int SEGGER_SYSVIEW_GetChannelID(void) {
 567              		.loc 1 1850 39 is_stmt 1 view -0
 568              		.cfi_startproc
 569              		@ args = 0, pretend = 0, frame = 0
 570              		@ frame_needed = 0, uses_anonymous_args = 0
 571              		@ link register save eliminated.
1851:Middlewares/Third_Party/SystemView/SEGGER/SEGGER_SYSVIEW.c ****   return CHANNEL_ID_UP;
 572              		.loc 1 1851 3 view .LVU178
1852:Middlewares/Third_Party/SystemView/SEGGER/SEGGER_SYSVIEW.c **** }
 573              		.loc 1 1852 1 is_stmt 0 view .LVU179
 574 0000 014B     		ldr	r3, .L41
ARM GAS  C:\Users\KETEN_~1\AppData\Local\Temp\cck9qv27.s 			page 44


 575 0002 5878     		ldrb	r0, [r3, #1]	@ zero_extendqisi2
 576 0004 7047     		bx	lr
 577              	.L42:
 578 0006 00BF     		.align	2
 579              	.L41:
 580 0008 00000000 		.word	_SYSVIEW_Globals
 581              		.cfi_endproc
 582              	.LFE27:
 584              		.section	.text.SEGGER_SYSVIEW_SendTaskList,"ax",%progbits
 585              		.align	1
 586              		.global	SEGGER_SYSVIEW_SendTaskList
 587              		.syntax unified
 588              		.thumb
 589              		.thumb_func
 591              	SEGGER_SYSVIEW_SendTaskList:
 592              	.LFB30:
1853:Middlewares/Third_Party/SystemView/SEGGER/SEGGER_SYSVIEW.c **** 
1854:Middlewares/Third_Party/SystemView/SEGGER/SEGGER_SYSVIEW.c **** /*********************************************************************
1855:Middlewares/Third_Party/SystemView/SEGGER/SEGGER_SYSVIEW.c **** *
1856:Middlewares/Third_Party/SystemView/SEGGER/SEGGER_SYSVIEW.c **** *       SEGGER_SYSVIEW_GetSysDesc()
1857:Middlewares/Third_Party/SystemView/SEGGER/SEGGER_SYSVIEW.c **** *
1858:Middlewares/Third_Party/SystemView/SEGGER/SEGGER_SYSVIEW.c **** *  Function description
1859:Middlewares/Third_Party/SystemView/SEGGER/SEGGER_SYSVIEW.c **** *    Triggers a send of the system information and description.
1860:Middlewares/Third_Party/SystemView/SEGGER/SEGGER_SYSVIEW.c **** *
1861:Middlewares/Third_Party/SystemView/SEGGER/SEGGER_SYSVIEW.c **** */
1862:Middlewares/Third_Party/SystemView/SEGGER/SEGGER_SYSVIEW.c **** void SEGGER_SYSVIEW_GetSysDesc(void) {
1863:Middlewares/Third_Party/SystemView/SEGGER/SEGGER_SYSVIEW.c ****   U8* pPayload;
1864:Middlewares/Third_Party/SystemView/SEGGER/SEGGER_SYSVIEW.c ****   U8* pPayloadStart;
1865:Middlewares/Third_Party/SystemView/SEGGER/SEGGER_SYSVIEW.c ****   RECORD_START(SEGGER_SYSVIEW_INFO_SIZE + 4 * SEGGER_SYSVIEW_QUANTA_U32);
1866:Middlewares/Third_Party/SystemView/SEGGER/SEGGER_SYSVIEW.c ****   //
1867:Middlewares/Third_Party/SystemView/SEGGER/SEGGER_SYSVIEW.c ****   pPayload = pPayloadStart;
1868:Middlewares/Third_Party/SystemView/SEGGER/SEGGER_SYSVIEW.c ****   ENCODE_U32(pPayload, _SYSVIEW_Globals.SysFreq);
1869:Middlewares/Third_Party/SystemView/SEGGER/SEGGER_SYSVIEW.c ****   ENCODE_U32(pPayload, _SYSVIEW_Globals.CPUFreq);
1870:Middlewares/Third_Party/SystemView/SEGGER/SEGGER_SYSVIEW.c ****   ENCODE_U32(pPayload, _SYSVIEW_Globals.RAMBaseAddress);
1871:Middlewares/Third_Party/SystemView/SEGGER/SEGGER_SYSVIEW.c ****   ENCODE_U32(pPayload, SEGGER_SYSVIEW_ID_SHIFT);
1872:Middlewares/Third_Party/SystemView/SEGGER/SEGGER_SYSVIEW.c ****   _SendPacket(pPayloadStart, pPayload, SYSVIEW_EVTID_INIT);
1873:Middlewares/Third_Party/SystemView/SEGGER/SEGGER_SYSVIEW.c ****   RECORD_END();
1874:Middlewares/Third_Party/SystemView/SEGGER/SEGGER_SYSVIEW.c ****   if (_SYSVIEW_Globals.pfSendSysDesc) {
1875:Middlewares/Third_Party/SystemView/SEGGER/SEGGER_SYSVIEW.c ****     _SYSVIEW_Globals.pfSendSysDesc();
1876:Middlewares/Third_Party/SystemView/SEGGER/SEGGER_SYSVIEW.c ****   }
1877:Middlewares/Third_Party/SystemView/SEGGER/SEGGER_SYSVIEW.c **** }
1878:Middlewares/Third_Party/SystemView/SEGGER/SEGGER_SYSVIEW.c **** 
1879:Middlewares/Third_Party/SystemView/SEGGER/SEGGER_SYSVIEW.c **** /*********************************************************************
1880:Middlewares/Third_Party/SystemView/SEGGER/SEGGER_SYSVIEW.c **** *
1881:Middlewares/Third_Party/SystemView/SEGGER/SEGGER_SYSVIEW.c **** *       SEGGER_SYSVIEW_SendTaskInfo()
1882:Middlewares/Third_Party/SystemView/SEGGER/SEGGER_SYSVIEW.c **** *
1883:Middlewares/Third_Party/SystemView/SEGGER/SEGGER_SYSVIEW.c **** *  Function description
1884:Middlewares/Third_Party/SystemView/SEGGER/SEGGER_SYSVIEW.c **** *    Send a Task Info Packet, containing TaskId for identification,
1885:Middlewares/Third_Party/SystemView/SEGGER/SEGGER_SYSVIEW.c **** *    task priority and task name.
1886:Middlewares/Third_Party/SystemView/SEGGER/SEGGER_SYSVIEW.c **** *
1887:Middlewares/Third_Party/SystemView/SEGGER/SEGGER_SYSVIEW.c **** *  Parameters
1888:Middlewares/Third_Party/SystemView/SEGGER/SEGGER_SYSVIEW.c **** *    pInfo - Pointer to task information to send.
1889:Middlewares/Third_Party/SystemView/SEGGER/SEGGER_SYSVIEW.c **** */
1890:Middlewares/Third_Party/SystemView/SEGGER/SEGGER_SYSVIEW.c **** void SEGGER_SYSVIEW_SendTaskInfo(const SEGGER_SYSVIEW_TASKINFO *pInfo) {
1891:Middlewares/Third_Party/SystemView/SEGGER/SEGGER_SYSVIEW.c ****   U8* pPayload;
1892:Middlewares/Third_Party/SystemView/SEGGER/SEGGER_SYSVIEW.c ****   U8* pPayloadStart;
1893:Middlewares/Third_Party/SystemView/SEGGER/SEGGER_SYSVIEW.c ****   RECORD_START(SEGGER_SYSVIEW_INFO_SIZE + SEGGER_SYSVIEW_QUANTA_U32 + 1 + 32);
ARM GAS  C:\Users\KETEN_~1\AppData\Local\Temp\cck9qv27.s 			page 45


1894:Middlewares/Third_Party/SystemView/SEGGER/SEGGER_SYSVIEW.c ****   //
1895:Middlewares/Third_Party/SystemView/SEGGER/SEGGER_SYSVIEW.c ****   pPayload = pPayloadStart;
1896:Middlewares/Third_Party/SystemView/SEGGER/SEGGER_SYSVIEW.c ****   ENCODE_U32(pPayload, SHRINK_ID(pInfo->TaskID));
1897:Middlewares/Third_Party/SystemView/SEGGER/SEGGER_SYSVIEW.c ****   ENCODE_U32(pPayload, pInfo->Prio);
1898:Middlewares/Third_Party/SystemView/SEGGER/SEGGER_SYSVIEW.c ****   pPayload = _EncodeStr(pPayload, pInfo->sName, 32);
1899:Middlewares/Third_Party/SystemView/SEGGER/SEGGER_SYSVIEW.c ****   _SendPacket(pPayloadStart, pPayload, SYSVIEW_EVTID_TASK_INFO);
1900:Middlewares/Third_Party/SystemView/SEGGER/SEGGER_SYSVIEW.c ****   //
1901:Middlewares/Third_Party/SystemView/SEGGER/SEGGER_SYSVIEW.c ****   pPayload = pPayloadStart;
1902:Middlewares/Third_Party/SystemView/SEGGER/SEGGER_SYSVIEW.c ****   ENCODE_U32(pPayload, SHRINK_ID(pInfo->TaskID));
1903:Middlewares/Third_Party/SystemView/SEGGER/SEGGER_SYSVIEW.c ****   ENCODE_U32(pPayload, pInfo->StackBase);
1904:Middlewares/Third_Party/SystemView/SEGGER/SEGGER_SYSVIEW.c ****   ENCODE_U32(pPayload, pInfo->StackSize);
1905:Middlewares/Third_Party/SystemView/SEGGER/SEGGER_SYSVIEW.c ****   ENCODE_U32(pPayload, 0); // Stack End, future use
1906:Middlewares/Third_Party/SystemView/SEGGER/SEGGER_SYSVIEW.c ****   _SendPacket(pPayloadStart, pPayload, SYSVIEW_EVTID_STACK_INFO);
1907:Middlewares/Third_Party/SystemView/SEGGER/SEGGER_SYSVIEW.c ****   RECORD_END();
1908:Middlewares/Third_Party/SystemView/SEGGER/SEGGER_SYSVIEW.c **** }
1909:Middlewares/Third_Party/SystemView/SEGGER/SEGGER_SYSVIEW.c **** 
1910:Middlewares/Third_Party/SystemView/SEGGER/SEGGER_SYSVIEW.c **** /*********************************************************************
1911:Middlewares/Third_Party/SystemView/SEGGER/SEGGER_SYSVIEW.c **** *
1912:Middlewares/Third_Party/SystemView/SEGGER/SEGGER_SYSVIEW.c **** *       SEGGER_SYSVIEW_SendTaskList()
1913:Middlewares/Third_Party/SystemView/SEGGER/SEGGER_SYSVIEW.c **** *
1914:Middlewares/Third_Party/SystemView/SEGGER/SEGGER_SYSVIEW.c **** *  Function description
1915:Middlewares/Third_Party/SystemView/SEGGER/SEGGER_SYSVIEW.c **** *    Send all tasks descriptors to the host.
1916:Middlewares/Third_Party/SystemView/SEGGER/SEGGER_SYSVIEW.c **** */
1917:Middlewares/Third_Party/SystemView/SEGGER/SEGGER_SYSVIEW.c **** void SEGGER_SYSVIEW_SendTaskList(void) {
 593              		.loc 1 1917 40 is_stmt 1 view -0
 594              		.cfi_startproc
 595              		@ args = 0, pretend = 0, frame = 0
 596              		@ frame_needed = 0, uses_anonymous_args = 0
 597 0000 08B5     		push	{r3, lr}
 598              	.LCFI9:
 599              		.cfi_def_cfa_offset 8
 600              		.cfi_offset 3, -8
 601              		.cfi_offset 14, -4
1918:Middlewares/Third_Party/SystemView/SEGGER/SEGGER_SYSVIEW.c ****   if (_SYSVIEW_Globals.pOSAPI && _SYSVIEW_Globals.pOSAPI->pfSendTaskList) {
 602              		.loc 1 1918 3 view .LVU181
 603              		.loc 1 1918 23 is_stmt 0 view .LVU182
 604 0002 034B     		ldr	r3, .L46
 605 0004 1B6A     		ldr	r3, [r3, #32]
 606              		.loc 1 1918 6 view .LVU183
 607 0006 13B1     		cbz	r3, .L43
 608              		.loc 1 1918 57 discriminator 1 view .LVU184
 609 0008 5B68     		ldr	r3, [r3, #4]
 610              		.loc 1 1918 31 discriminator 1 view .LVU185
 611 000a 03B1     		cbz	r3, .L43
1919:Middlewares/Third_Party/SystemView/SEGGER/SEGGER_SYSVIEW.c ****     _SYSVIEW_Globals.pOSAPI->pfSendTaskList();
 612              		.loc 1 1919 5 is_stmt 1 view .LVU186
 613 000c 9847     		blx	r3
 614              	.LVL61:
 615              	.L43:
1920:Middlewares/Third_Party/SystemView/SEGGER/SEGGER_SYSVIEW.c ****   }
1921:Middlewares/Third_Party/SystemView/SEGGER/SEGGER_SYSVIEW.c **** }
 616              		.loc 1 1921 1 is_stmt 0 view .LVU187
 617 000e 08BD     		pop	{r3, pc}
 618              	.L47:
 619              		.align	2
 620              	.L46:
 621 0010 00000000 		.word	_SYSVIEW_Globals
ARM GAS  C:\Users\KETEN_~1\AppData\Local\Temp\cck9qv27.s 			page 46


 622              		.cfi_endproc
 623              	.LFE30:
 625              		.section	.text.SEGGER_SYSVIEW_EncodeU32,"ax",%progbits
 626              		.align	1
 627              		.global	SEGGER_SYSVIEW_EncodeU32
 628              		.syntax unified
 629              		.thumb
 630              		.thumb_func
 632              	SEGGER_SYSVIEW_EncodeU32:
 633              	.LVL62:
 634              	.LFB53:
1922:Middlewares/Third_Party/SystemView/SEGGER/SEGGER_SYSVIEW.c **** 
1923:Middlewares/Third_Party/SystemView/SEGGER/SEGGER_SYSVIEW.c **** /*********************************************************************
1924:Middlewares/Third_Party/SystemView/SEGGER/SEGGER_SYSVIEW.c **** *
1925:Middlewares/Third_Party/SystemView/SEGGER/SEGGER_SYSVIEW.c **** *       SEGGER_SYSVIEW_SendSysDesc()
1926:Middlewares/Third_Party/SystemView/SEGGER/SEGGER_SYSVIEW.c **** *
1927:Middlewares/Third_Party/SystemView/SEGGER/SEGGER_SYSVIEW.c **** *  Function description
1928:Middlewares/Third_Party/SystemView/SEGGER/SEGGER_SYSVIEW.c **** *    Send the system description string to the host.
1929:Middlewares/Third_Party/SystemView/SEGGER/SEGGER_SYSVIEW.c **** *    The system description is used by the Systemview Application
1930:Middlewares/Third_Party/SystemView/SEGGER/SEGGER_SYSVIEW.c **** *    to identify the current application and handle events accordingly.
1931:Middlewares/Third_Party/SystemView/SEGGER/SEGGER_SYSVIEW.c **** *
1932:Middlewares/Third_Party/SystemView/SEGGER/SEGGER_SYSVIEW.c **** *    The system description is usually called by the system description
1933:Middlewares/Third_Party/SystemView/SEGGER/SEGGER_SYSVIEW.c **** *    callback, to ensure it is only sent when the SystemView Application
1934:Middlewares/Third_Party/SystemView/SEGGER/SEGGER_SYSVIEW.c **** *    is connected.  
1935:Middlewares/Third_Party/SystemView/SEGGER/SEGGER_SYSVIEW.c **** *
1936:Middlewares/Third_Party/SystemView/SEGGER/SEGGER_SYSVIEW.c **** *  Parameters
1937:Middlewares/Third_Party/SystemView/SEGGER/SEGGER_SYSVIEW.c **** *    sSysDesc - Pointer to the 0-terminated system description string.
1938:Middlewares/Third_Party/SystemView/SEGGER/SEGGER_SYSVIEW.c **** *
1939:Middlewares/Third_Party/SystemView/SEGGER/SEGGER_SYSVIEW.c **** *  Additional information
1940:Middlewares/Third_Party/SystemView/SEGGER/SEGGER_SYSVIEW.c **** *    One system description string may not exceed SEGGER_SYSVIEW_MAX_STRING_LEN characters.
1941:Middlewares/Third_Party/SystemView/SEGGER/SEGGER_SYSVIEW.c **** *    Multiple description strings can be recorded.
1942:Middlewares/Third_Party/SystemView/SEGGER/SEGGER_SYSVIEW.c **** *
1943:Middlewares/Third_Party/SystemView/SEGGER/SEGGER_SYSVIEW.c **** *    The Following items can be described in a system description string.
1944:Middlewares/Third_Party/SystemView/SEGGER/SEGGER_SYSVIEW.c **** *    Each item is identified by its identifier, followed by '=' and the value.
1945:Middlewares/Third_Party/SystemView/SEGGER/SEGGER_SYSVIEW.c **** *    Items are separated by ','.
1946:Middlewares/Third_Party/SystemView/SEGGER/SEGGER_SYSVIEW.c **** */
1947:Middlewares/Third_Party/SystemView/SEGGER/SEGGER_SYSVIEW.c **** void SEGGER_SYSVIEW_SendSysDesc(const char *sSysDesc) {
1948:Middlewares/Third_Party/SystemView/SEGGER/SEGGER_SYSVIEW.c ****   U8* pPayload;
1949:Middlewares/Third_Party/SystemView/SEGGER/SEGGER_SYSVIEW.c ****   U8* pPayloadStart;
1950:Middlewares/Third_Party/SystemView/SEGGER/SEGGER_SYSVIEW.c ****   RECORD_START(SEGGER_SYSVIEW_INFO_SIZE + 1 + SEGGER_SYSVIEW_MAX_STRING_LEN);
1951:Middlewares/Third_Party/SystemView/SEGGER/SEGGER_SYSVIEW.c ****   //
1952:Middlewares/Third_Party/SystemView/SEGGER/SEGGER_SYSVIEW.c ****   pPayload = _EncodeStr(pPayloadStart, sSysDesc, SEGGER_SYSVIEW_MAX_STRING_LEN);
1953:Middlewares/Third_Party/SystemView/SEGGER/SEGGER_SYSVIEW.c ****   _SendPacket(pPayloadStart, pPayload, SYSVIEW_EVTID_SYSDESC);
1954:Middlewares/Third_Party/SystemView/SEGGER/SEGGER_SYSVIEW.c ****   RECORD_END();
1955:Middlewares/Third_Party/SystemView/SEGGER/SEGGER_SYSVIEW.c **** }
1956:Middlewares/Third_Party/SystemView/SEGGER/SEGGER_SYSVIEW.c **** 
1957:Middlewares/Third_Party/SystemView/SEGGER/SEGGER_SYSVIEW.c **** /*********************************************************************
1958:Middlewares/Third_Party/SystemView/SEGGER/SEGGER_SYSVIEW.c **** *
1959:Middlewares/Third_Party/SystemView/SEGGER/SEGGER_SYSVIEW.c **** *       SEGGER_SYSVIEW_RecordSystime()
1960:Middlewares/Third_Party/SystemView/SEGGER/SEGGER_SYSVIEW.c **** *
1961:Middlewares/Third_Party/SystemView/SEGGER/SEGGER_SYSVIEW.c **** *  Function description
1962:Middlewares/Third_Party/SystemView/SEGGER/SEGGER_SYSVIEW.c **** *    Formats and sends a SystemView Systime containing a single U64 or U32
1963:Middlewares/Third_Party/SystemView/SEGGER/SEGGER_SYSVIEW.c **** *    parameter payload.
1964:Middlewares/Third_Party/SystemView/SEGGER/SEGGER_SYSVIEW.c **** */
1965:Middlewares/Third_Party/SystemView/SEGGER/SEGGER_SYSVIEW.c **** void SEGGER_SYSVIEW_RecordSystime(void) {
1966:Middlewares/Third_Party/SystemView/SEGGER/SEGGER_SYSVIEW.c ****   U64 Systime;
1967:Middlewares/Third_Party/SystemView/SEGGER/SEGGER_SYSVIEW.c **** 
ARM GAS  C:\Users\KETEN_~1\AppData\Local\Temp\cck9qv27.s 			page 47


1968:Middlewares/Third_Party/SystemView/SEGGER/SEGGER_SYSVIEW.c ****   if (_SYSVIEW_Globals.pOSAPI && _SYSVIEW_Globals.pOSAPI->pfGetTime) {
1969:Middlewares/Third_Party/SystemView/SEGGER/SEGGER_SYSVIEW.c ****     Systime = _SYSVIEW_Globals.pOSAPI->pfGetTime();
1970:Middlewares/Third_Party/SystemView/SEGGER/SEGGER_SYSVIEW.c ****     SEGGER_SYSVIEW_RecordU32x2(SYSVIEW_EVTID_SYSTIME_US,
1971:Middlewares/Third_Party/SystemView/SEGGER/SEGGER_SYSVIEW.c ****                                (U32)(Systime),
1972:Middlewares/Third_Party/SystemView/SEGGER/SEGGER_SYSVIEW.c ****                                (U32)(Systime >> 32));
1973:Middlewares/Third_Party/SystemView/SEGGER/SEGGER_SYSVIEW.c ****   } else {
1974:Middlewares/Third_Party/SystemView/SEGGER/SEGGER_SYSVIEW.c ****     SEGGER_SYSVIEW_RecordU32(SYSVIEW_EVTID_SYSTIME_CYCLES, SEGGER_SYSVIEW_GET_TIMESTAMP());
1975:Middlewares/Third_Party/SystemView/SEGGER/SEGGER_SYSVIEW.c ****   }
1976:Middlewares/Third_Party/SystemView/SEGGER/SEGGER_SYSVIEW.c **** }
1977:Middlewares/Third_Party/SystemView/SEGGER/SEGGER_SYSVIEW.c **** 
1978:Middlewares/Third_Party/SystemView/SEGGER/SEGGER_SYSVIEW.c **** /*********************************************************************
1979:Middlewares/Third_Party/SystemView/SEGGER/SEGGER_SYSVIEW.c **** *
1980:Middlewares/Third_Party/SystemView/SEGGER/SEGGER_SYSVIEW.c **** *       SEGGER_SYSVIEW_RecordEnterISR()
1981:Middlewares/Third_Party/SystemView/SEGGER/SEGGER_SYSVIEW.c **** *
1982:Middlewares/Third_Party/SystemView/SEGGER/SEGGER_SYSVIEW.c **** *  Function description
1983:Middlewares/Third_Party/SystemView/SEGGER/SEGGER_SYSVIEW.c **** *    Format and send an ISR entry event.
1984:Middlewares/Third_Party/SystemView/SEGGER/SEGGER_SYSVIEW.c **** *
1985:Middlewares/Third_Party/SystemView/SEGGER/SEGGER_SYSVIEW.c **** *  Additional information
1986:Middlewares/Third_Party/SystemView/SEGGER/SEGGER_SYSVIEW.c **** *    Example packets sent
1987:Middlewares/Third_Party/SystemView/SEGGER/SEGGER_SYSVIEW.c **** *      02 0F 50              // ISR(15) Enter. Timestamp is 80 (0x50)
1988:Middlewares/Third_Party/SystemView/SEGGER/SEGGER_SYSVIEW.c **** */
1989:Middlewares/Third_Party/SystemView/SEGGER/SEGGER_SYSVIEW.c **** void SEGGER_SYSVIEW_RecordEnterISR(void) {
1990:Middlewares/Third_Party/SystemView/SEGGER/SEGGER_SYSVIEW.c ****   unsigned v;
1991:Middlewares/Third_Party/SystemView/SEGGER/SEGGER_SYSVIEW.c ****   U8* pPayload;
1992:Middlewares/Third_Party/SystemView/SEGGER/SEGGER_SYSVIEW.c ****   U8* pPayloadStart;
1993:Middlewares/Third_Party/SystemView/SEGGER/SEGGER_SYSVIEW.c ****   RECORD_START(SEGGER_SYSVIEW_INFO_SIZE + SEGGER_SYSVIEW_QUANTA_U32);
1994:Middlewares/Third_Party/SystemView/SEGGER/SEGGER_SYSVIEW.c ****   //
1995:Middlewares/Third_Party/SystemView/SEGGER/SEGGER_SYSVIEW.c ****   pPayload = pPayloadStart;
1996:Middlewares/Third_Party/SystemView/SEGGER/SEGGER_SYSVIEW.c ****   v = SEGGER_SYSVIEW_GET_INTERRUPT_ID();
1997:Middlewares/Third_Party/SystemView/SEGGER/SEGGER_SYSVIEW.c ****   ENCODE_U32(pPayload, v);
1998:Middlewares/Third_Party/SystemView/SEGGER/SEGGER_SYSVIEW.c ****   _SendPacket(pPayloadStart, pPayload, SYSVIEW_EVTID_ISR_ENTER);
1999:Middlewares/Third_Party/SystemView/SEGGER/SEGGER_SYSVIEW.c ****   RECORD_END();
2000:Middlewares/Third_Party/SystemView/SEGGER/SEGGER_SYSVIEW.c **** }
2001:Middlewares/Third_Party/SystemView/SEGGER/SEGGER_SYSVIEW.c **** 
2002:Middlewares/Third_Party/SystemView/SEGGER/SEGGER_SYSVIEW.c **** /*********************************************************************
2003:Middlewares/Third_Party/SystemView/SEGGER/SEGGER_SYSVIEW.c **** *
2004:Middlewares/Third_Party/SystemView/SEGGER/SEGGER_SYSVIEW.c **** *       SEGGER_SYSVIEW_RecordExitISR()
2005:Middlewares/Third_Party/SystemView/SEGGER/SEGGER_SYSVIEW.c **** *
2006:Middlewares/Third_Party/SystemView/SEGGER/SEGGER_SYSVIEW.c **** *  Function description
2007:Middlewares/Third_Party/SystemView/SEGGER/SEGGER_SYSVIEW.c **** *    Format and send an ISR exit event.
2008:Middlewares/Third_Party/SystemView/SEGGER/SEGGER_SYSVIEW.c **** *
2009:Middlewares/Third_Party/SystemView/SEGGER/SEGGER_SYSVIEW.c **** *  Additional information
2010:Middlewares/Third_Party/SystemView/SEGGER/SEGGER_SYSVIEW.c **** *    Format as follows:
2011:Middlewares/Third_Party/SystemView/SEGGER/SEGGER_SYSVIEW.c **** *      03 <TimeStamp>        // Max. packet len is 6
2012:Middlewares/Third_Party/SystemView/SEGGER/SEGGER_SYSVIEW.c **** *
2013:Middlewares/Third_Party/SystemView/SEGGER/SEGGER_SYSVIEW.c **** *    Example packets sent
2014:Middlewares/Third_Party/SystemView/SEGGER/SEGGER_SYSVIEW.c **** *      03 20                // ISR Exit. Timestamp is 32 (0x20)
2015:Middlewares/Third_Party/SystemView/SEGGER/SEGGER_SYSVIEW.c **** */
2016:Middlewares/Third_Party/SystemView/SEGGER/SEGGER_SYSVIEW.c **** void SEGGER_SYSVIEW_RecordExitISR(void) {
2017:Middlewares/Third_Party/SystemView/SEGGER/SEGGER_SYSVIEW.c ****   U8* pPayloadStart;
2018:Middlewares/Third_Party/SystemView/SEGGER/SEGGER_SYSVIEW.c ****   RECORD_START(SEGGER_SYSVIEW_INFO_SIZE);
2019:Middlewares/Third_Party/SystemView/SEGGER/SEGGER_SYSVIEW.c ****   //
2020:Middlewares/Third_Party/SystemView/SEGGER/SEGGER_SYSVIEW.c ****   _SendPacket(pPayloadStart, pPayloadStart, SYSVIEW_EVTID_ISR_EXIT);
2021:Middlewares/Third_Party/SystemView/SEGGER/SEGGER_SYSVIEW.c ****   RECORD_END();
2022:Middlewares/Third_Party/SystemView/SEGGER/SEGGER_SYSVIEW.c **** }
2023:Middlewares/Third_Party/SystemView/SEGGER/SEGGER_SYSVIEW.c **** 
2024:Middlewares/Third_Party/SystemView/SEGGER/SEGGER_SYSVIEW.c **** /*********************************************************************
ARM GAS  C:\Users\KETEN_~1\AppData\Local\Temp\cck9qv27.s 			page 48


2025:Middlewares/Third_Party/SystemView/SEGGER/SEGGER_SYSVIEW.c **** *
2026:Middlewares/Third_Party/SystemView/SEGGER/SEGGER_SYSVIEW.c **** *       SEGGER_SYSVIEW_RecordExitISRToScheduler()
2027:Middlewares/Third_Party/SystemView/SEGGER/SEGGER_SYSVIEW.c **** *
2028:Middlewares/Third_Party/SystemView/SEGGER/SEGGER_SYSVIEW.c **** *  Function description
2029:Middlewares/Third_Party/SystemView/SEGGER/SEGGER_SYSVIEW.c **** *    Format and send an ISR exit into scheduler event.
2030:Middlewares/Third_Party/SystemView/SEGGER/SEGGER_SYSVIEW.c **** *
2031:Middlewares/Third_Party/SystemView/SEGGER/SEGGER_SYSVIEW.c **** *  Additional information
2032:Middlewares/Third_Party/SystemView/SEGGER/SEGGER_SYSVIEW.c **** *    Format as follows:
2033:Middlewares/Third_Party/SystemView/SEGGER/SEGGER_SYSVIEW.c **** *      18 <TimeStamp>        // Max. packet len is 6
2034:Middlewares/Third_Party/SystemView/SEGGER/SEGGER_SYSVIEW.c **** *
2035:Middlewares/Third_Party/SystemView/SEGGER/SEGGER_SYSVIEW.c **** *    Example packets sent
2036:Middlewares/Third_Party/SystemView/SEGGER/SEGGER_SYSVIEW.c **** *      18 20                // ISR Exit to Scheduler. Timestamp is 32 (0x20)
2037:Middlewares/Third_Party/SystemView/SEGGER/SEGGER_SYSVIEW.c **** */
2038:Middlewares/Third_Party/SystemView/SEGGER/SEGGER_SYSVIEW.c **** void SEGGER_SYSVIEW_RecordExitISRToScheduler(void) {
2039:Middlewares/Third_Party/SystemView/SEGGER/SEGGER_SYSVIEW.c ****   U8* pPayloadStart;
2040:Middlewares/Third_Party/SystemView/SEGGER/SEGGER_SYSVIEW.c ****   RECORD_START(SEGGER_SYSVIEW_INFO_SIZE);
2041:Middlewares/Third_Party/SystemView/SEGGER/SEGGER_SYSVIEW.c ****   //
2042:Middlewares/Third_Party/SystemView/SEGGER/SEGGER_SYSVIEW.c ****   _SendPacket(pPayloadStart, pPayloadStart, SYSVIEW_EVTID_ISR_TO_SCHEDULER);
2043:Middlewares/Third_Party/SystemView/SEGGER/SEGGER_SYSVIEW.c ****   RECORD_END();
2044:Middlewares/Third_Party/SystemView/SEGGER/SEGGER_SYSVIEW.c **** }
2045:Middlewares/Third_Party/SystemView/SEGGER/SEGGER_SYSVIEW.c **** 
2046:Middlewares/Third_Party/SystemView/SEGGER/SEGGER_SYSVIEW.c **** /*********************************************************************
2047:Middlewares/Third_Party/SystemView/SEGGER/SEGGER_SYSVIEW.c **** *
2048:Middlewares/Third_Party/SystemView/SEGGER/SEGGER_SYSVIEW.c **** *       SEGGER_SYSVIEW_RecordEnterTimer()
2049:Middlewares/Third_Party/SystemView/SEGGER/SEGGER_SYSVIEW.c **** *
2050:Middlewares/Third_Party/SystemView/SEGGER/SEGGER_SYSVIEW.c **** *  Function description
2051:Middlewares/Third_Party/SystemView/SEGGER/SEGGER_SYSVIEW.c **** *    Format and send a Timer entry event.
2052:Middlewares/Third_Party/SystemView/SEGGER/SEGGER_SYSVIEW.c **** *  
2053:Middlewares/Third_Party/SystemView/SEGGER/SEGGER_SYSVIEW.c **** *  Parameters
2054:Middlewares/Third_Party/SystemView/SEGGER/SEGGER_SYSVIEW.c **** *    TimerId - Id of the timer which starts.
2055:Middlewares/Third_Party/SystemView/SEGGER/SEGGER_SYSVIEW.c **** */
2056:Middlewares/Third_Party/SystemView/SEGGER/SEGGER_SYSVIEW.c **** void SEGGER_SYSVIEW_RecordEnterTimer(U32 TimerId) {
2057:Middlewares/Third_Party/SystemView/SEGGER/SEGGER_SYSVIEW.c ****   U8* pPayload;
2058:Middlewares/Third_Party/SystemView/SEGGER/SEGGER_SYSVIEW.c ****   U8* pPayloadStart;
2059:Middlewares/Third_Party/SystemView/SEGGER/SEGGER_SYSVIEW.c ****   RECORD_START(SEGGER_SYSVIEW_INFO_SIZE + SEGGER_SYSVIEW_QUANTA_U32);
2060:Middlewares/Third_Party/SystemView/SEGGER/SEGGER_SYSVIEW.c ****   //
2061:Middlewares/Third_Party/SystemView/SEGGER/SEGGER_SYSVIEW.c ****   pPayload = pPayloadStart;
2062:Middlewares/Third_Party/SystemView/SEGGER/SEGGER_SYSVIEW.c ****   ENCODE_U32(pPayload, SHRINK_ID(TimerId));
2063:Middlewares/Third_Party/SystemView/SEGGER/SEGGER_SYSVIEW.c ****   _SendPacket(pPayloadStart, pPayload, SYSVIEW_EVTID_TIMER_ENTER);
2064:Middlewares/Third_Party/SystemView/SEGGER/SEGGER_SYSVIEW.c ****   RECORD_END();
2065:Middlewares/Third_Party/SystemView/SEGGER/SEGGER_SYSVIEW.c **** }
2066:Middlewares/Third_Party/SystemView/SEGGER/SEGGER_SYSVIEW.c **** 
2067:Middlewares/Third_Party/SystemView/SEGGER/SEGGER_SYSVIEW.c **** /*********************************************************************
2068:Middlewares/Third_Party/SystemView/SEGGER/SEGGER_SYSVIEW.c **** *
2069:Middlewares/Third_Party/SystemView/SEGGER/SEGGER_SYSVIEW.c **** *       SEGGER_SYSVIEW_RecordExitTimer()
2070:Middlewares/Third_Party/SystemView/SEGGER/SEGGER_SYSVIEW.c **** *
2071:Middlewares/Third_Party/SystemView/SEGGER/SEGGER_SYSVIEW.c **** *  Function description
2072:Middlewares/Third_Party/SystemView/SEGGER/SEGGER_SYSVIEW.c **** *    Format and send a Timer exit event.
2073:Middlewares/Third_Party/SystemView/SEGGER/SEGGER_SYSVIEW.c **** */
2074:Middlewares/Third_Party/SystemView/SEGGER/SEGGER_SYSVIEW.c **** void SEGGER_SYSVIEW_RecordExitTimer(void) {
2075:Middlewares/Third_Party/SystemView/SEGGER/SEGGER_SYSVIEW.c ****   U8* pPayloadStart;
2076:Middlewares/Third_Party/SystemView/SEGGER/SEGGER_SYSVIEW.c ****   RECORD_START(SEGGER_SYSVIEW_INFO_SIZE);
2077:Middlewares/Third_Party/SystemView/SEGGER/SEGGER_SYSVIEW.c ****   //
2078:Middlewares/Third_Party/SystemView/SEGGER/SEGGER_SYSVIEW.c ****   _SendPacket(pPayloadStart, pPayloadStart, SYSVIEW_EVTID_TIMER_EXIT);
2079:Middlewares/Third_Party/SystemView/SEGGER/SEGGER_SYSVIEW.c ****   RECORD_END();
2080:Middlewares/Third_Party/SystemView/SEGGER/SEGGER_SYSVIEW.c **** }
2081:Middlewares/Third_Party/SystemView/SEGGER/SEGGER_SYSVIEW.c **** 
ARM GAS  C:\Users\KETEN_~1\AppData\Local\Temp\cck9qv27.s 			page 49


2082:Middlewares/Third_Party/SystemView/SEGGER/SEGGER_SYSVIEW.c **** /*********************************************************************
2083:Middlewares/Third_Party/SystemView/SEGGER/SEGGER_SYSVIEW.c **** *
2084:Middlewares/Third_Party/SystemView/SEGGER/SEGGER_SYSVIEW.c **** *       SEGGER_SYSVIEW_RecordEndCall()
2085:Middlewares/Third_Party/SystemView/SEGGER/SEGGER_SYSVIEW.c **** *
2086:Middlewares/Third_Party/SystemView/SEGGER/SEGGER_SYSVIEW.c **** *  Function description
2087:Middlewares/Third_Party/SystemView/SEGGER/SEGGER_SYSVIEW.c **** *    Format and send an End API Call event without return value.
2088:Middlewares/Third_Party/SystemView/SEGGER/SEGGER_SYSVIEW.c **** *  
2089:Middlewares/Third_Party/SystemView/SEGGER/SEGGER_SYSVIEW.c **** *  Parameters
2090:Middlewares/Third_Party/SystemView/SEGGER/SEGGER_SYSVIEW.c **** *    EventID - Id of API function which ends.
2091:Middlewares/Third_Party/SystemView/SEGGER/SEGGER_SYSVIEW.c **** */
2092:Middlewares/Third_Party/SystemView/SEGGER/SEGGER_SYSVIEW.c **** void SEGGER_SYSVIEW_RecordEndCall(unsigned int EventID) {
2093:Middlewares/Third_Party/SystemView/SEGGER/SEGGER_SYSVIEW.c ****   U8* pPayload;
2094:Middlewares/Third_Party/SystemView/SEGGER/SEGGER_SYSVIEW.c ****   U8* pPayloadStart;
2095:Middlewares/Third_Party/SystemView/SEGGER/SEGGER_SYSVIEW.c ****   RECORD_START(SEGGER_SYSVIEW_INFO_SIZE + SEGGER_SYSVIEW_QUANTA_U32);
2096:Middlewares/Third_Party/SystemView/SEGGER/SEGGER_SYSVIEW.c ****   //
2097:Middlewares/Third_Party/SystemView/SEGGER/SEGGER_SYSVIEW.c ****   pPayload = pPayloadStart;
2098:Middlewares/Third_Party/SystemView/SEGGER/SEGGER_SYSVIEW.c ****   ENCODE_U32(pPayload, EventID);
2099:Middlewares/Third_Party/SystemView/SEGGER/SEGGER_SYSVIEW.c ****   _SendPacket(pPayloadStart, pPayload, SYSVIEW_EVTID_END_CALL);
2100:Middlewares/Third_Party/SystemView/SEGGER/SEGGER_SYSVIEW.c ****   RECORD_END();
2101:Middlewares/Third_Party/SystemView/SEGGER/SEGGER_SYSVIEW.c **** }
2102:Middlewares/Third_Party/SystemView/SEGGER/SEGGER_SYSVIEW.c **** 
2103:Middlewares/Third_Party/SystemView/SEGGER/SEGGER_SYSVIEW.c **** /*********************************************************************
2104:Middlewares/Third_Party/SystemView/SEGGER/SEGGER_SYSVIEW.c **** *
2105:Middlewares/Third_Party/SystemView/SEGGER/SEGGER_SYSVIEW.c **** *       SEGGER_SYSVIEW_RecordEndCallU32()
2106:Middlewares/Third_Party/SystemView/SEGGER/SEGGER_SYSVIEW.c **** *
2107:Middlewares/Third_Party/SystemView/SEGGER/SEGGER_SYSVIEW.c **** *  Function description
2108:Middlewares/Third_Party/SystemView/SEGGER/SEGGER_SYSVIEW.c **** *    Format and send an End API Call event with return value.
2109:Middlewares/Third_Party/SystemView/SEGGER/SEGGER_SYSVIEW.c **** *  
2110:Middlewares/Third_Party/SystemView/SEGGER/SEGGER_SYSVIEW.c **** *  Parameters
2111:Middlewares/Third_Party/SystemView/SEGGER/SEGGER_SYSVIEW.c **** *    EventID      - Id of API function which ends.
2112:Middlewares/Third_Party/SystemView/SEGGER/SEGGER_SYSVIEW.c **** *    Para0        - Return value which will be returned by the API function.
2113:Middlewares/Third_Party/SystemView/SEGGER/SEGGER_SYSVIEW.c **** */
2114:Middlewares/Third_Party/SystemView/SEGGER/SEGGER_SYSVIEW.c **** void SEGGER_SYSVIEW_RecordEndCallU32(unsigned int EventID, U32 Para0) {
2115:Middlewares/Third_Party/SystemView/SEGGER/SEGGER_SYSVIEW.c ****   U8* pPayload;
2116:Middlewares/Third_Party/SystemView/SEGGER/SEGGER_SYSVIEW.c ****   U8* pPayloadStart;
2117:Middlewares/Third_Party/SystemView/SEGGER/SEGGER_SYSVIEW.c ****   RECORD_START(SEGGER_SYSVIEW_INFO_SIZE + 2 * SEGGER_SYSVIEW_QUANTA_U32);
2118:Middlewares/Third_Party/SystemView/SEGGER/SEGGER_SYSVIEW.c ****   //
2119:Middlewares/Third_Party/SystemView/SEGGER/SEGGER_SYSVIEW.c ****   pPayload = pPayloadStart;
2120:Middlewares/Third_Party/SystemView/SEGGER/SEGGER_SYSVIEW.c ****   ENCODE_U32(pPayload, EventID);
2121:Middlewares/Third_Party/SystemView/SEGGER/SEGGER_SYSVIEW.c ****   ENCODE_U32(pPayload, Para0);
2122:Middlewares/Third_Party/SystemView/SEGGER/SEGGER_SYSVIEW.c ****   _SendPacket(pPayloadStart, pPayload, SYSVIEW_EVTID_END_CALL);
2123:Middlewares/Third_Party/SystemView/SEGGER/SEGGER_SYSVIEW.c ****   RECORD_END();
2124:Middlewares/Third_Party/SystemView/SEGGER/SEGGER_SYSVIEW.c **** }
2125:Middlewares/Third_Party/SystemView/SEGGER/SEGGER_SYSVIEW.c **** 
2126:Middlewares/Third_Party/SystemView/SEGGER/SEGGER_SYSVIEW.c **** /*********************************************************************
2127:Middlewares/Third_Party/SystemView/SEGGER/SEGGER_SYSVIEW.c **** *
2128:Middlewares/Third_Party/SystemView/SEGGER/SEGGER_SYSVIEW.c **** *       SEGGER_SYSVIEW_OnIdle()
2129:Middlewares/Third_Party/SystemView/SEGGER/SEGGER_SYSVIEW.c **** *
